;******************************************************************************
;* TI ARM C/C++ Codegen                                        PC v16.9.6.LTS *
;* Date/Time created: Sun Dec 02 13:28:37 2018                                *
;******************************************************************************
	.compiler_opts --abi=eabi --arm_vmrs_si_workaround=off --code_state=16 --diag_wrap=off --embedded_constants=on --endian=little --float_support=FPv4SPD16 --hll_source=on --object_format=elf --silicon_version=7M4 --symdebug:dwarf --symdebug:dwarf_version=3 --unaligned_access=on 
	.thumb

$C$DW$CU	.dwtag  DW_TAG_compile_unit
	.dwattr $C$DW$CU, DW_AT_name("../ff.c")
	.dwattr $C$DW$CU, DW_AT_producer("TI TI ARM C/C++ Codegen PC v16.9.6.LTS Copyright (c) 1996-2017 Texas Instruments Incorporated")
	.dwattr $C$DW$CU, DW_AT_TI_version(0x01)
	.dwattr $C$DW$CU, DW_AT_comp_dir("C:\Users\brian\Documents\EE445L\Lab11\Test\Debug")

$C$DW$1	.dwtag  DW_TAG_subprogram
	.dwattr $C$DW$1, DW_AT_name("disk_initialize")
	.dwattr $C$DW$1, DW_AT_TI_symbol_name("disk_initialize")
	.dwattr $C$DW$1, DW_AT_type(*$C$DW$T$109)
	.dwattr $C$DW$1, DW_AT_declaration
	.dwattr $C$DW$1, DW_AT_external
	.dwattr $C$DW$1, DW_AT_decl_file("..\diskio.h")
	.dwattr $C$DW$1, DW_AT_decl_line(0x2a)
	.dwattr $C$DW$1, DW_AT_decl_column(0x09)
$C$DW$2	.dwtag  DW_TAG_formal_parameter
	.dwattr $C$DW$2, DW_AT_type(*$C$DW$T$19)

	.dwendtag $C$DW$1


$C$DW$3	.dwtag  DW_TAG_subprogram
	.dwattr $C$DW$3, DW_AT_name("disk_status")
	.dwattr $C$DW$3, DW_AT_TI_symbol_name("disk_status")
	.dwattr $C$DW$3, DW_AT_type(*$C$DW$T$109)
	.dwattr $C$DW$3, DW_AT_declaration
	.dwattr $C$DW$3, DW_AT_external
	.dwattr $C$DW$3, DW_AT_decl_file("..\diskio.h")
	.dwattr $C$DW$3, DW_AT_decl_line(0x31)
	.dwattr $C$DW$3, DW_AT_decl_column(0x09)
$C$DW$4	.dwtag  DW_TAG_formal_parameter
	.dwattr $C$DW$4, DW_AT_type(*$C$DW$T$19)

	.dwendtag $C$DW$3


$C$DW$5	.dwtag  DW_TAG_subprogram
	.dwattr $C$DW$5, DW_AT_name("disk_read")
	.dwattr $C$DW$5, DW_AT_TI_symbol_name("disk_read")
	.dwattr $C$DW$5, DW_AT_type(*$C$DW$T$34)
	.dwattr $C$DW$5, DW_AT_declaration
	.dwattr $C$DW$5, DW_AT_external
	.dwattr $C$DW$5, DW_AT_decl_file("..\diskio.h")
	.dwattr $C$DW$5, DW_AT_decl_line(0x3b)
	.dwattr $C$DW$5, DW_AT_decl_column(0x09)
$C$DW$6	.dwtag  DW_TAG_formal_parameter
	.dwattr $C$DW$6, DW_AT_type(*$C$DW$T$19)

$C$DW$7	.dwtag  DW_TAG_formal_parameter
	.dwattr $C$DW$7, DW_AT_type(*$C$DW$T$26)

$C$DW$8	.dwtag  DW_TAG_formal_parameter
	.dwattr $C$DW$8, DW_AT_type(*$C$DW$T$21)

$C$DW$9	.dwtag  DW_TAG_formal_parameter
	.dwattr $C$DW$9, DW_AT_type(*$C$DW$T$35)

	.dwendtag $C$DW$5


$C$DW$10	.dwtag  DW_TAG_subprogram
	.dwattr $C$DW$10, DW_AT_name("disk_write")
	.dwattr $C$DW$10, DW_AT_TI_symbol_name("disk_write")
	.dwattr $C$DW$10, DW_AT_type(*$C$DW$T$34)
	.dwattr $C$DW$10, DW_AT_declaration
	.dwattr $C$DW$10, DW_AT_external
	.dwattr $C$DW$10, DW_AT_decl_file("..\diskio.h")
	.dwattr $C$DW$10, DW_AT_decl_line(0x47)
	.dwattr $C$DW$10, DW_AT_decl_column(0x09)
$C$DW$11	.dwtag  DW_TAG_formal_parameter
	.dwattr $C$DW$11, DW_AT_type(*$C$DW$T$19)

$C$DW$12	.dwtag  DW_TAG_formal_parameter
	.dwattr $C$DW$12, DW_AT_type(*$C$DW$T$39)

$C$DW$13	.dwtag  DW_TAG_formal_parameter
	.dwattr $C$DW$13, DW_AT_type(*$C$DW$T$21)

$C$DW$14	.dwtag  DW_TAG_formal_parameter
	.dwattr $C$DW$14, DW_AT_type(*$C$DW$T$35)

	.dwendtag $C$DW$10


$C$DW$15	.dwtag  DW_TAG_subprogram
	.dwattr $C$DW$15, DW_AT_name("disk_ioctl")
	.dwattr $C$DW$15, DW_AT_TI_symbol_name("disk_ioctl")
	.dwattr $C$DW$15, DW_AT_type(*$C$DW$T$34)
	.dwattr $C$DW$15, DW_AT_declaration
	.dwattr $C$DW$15, DW_AT_external
	.dwattr $C$DW$15, DW_AT_decl_file("..\diskio.h")
	.dwattr $C$DW$15, DW_AT_decl_line(0x51)
	.dwattr $C$DW$15, DW_AT_decl_column(0x09)
$C$DW$16	.dwtag  DW_TAG_formal_parameter
	.dwattr $C$DW$16, DW_AT_type(*$C$DW$T$19)

$C$DW$17	.dwtag  DW_TAG_formal_parameter
	.dwattr $C$DW$17, DW_AT_type(*$C$DW$T$19)

$C$DW$18	.dwtag  DW_TAG_formal_parameter
	.dwattr $C$DW$18, DW_AT_type(*$C$DW$T$3)

	.dwendtag $C$DW$15

FatFs:	.usect	".bss:FatFs",4,4
	.clink ".bss:FatFs"
$C$DW$19	.dwtag  DW_TAG_variable
	.dwattr $C$DW$19, DW_AT_name("FatFs")
	.dwattr $C$DW$19, DW_AT_TI_symbol_name("FatFs")
	.dwattr $C$DW$19, DW_AT_type(*$C$DW$T$100)
	.dwattr $C$DW$19, DW_AT_location[DW_OP_addr FatFs]
	.dwattr $C$DW$19, DW_AT_decl_file("../ff.c")
	.dwattr $C$DW$19, DW_AT_decl_line(0x1fe)
	.dwattr $C$DW$19, DW_AT_decl_column(0x0f)

	.bss	Fsid,2,2
$C$DW$20	.dwtag  DW_TAG_variable
	.dwattr $C$DW$20, DW_AT_name("Fsid")
	.dwattr $C$DW$20, DW_AT_TI_symbol_name("Fsid")
	.dwattr $C$DW$20, DW_AT_type(*$C$DW$T$20)
	.dwattr $C$DW$20, DW_AT_location[DW_OP_addr Fsid]
	.dwattr $C$DW$20, DW_AT_decl_file("../ff.c")
	.dwattr $C$DW$20, DW_AT_decl_line(0x1ff)
	.dwattr $C$DW$20, DW_AT_decl_column(0x0d)

	.sect	".const:vst$1"
	.clink
	.align	2
	.elfsym	vst$1,SYM_SIZE(24)
vst$1:
	.bits	1024,16			; vst$1[0] @ 0
	.bits	512,16			; vst$1[1] @ 16
	.bits	256,16			; vst$1[2] @ 32
	.bits	128,16			; vst$1[3] @ 48
	.bits	64,16			; vst$1[4] @ 64
	.bits	32,16			; vst$1[5] @ 80
	.bits	16,16			; vst$1[6] @ 96
	.bits	8,16			; vst$1[7] @ 112
	.bits	4,16			; vst$1[8] @ 128
	.bits	2,16			; vst$1[9] @ 144
	.bits	0,16			; vst$1[10] @ 160

	.sect	".const:cst$2"
	.clink
	.align	2
	.elfsym	cst$2,SYM_SIZE(24)
cst$2:
	.bits	32768,16			; cst$2[0] @ 0
	.bits	16384,16			; cst$2[1] @ 16
	.bits	8192,16			; cst$2[2] @ 32
	.bits	4096,16			; cst$2[3] @ 48
	.bits	2048,16			; cst$2[4] @ 64
	.bits	16384,16			; cst$2[5] @ 80
	.bits	8192,16			; cst$2[6] @ 96
	.bits	4096,16			; cst$2[7] @ 112
	.bits	2048,16			; cst$2[8] @ 128
	.bits	1024,16			; cst$2[9] @ 144
	.bits	512,16			; cst$2[10] @ 160

;	C:\ti\ccsv7\tools\compiler\ti-cgt-arm_16.9.6.LTS\bin\armacpia.exe -@C:\\Users\\brian\\AppData\\Local\\Temp\\{307CD9A1-89E8-41CA-861A-CB9691717414} 
	.sect	".text"
	.clink
	.thumbfunc mem_cpy
	.thumb

$C$DW$21	.dwtag  DW_TAG_subprogram
	.dwattr $C$DW$21, DW_AT_name("mem_cpy")
	.dwattr $C$DW$21, DW_AT_low_pc(mem_cpy)
	.dwattr $C$DW$21, DW_AT_high_pc(0x00)
	.dwattr $C$DW$21, DW_AT_TI_symbol_name("mem_cpy")
	.dwattr $C$DW$21, DW_AT_TI_begin_file("../ff.c")
	.dwattr $C$DW$21, DW_AT_TI_begin_line(0x239)
	.dwattr $C$DW$21, DW_AT_TI_begin_column(0x06)
	.dwattr $C$DW$21, DW_AT_decl_file("../ff.c")
	.dwattr $C$DW$21, DW_AT_decl_line(0x239)
	.dwattr $C$DW$21, DW_AT_decl_column(0x06)
	.dwattr $C$DW$21, DW_AT_TI_max_frame_size(0x18)
	.dwpsn	file "../ff.c",line 569,column 53,is_stmt,address mem_cpy,isa 1

	.dwfde $C$DW$CIE, mem_cpy
$C$DW$22	.dwtag  DW_TAG_formal_parameter
	.dwattr $C$DW$22, DW_AT_name("dst")
	.dwattr $C$DW$22, DW_AT_TI_symbol_name("dst")
	.dwattr $C$DW$22, DW_AT_type(*$C$DW$T$3)
	.dwattr $C$DW$22, DW_AT_location[DW_OP_reg0]

$C$DW$23	.dwtag  DW_TAG_formal_parameter
	.dwattr $C$DW$23, DW_AT_name("src")
	.dwattr $C$DW$23, DW_AT_TI_symbol_name("src")
	.dwattr $C$DW$23, DW_AT_type(*$C$DW$T$79)
	.dwattr $C$DW$23, DW_AT_location[DW_OP_reg1]

$C$DW$24	.dwtag  DW_TAG_formal_parameter
	.dwattr $C$DW$24, DW_AT_name("cnt")
	.dwattr $C$DW$24, DW_AT_TI_symbol_name("cnt")
	.dwattr $C$DW$24, DW_AT_type(*$C$DW$T$35)
	.dwattr $C$DW$24, DW_AT_location[DW_OP_reg2]


;*****************************************************************************
;* FUNCTION NAME: mem_cpy                                                    *
;*                                                                           *
;*   Regs Modified     : A1,A2,A3,SP,SR                                      *
;*   Regs Used         : A1,A2,A3,SP,LR,SR                                   *
;*   Local Frame Size  : 0 Args + 20 Auto + 0 Save = 20 byte                 *
;*****************************************************************************
mem_cpy:
;* --------------------------------------------------------------------------*
	.dwcfi	cfa_offset, 0
        SUB       SP, SP, #24           ; [DPU_3_PIPE] 
	.dwcfi	cfa_offset, 24
$C$DW$25	.dwtag  DW_TAG_variable
	.dwattr $C$DW$25, DW_AT_name("dst")
	.dwattr $C$DW$25, DW_AT_TI_symbol_name("dst")
	.dwattr $C$DW$25, DW_AT_type(*$C$DW$T$3)
	.dwattr $C$DW$25, DW_AT_location[DW_OP_breg13 0]

$C$DW$26	.dwtag  DW_TAG_variable
	.dwattr $C$DW$26, DW_AT_name("src")
	.dwattr $C$DW$26, DW_AT_TI_symbol_name("src")
	.dwattr $C$DW$26, DW_AT_type(*$C$DW$T$79)
	.dwattr $C$DW$26, DW_AT_location[DW_OP_breg13 4]

$C$DW$27	.dwtag  DW_TAG_variable
	.dwattr $C$DW$27, DW_AT_name("cnt")
	.dwattr $C$DW$27, DW_AT_TI_symbol_name("cnt")
	.dwattr $C$DW$27, DW_AT_type(*$C$DW$T$35)
	.dwattr $C$DW$27, DW_AT_location[DW_OP_breg13 8]

$C$DW$28	.dwtag  DW_TAG_variable
	.dwattr $C$DW$28, DW_AT_name("d")
	.dwattr $C$DW$28, DW_AT_TI_symbol_name("d")
	.dwattr $C$DW$28, DW_AT_type(*$C$DW$T$26)
	.dwattr $C$DW$28, DW_AT_location[DW_OP_breg13 12]

$C$DW$29	.dwtag  DW_TAG_variable
	.dwattr $C$DW$29, DW_AT_name("s")
	.dwattr $C$DW$29, DW_AT_TI_symbol_name("s")
	.dwattr $C$DW$29, DW_AT_type(*$C$DW$T$39)
	.dwattr $C$DW$29, DW_AT_location[DW_OP_breg13 16]

;----------------------------------------------------------------------
; 569 | void mem_cpy (void* dst, const void* src, UINT cnt) {                  
;----------------------------------------------------------------------
        STR       A3, [SP, #8]          ; [DPU_3_PIPE] |569| 
        STR       A2, [SP, #4]          ; [DPU_3_PIPE] |569| 
        STR       A1, [SP, #0]          ; [DPU_3_PIPE] |569| 
	.dwpsn	file "../ff.c",line 570,column 11,is_stmt,isa 1
;----------------------------------------------------------------------
; 570 | BYTE *d = (BYTE*)dst;                                                  
;----------------------------------------------------------------------
        LDR       A1, [SP, #0]          ; [DPU_3_PIPE] |570| 
        STR       A1, [SP, #12]         ; [DPU_3_PIPE] |570| 
	.dwpsn	file "../ff.c",line 571,column 17,is_stmt,isa 1
;----------------------------------------------------------------------
; 571 | const BYTE *s = (const BYTE*)src;                                      
; 573 | #if _WORD_ACCESS == 1                                                  
; 574 | while (cnt >= sizeof (int)) {                                          
; 575 |   *(int*)d = *(int*)s;                                                 
; 576 |   d += sizeof (int); s += sizeof (int);                                
; 577 |   cnt -= sizeof (int);                                                 
; 579 | #endif                                                                 
;----------------------------------------------------------------------
        LDR       A1, [SP, #4]          ; [DPU_3_PIPE] |571| 
        STR       A1, [SP, #16]         ; [DPU_3_PIPE] |571| 
	.dwpsn	file "../ff.c",line 580,column 3,is_stmt,isa 1
;----------------------------------------------------------------------
; 580 | while (cnt--)                                                          
;----------------------------------------------------------------------
        LDR       A1, [SP, #8]          ; [DPU_3_PIPE] |580| 
        SUBS      A2, A1, #1            ; [DPU_3_PIPE] |580| 
        STR       A2, [SP, #8]          ; [DPU_3_PIPE] |580| 
        CBZ       A1, ||$C$L2||         ; [] 
        ; BRANCHCC OCCURS {||$C$L2||}    ; [] |580| 
;* --------------------------------------------------------------------------*
;*   BEGIN LOOP ||$C$L1||
;*
;*   Loop source line                : 580
;*   Loop closing brace source line  : 581
;*   Known Minimum Trip Count        : 1
;*   Known Maximum Trip Count        : 4294967295
;*   Known Max Trip Count Factor     : 1
;* --------------------------------------------------------------------------*
||$C$L1||:    
	.dwpsn	file "../ff.c",line 581,column 5,is_stmt,isa 1
;----------------------------------------------------------------------
; 581 | *d++ = *s++;                                                           
;----------------------------------------------------------------------
        LDR       A2, [SP, #16]         ; [DPU_3_PIPE] |581| 
        LDR       A1, [SP, #12]         ; [DPU_3_PIPE] |581| 
        LDRB      A3, [A2], #1          ; [DPU_3_PIPE] |581| 
        STR       A2, [SP, #16]         ; [DPU_3_PIPE] |581| 
        ADDS      A2, A1, #1            ; [DPU_3_PIPE] |581| 
        STR       A2, [SP, #12]         ; [DPU_3_PIPE] |581| 
        STRB      A3, [A1, #0]          ; [DPU_3_PIPE] |581| 
	.dwpsn	file "../ff.c",line 580,column 3,is_stmt,isa 1
        LDR       A1, [SP, #8]          ; [DPU_3_PIPE] |580| 
        CMP       A1, #0                ; [DPU_3_PIPE] |580| 
        SUB       A2, A1, #1            ; [DPU_3_PIPE] |580| 
        STR       A2, [SP, #8]          ; [DPU_3_PIPE] |580| 
        BNE       ||$C$L1||             ; [DPU_3_PIPE] |580| 
        ; BRANCHCC OCCURS {||$C$L1||}    ; [] |580| 
;* --------------------------------------------------------------------------*
	.dwpsn	file "../ff.c",line 582,column 1,is_stmt,isa 1
;* --------------------------------------------------------------------------*
||$C$L2||:    
        ADD       SP, SP, #24           ; [DPU_3_PIPE] 
	.dwcfi	cfa_offset, 0
$C$DW$30	.dwtag  DW_TAG_TI_branch
	.dwattr $C$DW$30, DW_AT_low_pc(0x00)
	.dwattr $C$DW$30, DW_AT_TI_return

        BX        LR                    ; [DPU_3_PIPE] 
        ; BRANCH OCCURS                  ; [] 
	.dwattr $C$DW$21, DW_AT_TI_end_file("../ff.c")
	.dwattr $C$DW$21, DW_AT_TI_end_line(0x246)
	.dwattr $C$DW$21, DW_AT_TI_end_column(0x01)
	.dwendentry
	.dwendtag $C$DW$21

	.sect	".text"
	.clink
	.thumbfunc mem_set
	.thumb

$C$DW$31	.dwtag  DW_TAG_subprogram
	.dwattr $C$DW$31, DW_AT_name("mem_set")
	.dwattr $C$DW$31, DW_AT_low_pc(mem_set)
	.dwattr $C$DW$31, DW_AT_high_pc(0x00)
	.dwattr $C$DW$31, DW_AT_TI_symbol_name("mem_set")
	.dwattr $C$DW$31, DW_AT_TI_begin_file("../ff.c")
	.dwattr $C$DW$31, DW_AT_TI_begin_line(0x24a)
	.dwattr $C$DW$31, DW_AT_TI_begin_column(0x06)
	.dwattr $C$DW$31, DW_AT_decl_file("../ff.c")
	.dwattr $C$DW$31, DW_AT_decl_line(0x24a)
	.dwattr $C$DW$31, DW_AT_decl_column(0x06)
	.dwattr $C$DW$31, DW_AT_TI_max_frame_size(0x10)
	.dwpsn	file "../ff.c",line 586,column 45,is_stmt,address mem_set,isa 1

	.dwfde $C$DW$CIE, mem_set
$C$DW$32	.dwtag  DW_TAG_formal_parameter
	.dwattr $C$DW$32, DW_AT_name("dst")
	.dwattr $C$DW$32, DW_AT_TI_symbol_name("dst")
	.dwattr $C$DW$32, DW_AT_type(*$C$DW$T$3)
	.dwattr $C$DW$32, DW_AT_location[DW_OP_reg0]

$C$DW$33	.dwtag  DW_TAG_formal_parameter
	.dwattr $C$DW$33, DW_AT_name("val")
	.dwattr $C$DW$33, DW_AT_TI_symbol_name("val")
	.dwattr $C$DW$33, DW_AT_type(*$C$DW$T$10)
	.dwattr $C$DW$33, DW_AT_location[DW_OP_reg1]

$C$DW$34	.dwtag  DW_TAG_formal_parameter
	.dwattr $C$DW$34, DW_AT_name("cnt")
	.dwattr $C$DW$34, DW_AT_TI_symbol_name("cnt")
	.dwattr $C$DW$34, DW_AT_type(*$C$DW$T$35)
	.dwattr $C$DW$34, DW_AT_location[DW_OP_reg2]


;*****************************************************************************
;* FUNCTION NAME: mem_set                                                    *
;*                                                                           *
;*   Regs Modified     : A1,A2,SP,SR                                         *
;*   Regs Used         : A1,A2,A3,SP,LR,SR                                   *
;*   Local Frame Size  : 0 Args + 16 Auto + 0 Save = 16 byte                 *
;*****************************************************************************
mem_set:
;* --------------------------------------------------------------------------*
	.dwcfi	cfa_offset, 0
        SUB       SP, SP, #16           ; [DPU_3_PIPE] 
	.dwcfi	cfa_offset, 16
$C$DW$35	.dwtag  DW_TAG_variable
	.dwattr $C$DW$35, DW_AT_name("dst")
	.dwattr $C$DW$35, DW_AT_TI_symbol_name("dst")
	.dwattr $C$DW$35, DW_AT_type(*$C$DW$T$3)
	.dwattr $C$DW$35, DW_AT_location[DW_OP_breg13 0]

$C$DW$36	.dwtag  DW_TAG_variable
	.dwattr $C$DW$36, DW_AT_name("val")
	.dwattr $C$DW$36, DW_AT_TI_symbol_name("val")
	.dwattr $C$DW$36, DW_AT_type(*$C$DW$T$10)
	.dwattr $C$DW$36, DW_AT_location[DW_OP_breg13 4]

$C$DW$37	.dwtag  DW_TAG_variable
	.dwattr $C$DW$37, DW_AT_name("cnt")
	.dwattr $C$DW$37, DW_AT_TI_symbol_name("cnt")
	.dwattr $C$DW$37, DW_AT_type(*$C$DW$T$35)
	.dwattr $C$DW$37, DW_AT_location[DW_OP_breg13 8]

$C$DW$38	.dwtag  DW_TAG_variable
	.dwattr $C$DW$38, DW_AT_name("d")
	.dwattr $C$DW$38, DW_AT_TI_symbol_name("d")
	.dwattr $C$DW$38, DW_AT_type(*$C$DW$T$26)
	.dwattr $C$DW$38, DW_AT_location[DW_OP_breg13 12]

;----------------------------------------------------------------------
; 586 | void mem_set (void* dst, int val, UINT cnt) {                          
;----------------------------------------------------------------------
        STR       A3, [SP, #8]          ; [DPU_3_PIPE] |586| 
        STR       A2, [SP, #4]          ; [DPU_3_PIPE] |586| 
        STR       A1, [SP, #0]          ; [DPU_3_PIPE] |586| 
	.dwpsn	file "../ff.c",line 587,column 11,is_stmt,isa 1
;----------------------------------------------------------------------
; 587 | BYTE *d = (BYTE*)dst;                                                  
;----------------------------------------------------------------------
        LDR       A1, [SP, #0]          ; [DPU_3_PIPE] |587| 
        STR       A1, [SP, #12]         ; [DPU_3_PIPE] |587| 
	.dwpsn	file "../ff.c",line 589,column 3,is_stmt,isa 1
;----------------------------------------------------------------------
; 589 | while (cnt--)                                                          
;----------------------------------------------------------------------
        LDR       A1, [SP, #8]          ; [DPU_3_PIPE] |589| 
        SUBS      A2, A1, #1            ; [DPU_3_PIPE] |589| 
        STR       A2, [SP, #8]          ; [DPU_3_PIPE] |589| 
        CBZ       A1, ||$C$L4||         ; [] 
        ; BRANCHCC OCCURS {||$C$L4||}    ; [] |589| 
;* --------------------------------------------------------------------------*
;*   BEGIN LOOP ||$C$L3||
;*
;*   Loop source line                : 589
;*   Loop closing brace source line  : 590
;*   Known Minimum Trip Count        : 1
;*   Known Maximum Trip Count        : 4294967295
;*   Known Max Trip Count Factor     : 1
;* --------------------------------------------------------------------------*
||$C$L3||:    
	.dwpsn	file "../ff.c",line 590,column 5,is_stmt,isa 1
;----------------------------------------------------------------------
; 590 | *d++ = (BYTE)val;                                                      
;----------------------------------------------------------------------
        LDR       A1, [SP, #12]         ; [DPU_3_PIPE] |590| 
        ADDS      A2, A1, #1            ; [DPU_3_PIPE] |590| 
        STR       A2, [SP, #12]         ; [DPU_3_PIPE] |590| 
        LDRB      A2, [SP, #4]          ; [DPU_3_PIPE] |590| 
        STRB      A2, [A1, #0]          ; [DPU_3_PIPE] |590| 
	.dwpsn	file "../ff.c",line 589,column 3,is_stmt,isa 1
        LDR       A1, [SP, #8]          ; [DPU_3_PIPE] |589| 
        CMP       A1, #0                ; [DPU_3_PIPE] |589| 
        SUB       A2, A1, #1            ; [DPU_3_PIPE] |589| 
        STR       A2, [SP, #8]          ; [DPU_3_PIPE] |589| 
        BNE       ||$C$L3||             ; [DPU_3_PIPE] |589| 
        ; BRANCHCC OCCURS {||$C$L3||}    ; [] |589| 
;* --------------------------------------------------------------------------*
	.dwpsn	file "../ff.c",line 591,column 1,is_stmt,isa 1
;* --------------------------------------------------------------------------*
||$C$L4||:    
        ADD       SP, SP, #16           ; [DPU_3_PIPE] 
	.dwcfi	cfa_offset, 0
$C$DW$39	.dwtag  DW_TAG_TI_branch
	.dwattr $C$DW$39, DW_AT_low_pc(0x00)
	.dwattr $C$DW$39, DW_AT_TI_return

        BX        LR                    ; [DPU_3_PIPE] 
        ; BRANCH OCCURS                  ; [] 
	.dwattr $C$DW$31, DW_AT_TI_end_file("../ff.c")
	.dwattr $C$DW$31, DW_AT_TI_end_line(0x24f)
	.dwattr $C$DW$31, DW_AT_TI_end_column(0x01)
	.dwendentry
	.dwendtag $C$DW$31

	.sect	".text"
	.clink
	.thumbfunc mem_cmp
	.thumb

$C$DW$40	.dwtag  DW_TAG_subprogram
	.dwattr $C$DW$40, DW_AT_name("mem_cmp")
	.dwattr $C$DW$40, DW_AT_low_pc(mem_cmp)
	.dwattr $C$DW$40, DW_AT_high_pc(0x00)
	.dwattr $C$DW$40, DW_AT_TI_symbol_name("mem_cmp")
	.dwattr $C$DW$40, DW_AT_type(*$C$DW$T$10)
	.dwattr $C$DW$40, DW_AT_TI_begin_file("../ff.c")
	.dwattr $C$DW$40, DW_AT_TI_begin_line(0x253)
	.dwattr $C$DW$40, DW_AT_TI_begin_column(0x05)
	.dwattr $C$DW$40, DW_AT_decl_file("../ff.c")
	.dwattr $C$DW$40, DW_AT_decl_line(0x253)
	.dwattr $C$DW$40, DW_AT_decl_column(0x05)
	.dwattr $C$DW$40, DW_AT_TI_max_frame_size(0x18)
	.dwpsn	file "../ff.c",line 595,column 58,is_stmt,address mem_cmp,isa 1

	.dwfde $C$DW$CIE, mem_cmp
$C$DW$41	.dwtag  DW_TAG_formal_parameter
	.dwattr $C$DW$41, DW_AT_name("dst")
	.dwattr $C$DW$41, DW_AT_TI_symbol_name("dst")
	.dwattr $C$DW$41, DW_AT_type(*$C$DW$T$79)
	.dwattr $C$DW$41, DW_AT_location[DW_OP_reg0]

$C$DW$42	.dwtag  DW_TAG_formal_parameter
	.dwattr $C$DW$42, DW_AT_name("src")
	.dwattr $C$DW$42, DW_AT_TI_symbol_name("src")
	.dwattr $C$DW$42, DW_AT_type(*$C$DW$T$79)
	.dwattr $C$DW$42, DW_AT_location[DW_OP_reg1]

$C$DW$43	.dwtag  DW_TAG_formal_parameter
	.dwattr $C$DW$43, DW_AT_name("cnt")
	.dwattr $C$DW$43, DW_AT_TI_symbol_name("cnt")
	.dwattr $C$DW$43, DW_AT_type(*$C$DW$T$35)
	.dwattr $C$DW$43, DW_AT_location[DW_OP_reg2]


;*****************************************************************************
;* FUNCTION NAME: mem_cmp                                                    *
;*                                                                           *
;*   Regs Modified     : A1,A2,A3,SP,SR                                      *
;*   Regs Used         : A1,A2,A3,SP,LR,SR                                   *
;*   Local Frame Size  : 0 Args + 24 Auto + 0 Save = 24 byte                 *
;*****************************************************************************
mem_cmp:
;* --------------------------------------------------------------------------*
	.dwcfi	cfa_offset, 0
        SUB       SP, SP, #24           ; [DPU_3_PIPE] 
	.dwcfi	cfa_offset, 24
$C$DW$44	.dwtag  DW_TAG_variable
	.dwattr $C$DW$44, DW_AT_name("dst")
	.dwattr $C$DW$44, DW_AT_TI_symbol_name("dst")
	.dwattr $C$DW$44, DW_AT_type(*$C$DW$T$79)
	.dwattr $C$DW$44, DW_AT_location[DW_OP_breg13 0]

$C$DW$45	.dwtag  DW_TAG_variable
	.dwattr $C$DW$45, DW_AT_name("src")
	.dwattr $C$DW$45, DW_AT_TI_symbol_name("src")
	.dwattr $C$DW$45, DW_AT_type(*$C$DW$T$79)
	.dwattr $C$DW$45, DW_AT_location[DW_OP_breg13 4]

$C$DW$46	.dwtag  DW_TAG_variable
	.dwattr $C$DW$46, DW_AT_name("cnt")
	.dwattr $C$DW$46, DW_AT_TI_symbol_name("cnt")
	.dwattr $C$DW$46, DW_AT_type(*$C$DW$T$35)
	.dwattr $C$DW$46, DW_AT_location[DW_OP_breg13 8]

$C$DW$47	.dwtag  DW_TAG_variable
	.dwattr $C$DW$47, DW_AT_name("d")
	.dwattr $C$DW$47, DW_AT_TI_symbol_name("d")
	.dwattr $C$DW$47, DW_AT_type(*$C$DW$T$39)
	.dwattr $C$DW$47, DW_AT_location[DW_OP_breg13 12]

$C$DW$48	.dwtag  DW_TAG_variable
	.dwattr $C$DW$48, DW_AT_name("s")
	.dwattr $C$DW$48, DW_AT_TI_symbol_name("s")
	.dwattr $C$DW$48, DW_AT_type(*$C$DW$T$39)
	.dwattr $C$DW$48, DW_AT_location[DW_OP_breg13 16]

$C$DW$49	.dwtag  DW_TAG_variable
	.dwattr $C$DW$49, DW_AT_name("r")
	.dwattr $C$DW$49, DW_AT_TI_symbol_name("r")
	.dwattr $C$DW$49, DW_AT_type(*$C$DW$T$10)
	.dwattr $C$DW$49, DW_AT_location[DW_OP_breg13 20]

;----------------------------------------------------------------------
; 595 | int mem_cmp (const void* dst, const void* src, UINT cnt) {             
;----------------------------------------------------------------------
        STR       A3, [SP, #8]          ; [DPU_3_PIPE] |595| 
        STR       A2, [SP, #4]          ; [DPU_3_PIPE] |595| 
        STR       A1, [SP, #0]          ; [DPU_3_PIPE] |595| 
	.dwpsn	file "../ff.c",line 596,column 17,is_stmt,isa 1
;----------------------------------------------------------------------
; 596 | const BYTE *d = (const BYTE *)dst, *s = (const BYTE *)src;             
;----------------------------------------------------------------------
        LDR       A1, [SP, #0]          ; [DPU_3_PIPE] |596| 
        STR       A1, [SP, #12]         ; [DPU_3_PIPE] |596| 
	.dwpsn	file "../ff.c",line 596,column 41,is_stmt,isa 1
        LDR       A1, [SP, #4]          ; [DPU_3_PIPE] |596| 
        STR       A1, [SP, #16]         ; [DPU_3_PIPE] |596| 
	.dwpsn	file "../ff.c",line 597,column 9,is_stmt,isa 1
;----------------------------------------------------------------------
; 597 | int r = 0;                                                             
;----------------------------------------------------------------------
        MOVS      A1, #0                ; [DPU_3_PIPE] |597| 
        STR       A1, [SP, #20]         ; [DPU_3_PIPE] |597| 
	.dwpsn	file "../ff.c",line 599,column 3,is_stmt,isa 1
;----------------------------------------------------------------------
; 599 | while (cnt-- && (r = *d++ - *s++) == 0) ;                              
;----------------------------------------------------------------------
;* --------------------------------------------------------------------------*
;*   BEGIN LOOP ||$C$L5||
;*
;*   Loop source line                : 599
;*   Loop closing brace source line  : 599
;*   Known Minimum Trip Count        : 1
;*   Known Maximum Trip Count        : 4294967295
;*   Known Max Trip Count Factor     : 1
;* --------------------------------------------------------------------------*
||$C$L5||:    
	.dwpsn	file "../ff.c",line 599,column 10,is_stmt,isa 1
        LDR       A1, [SP, #8]          ; [DPU_3_PIPE] |599| 
        SUBS      A2, A1, #1            ; [DPU_3_PIPE] |599| 
        STR       A2, [SP, #8]          ; [DPU_3_PIPE] |599| 
        CBZ       A1, ||$C$L6||         ; [] 
        ; BRANCHCC OCCURS {||$C$L6||}    ; [] |599| 
;* --------------------------------------------------------------------------*
        LDR       A1, [SP, #16]         ; [DPU_3_PIPE] |599| 
        LDR       A3, [SP, #12]         ; [DPU_3_PIPE] |599| 
        LDRB      A2, [A1], #1          ; [DPU_3_PIPE] |599| 
        STR       A1, [SP, #16]         ; [DPU_3_PIPE] |599| 
        LDRB      A1, [A3], #1          ; [DPU_3_PIPE] |599| 
        STR       A3, [SP, #12]         ; [DPU_3_PIPE] |599| 
        SUBS      A1, A1, A2            ; [DPU_3_PIPE] |599| 
        STR       A1, [SP, #20]         ; [DPU_3_PIPE] |599| 
        BEQ       ||$C$L5||             ; [DPU_3_PIPE] |599| 
        ; BRANCHCC OCCURS {||$C$L5||}    ; [] |599| 
;* --------------------------------------------------------------------------*
||$C$L6||:    
	.dwpsn	file "../ff.c",line 600,column 3,is_stmt,isa 1
;----------------------------------------------------------------------
; 600 | return r;                                                              
;----------------------------------------------------------------------
        LDR       A1, [SP, #20]         ; [DPU_3_PIPE] |600| 
	.dwpsn	file "../ff.c",line 601,column 1,is_stmt,isa 1
        ADD       SP, SP, #24           ; [DPU_3_PIPE] 
	.dwcfi	cfa_offset, 0
$C$DW$50	.dwtag  DW_TAG_TI_branch
	.dwattr $C$DW$50, DW_AT_low_pc(0x00)
	.dwattr $C$DW$50, DW_AT_TI_return

        BX        LR                    ; [DPU_3_PIPE] 
        ; BRANCH OCCURS                  ; [] 
	.dwattr $C$DW$40, DW_AT_TI_end_file("../ff.c")
	.dwattr $C$DW$40, DW_AT_TI_end_line(0x259)
	.dwattr $C$DW$40, DW_AT_TI_end_column(0x01)
	.dwendentry
	.dwendtag $C$DW$40

	.sect	".text"
	.clink
	.thumbfunc chk_chr
	.thumb

$C$DW$51	.dwtag  DW_TAG_subprogram
	.dwattr $C$DW$51, DW_AT_name("chk_chr")
	.dwattr $C$DW$51, DW_AT_low_pc(chk_chr)
	.dwattr $C$DW$51, DW_AT_high_pc(0x00)
	.dwattr $C$DW$51, DW_AT_TI_symbol_name("chk_chr")
	.dwattr $C$DW$51, DW_AT_type(*$C$DW$T$10)
	.dwattr $C$DW$51, DW_AT_TI_begin_file("../ff.c")
	.dwattr $C$DW$51, DW_AT_TI_begin_line(0x25d)
	.dwattr $C$DW$51, DW_AT_TI_begin_column(0x05)
	.dwattr $C$DW$51, DW_AT_decl_file("../ff.c")
	.dwattr $C$DW$51, DW_AT_decl_line(0x25d)
	.dwattr $C$DW$51, DW_AT_decl_column(0x05)
	.dwattr $C$DW$51, DW_AT_TI_max_frame_size(0x08)
	.dwpsn	file "../ff.c",line 605,column 40,is_stmt,address chk_chr,isa 1

	.dwfde $C$DW$CIE, chk_chr
$C$DW$52	.dwtag  DW_TAG_formal_parameter
	.dwattr $C$DW$52, DW_AT_name("str")
	.dwattr $C$DW$52, DW_AT_TI_symbol_name("str")
	.dwattr $C$DW$52, DW_AT_type(*$C$DW$T$126)
	.dwattr $C$DW$52, DW_AT_location[DW_OP_reg0]

$C$DW$53	.dwtag  DW_TAG_formal_parameter
	.dwattr $C$DW$53, DW_AT_name("chr")
	.dwattr $C$DW$53, DW_AT_TI_symbol_name("chr")
	.dwattr $C$DW$53, DW_AT_type(*$C$DW$T$10)
	.dwattr $C$DW$53, DW_AT_location[DW_OP_reg1]


;*****************************************************************************
;* FUNCTION NAME: chk_chr                                                    *
;*                                                                           *
;*   Regs Modified     : A1,A2,SP,SR                                         *
;*   Regs Used         : A1,A2,SP,LR,SR                                      *
;*   Local Frame Size  : 0 Args + 8 Auto + 0 Save = 8 byte                   *
;*****************************************************************************
chk_chr:
;* --------------------------------------------------------------------------*
	.dwcfi	cfa_offset, 0
        SUB       SP, SP, #8            ; [DPU_3_PIPE] 
	.dwcfi	cfa_offset, 8
$C$DW$54	.dwtag  DW_TAG_variable
	.dwattr $C$DW$54, DW_AT_name("str")
	.dwattr $C$DW$54, DW_AT_TI_symbol_name("str")
	.dwattr $C$DW$54, DW_AT_type(*$C$DW$T$126)
	.dwattr $C$DW$54, DW_AT_location[DW_OP_breg13 0]

$C$DW$55	.dwtag  DW_TAG_variable
	.dwattr $C$DW$55, DW_AT_name("chr")
	.dwattr $C$DW$55, DW_AT_TI_symbol_name("chr")
	.dwattr $C$DW$55, DW_AT_type(*$C$DW$T$10)
	.dwattr $C$DW$55, DW_AT_location[DW_OP_breg13 4]

;----------------------------------------------------------------------
; 605 | int chk_chr (const char* str, int chr) {                               
;----------------------------------------------------------------------
        STR       A2, [SP, #4]          ; [DPU_3_PIPE] |605| 
        STR       A1, [SP, #0]          ; [DPU_3_PIPE] |605| 
	.dwpsn	file "../ff.c",line 606,column 3,is_stmt,isa 1
;----------------------------------------------------------------------
; 606 | while (*str && *str != chr) str++;                                     
;----------------------------------------------------------------------
        B         ||$C$L8||             ; [DPU_3_PIPE] |606| 
        ; BRANCH OCCURS {||$C$L8||}      ; [] |606| 
;* --------------------------------------------------------------------------*
||$C$L7||:    
	.dwpsn	file "../ff.c",line 606,column 31,is_stmt,isa 1
        LDR       A1, [SP, #0]          ; [DPU_3_PIPE] |606| 
        ADDS      A1, A1, #1            ; [DPU_3_PIPE] |606| 
        STR       A1, [SP, #0]          ; [DPU_3_PIPE] |606| 
;* --------------------------------------------------------------------------*
;*   BEGIN LOOP ||$C$L8||
;* --------------------------------------------------------------------------*
||$C$L8||:    
	.dwpsn	file "../ff.c",line 606,column 10,is_stmt,isa 1
        LDR       A1, [SP, #0]          ; [DPU_3_PIPE] |606| 
        LDRB      A1, [A1, #0]          ; [DPU_3_PIPE] |606| 
        CBZ       A1, ||$C$L9||         ; [] 
        ; BRANCHCC OCCURS {||$C$L9||}    ; [] |606| 
;* --------------------------------------------------------------------------*
        LDR       A2, [SP, #0]          ; [DPU_3_PIPE] |606| 
        LDR       A1, [SP, #4]          ; [DPU_3_PIPE] |606| 
        LDRB      A2, [A2, #0]          ; [DPU_3_PIPE] |606| 
        CMP       A1, A2                ; [DPU_3_PIPE] |606| 
        BNE       ||$C$L7||             ; [DPU_3_PIPE] |606| 
        ; BRANCHCC OCCURS {||$C$L7||}    ; [] |606| 
;* --------------------------------------------------------------------------*
||$C$L9||:    
	.dwpsn	file "../ff.c",line 607,column 3,is_stmt,isa 1
;----------------------------------------------------------------------
; 607 | return *str;                                                           
;----------------------------------------------------------------------
        LDR       A1, [SP, #0]          ; [DPU_3_PIPE] |607| 
        LDRB      A1, [A1, #0]          ; [DPU_3_PIPE] |607| 
	.dwpsn	file "../ff.c",line 608,column 1,is_stmt,isa 1
        ADD       SP, SP, #8            ; [DPU_3_PIPE] 
	.dwcfi	cfa_offset, 0
$C$DW$56	.dwtag  DW_TAG_TI_branch
	.dwattr $C$DW$56, DW_AT_low_pc(0x00)
	.dwattr $C$DW$56, DW_AT_TI_return

        BX        LR                    ; [DPU_3_PIPE] 
        ; BRANCH OCCURS                  ; [] 
	.dwattr $C$DW$51, DW_AT_TI_end_file("../ff.c")
	.dwattr $C$DW$51, DW_AT_TI_end_line(0x260)
	.dwattr $C$DW$51, DW_AT_TI_end_column(0x01)
	.dwendentry
	.dwendtag $C$DW$51

	.sect	".text"
	.clink
	.thumbfunc sync_window
	.thumb

$C$DW$57	.dwtag  DW_TAG_subprogram
	.dwattr $C$DW$57, DW_AT_name("sync_window")
	.dwattr $C$DW$57, DW_AT_low_pc(sync_window)
	.dwattr $C$DW$57, DW_AT_high_pc(0x00)
	.dwattr $C$DW$57, DW_AT_TI_symbol_name("sync_window")
	.dwattr $C$DW$57, DW_AT_type(*$C$DW$T$45)
	.dwattr $C$DW$57, DW_AT_TI_begin_file("../ff.c")
	.dwattr $C$DW$57, DW_AT_TI_begin_line(0x2fa)
	.dwattr $C$DW$57, DW_AT_TI_begin_column(0x09)
	.dwattr $C$DW$57, DW_AT_decl_file("../ff.c")
	.dwattr $C$DW$57, DW_AT_decl_line(0x2fa)
	.dwattr $C$DW$57, DW_AT_decl_column(0x09)
	.dwattr $C$DW$57, DW_AT_TI_max_frame_size(0x18)
	.dwpsn	file "../ff.c",line 765,column 1,is_stmt,address sync_window,isa 1

	.dwfde $C$DW$CIE, sync_window
$C$DW$58	.dwtag  DW_TAG_formal_parameter
	.dwattr $C$DW$58, DW_AT_name("fs")
	.dwattr $C$DW$58, DW_AT_TI_symbol_name("fs")
	.dwattr $C$DW$58, DW_AT_type(*$C$DW$T$25)
	.dwattr $C$DW$58, DW_AT_location[DW_OP_reg0]

;----------------------------------------------------------------------
; 762 | FRESULT sync_window (                                                  
; 763 | FATFS* fs    /* File system object */                                  
; 764 | )                                                                      
;----------------------------------------------------------------------

;*****************************************************************************
;* FUNCTION NAME: sync_window                                                *
;*                                                                           *
;*   Regs Modified     : A1,A2,A3,A4,V9,SP,LR,SR,D0,D0_hi,D1,D1_hi,D2,D2_hi, *
;*                           D3,D3_hi,D4,D4_hi,D5,D5_hi,D6,D6_hi,D7,D7_hi,   *
;*                           FPEXC,FPSCR                                     *
;*   Regs Used         : A1,A2,A3,A4,V9,SP,LR,SR,D0,D0_hi,D1,D1_hi,D2,D2_hi, *
;*                           D3,D3_hi,D4,D4_hi,D5,D5_hi,D6,D6_hi,D7,D7_hi,   *
;*                           FPEXC,FPSCR                                     *
;*   Local Frame Size  : 0 Args + 16 Auto + 4 Save = 20 byte                 *
;*****************************************************************************
sync_window:
;* --------------------------------------------------------------------------*
	.dwcfi	cfa_offset, 0
        PUSH      {LR}                  ; [DPU_3_PIPE] 
	.dwcfi	cfa_offset, 4
	.dwcfi	save_reg_to_mem, 14, -4
        SUB       SP, SP, #20           ; [DPU_3_PIPE] 
	.dwcfi	cfa_offset, 24
$C$DW$59	.dwtag  DW_TAG_variable
	.dwattr $C$DW$59, DW_AT_name("fs")
	.dwattr $C$DW$59, DW_AT_TI_symbol_name("fs")
	.dwattr $C$DW$59, DW_AT_type(*$C$DW$T$25)
	.dwattr $C$DW$59, DW_AT_location[DW_OP_breg13 0]

$C$DW$60	.dwtag  DW_TAG_variable
	.dwattr $C$DW$60, DW_AT_name("wsect")
	.dwattr $C$DW$60, DW_AT_TI_symbol_name("wsect")
	.dwattr $C$DW$60, DW_AT_type(*$C$DW$T$21)
	.dwattr $C$DW$60, DW_AT_location[DW_OP_breg13 4]

$C$DW$61	.dwtag  DW_TAG_variable
	.dwattr $C$DW$61, DW_AT_name("nf")
	.dwattr $C$DW$61, DW_AT_TI_symbol_name("nf")
	.dwattr $C$DW$61, DW_AT_type(*$C$DW$T$35)
	.dwattr $C$DW$61, DW_AT_location[DW_OP_breg13 8]

$C$DW$62	.dwtag  DW_TAG_variable
	.dwattr $C$DW$62, DW_AT_name("res")
	.dwattr $C$DW$62, DW_AT_TI_symbol_name("res")
	.dwattr $C$DW$62, DW_AT_type(*$C$DW$T$45)
	.dwattr $C$DW$62, DW_AT_location[DW_OP_breg13 12]

;----------------------------------------------------------------------
; 766 | DWORD wsect;                                                           
; 767 | UINT nf;                                                               
;----------------------------------------------------------------------
        STR       A1, [SP, #0]          ; [DPU_3_PIPE] |765| 
	.dwpsn	file "../ff.c",line 768,column 15,is_stmt,isa 1
;----------------------------------------------------------------------
; 768 | FRESULT res = FR_OK;                                                   
;----------------------------------------------------------------------
        MOVS      A1, #0                ; [DPU_3_PIPE] |768| 
        STRB      A1, [SP, #12]         ; [DPU_3_PIPE] |768| 
	.dwpsn	file "../ff.c",line 771,column 3,is_stmt,isa 1
;----------------------------------------------------------------------
; 771 | if (fs->wflag) {  /* Write back the sector if it is dirty */           
;----------------------------------------------------------------------
        LDR       A1, [SP, #0]          ; [DPU_3_PIPE] |771| 
        LDRB      A1, [A1, #4]          ; [DPU_3_PIPE] |771| 
        CMP       A1, #0                ; [DPU_3_PIPE] |771| 
        BEQ       ||$C$L12||            ; [DPU_3_PIPE] |771| 
        ; BRANCHCC OCCURS {||$C$L12||}   ; [] |771| 
;* --------------------------------------------------------------------------*
	.dwpsn	file "../ff.c",line 772,column 5,is_stmt,isa 1
;----------------------------------------------------------------------
; 772 | wsect = fs->winsect;  /* Current sector number */                      
;----------------------------------------------------------------------
        LDR       A1, [SP, #0]          ; [DPU_3_PIPE] |772| 
        LDR       A1, [A1, #48]         ; [DPU_3_PIPE] |772| 
        STR       A1, [SP, #4]          ; [DPU_3_PIPE] |772| 
	.dwpsn	file "../ff.c",line 773,column 5,is_stmt,isa 1
;----------------------------------------------------------------------
; 773 | if (disk_write(fs->drv, fs->win, wsect, 1) != RES_OK) {                
;----------------------------------------------------------------------
        LDR       A2, [SP, #0]          ; [DPU_3_PIPE] |773| 
        LDR       A1, [SP, #0]          ; [DPU_3_PIPE] |773| 
        LDR       A3, [SP, #4]          ; [DPU_3_PIPE] |773| 
        LDRB      A1, [A1, #1]          ; [DPU_3_PIPE] |773| 
        MOVS      A4, #1                ; [DPU_3_PIPE] |773| 
        ADDS      A2, A2, #52           ; [DPU_3_PIPE] |773| 
$C$DW$63	.dwtag  DW_TAG_TI_branch
	.dwattr $C$DW$63, DW_AT_low_pc(0x00)
	.dwattr $C$DW$63, DW_AT_name("disk_write")
	.dwattr $C$DW$63, DW_AT_TI_call

        BL        disk_write            ; [DPU_3_PIPE] |773| 
        ; CALL OCCURS {disk_write }      ; [] |773| 
        CBZ       A1, ||$C$L10||        ; [] 
        ; BRANCHCC OCCURS {||$C$L10||}   ; [] |773| 
;* --------------------------------------------------------------------------*
	.dwpsn	file "../ff.c",line 774,column 7,is_stmt,isa 1
;----------------------------------------------------------------------
; 774 | res = FR_DISK_ERR;                                                     
;----------------------------------------------------------------------
        MOVS      A1, #1                ; [DPU_3_PIPE] |774| 
        STRB      A1, [SP, #12]         ; [DPU_3_PIPE] |774| 
	.dwpsn	file "../ff.c",line 775,column 5,is_stmt,isa 1
;----------------------------------------------------------------------
; 775 | } else {                                                               
;----------------------------------------------------------------------
        B         ||$C$L12||            ; [DPU_3_PIPE] |775| 
        ; BRANCH OCCURS {||$C$L12||}     ; [] |775| 
;* --------------------------------------------------------------------------*
||$C$L10||:    
	.dwpsn	file "../ff.c",line 776,column 7,is_stmt,isa 1
;----------------------------------------------------------------------
; 776 | fs->wflag = 0;                                                         
;----------------------------------------------------------------------
        LDR       A1, [SP, #0]          ; [DPU_3_PIPE] |776| 
        MOVS      A2, #0                ; [DPU_3_PIPE] |776| 
        STRB      A2, [A1, #4]          ; [DPU_3_PIPE] |776| 
	.dwpsn	file "../ff.c",line 777,column 7,is_stmt,isa 1
;----------------------------------------------------------------------
; 777 | if (wsect - fs->fatbase < fs->fsize) {    /* Is it in the FAT area? */ 
;----------------------------------------------------------------------
        LDR       A3, [SP, #0]          ; [DPU_3_PIPE] |777| 
        LDR       A2, [SP, #0]          ; [DPU_3_PIPE] |777| 
        LDR       A1, [SP, #4]          ; [DPU_3_PIPE] |777| 
        LDR       A3, [A3, #36]         ; [DPU_3_PIPE] |777| 
        LDR       A2, [A2, #28]         ; [DPU_3_PIPE] |777| 
        SUBS      A1, A1, A3            ; [DPU_3_PIPE] |777| 
        CMP       A2, A1                ; [DPU_3_PIPE] |777| 
        BLS       ||$C$L12||            ; [DPU_3_PIPE] |777| 
        ; BRANCHCC OCCURS {||$C$L12||}   ; [] |777| 
;* --------------------------------------------------------------------------*
	.dwpsn	file "../ff.c",line 778,column 14,is_stmt,isa 1
;----------------------------------------------------------------------
; 778 | for (nf = fs->n_fats; nf >= 2; nf--) {  /* Reflect the change to all FA
;     | T copies */                                                            
;----------------------------------------------------------------------
        LDR       A1, [SP, #0]          ; [DPU_3_PIPE] |778| 
        LDRB      A1, [A1, #3]          ; [DPU_3_PIPE] |778| 
        STR       A1, [SP, #8]          ; [DPU_3_PIPE] |778| 
	.dwpsn	file "../ff.c",line 778,column 31,is_stmt,isa 1
        LDR       A1, [SP, #8]          ; [DPU_3_PIPE] |778| 
        CMP       A1, #2                ; [DPU_3_PIPE] |778| 
        BCC       ||$C$L12||            ; [DPU_3_PIPE] |778| 
        ; BRANCHCC OCCURS {||$C$L12||}   ; [] |778| 
;* --------------------------------------------------------------------------*
;*   BEGIN LOOP ||$C$L11||
;*
;*   Loop source line                : 778
;*   Loop closing brace source line  : 781
;*   Known Minimum Trip Count        : 1
;*   Known Maximum Trip Count        : 4294967295
;*   Known Max Trip Count Factor     : 1
;* --------------------------------------------------------------------------*
||$C$L11||:    
	.dwpsn	file "../ff.c",line 779,column 11,is_stmt,isa 1
;----------------------------------------------------------------------
; 779 | wsect += fs->fsize;                                                    
;----------------------------------------------------------------------
        LDR       A2, [SP, #0]          ; [DPU_3_PIPE] |779| 
        LDR       A1, [SP, #4]          ; [DPU_3_PIPE] |779| 
        LDR       A2, [A2, #28]         ; [DPU_3_PIPE] |779| 
        ADDS      A1, A1, A2            ; [DPU_3_PIPE] |779| 
        STR       A1, [SP, #4]          ; [DPU_3_PIPE] |779| 
	.dwpsn	file "../ff.c",line 780,column 11,is_stmt,isa 1
;----------------------------------------------------------------------
; 780 | disk_write(fs->drv, fs->win, wsect, 1);                                
;----------------------------------------------------------------------
        LDR       A1, [SP, #0]          ; [DPU_3_PIPE] |780| 
        LDR       A2, [SP, #0]          ; [DPU_3_PIPE] |780| 
        LDR       A3, [SP, #4]          ; [DPU_3_PIPE] |780| 
        LDRB      A1, [A1, #1]          ; [DPU_3_PIPE] |780| 
        MOVS      A4, #1                ; [DPU_3_PIPE] |780| 
        ADDS      A2, A2, #52           ; [DPU_3_PIPE] |780| 
$C$DW$64	.dwtag  DW_TAG_TI_branch
	.dwattr $C$DW$64, DW_AT_low_pc(0x00)
	.dwattr $C$DW$64, DW_AT_name("disk_write")
	.dwattr $C$DW$64, DW_AT_TI_call

        BL        disk_write            ; [DPU_3_PIPE] |780| 
        ; CALL OCCURS {disk_write }      ; [] |780| 
	.dwpsn	file "../ff.c",line 778,column 40,is_stmt,isa 1
        LDR       A1, [SP, #8]          ; [DPU_3_PIPE] |778| 
        SUBS      A1, A1, #1            ; [DPU_3_PIPE] |778| 
        STR       A1, [SP, #8]          ; [DPU_3_PIPE] |778| 
	.dwpsn	file "../ff.c",line 778,column 31,is_stmt,isa 1
        LDR       A1, [SP, #8]          ; [DPU_3_PIPE] |778| 
        CMP       A1, #2                ; [DPU_3_PIPE] |778| 
        BCS       ||$C$L11||            ; [DPU_3_PIPE] |778| 
        ; BRANCHCC OCCURS {||$C$L11||}   ; [] |778| 
;* --------------------------------------------------------------------------*
||$C$L12||:    
	.dwpsn	file "../ff.c",line 785,column 3,is_stmt,isa 1
;----------------------------------------------------------------------
; 785 | return res;                                                            
;----------------------------------------------------------------------
        LDRB      A1, [SP, #12]         ; [DPU_3_PIPE] |785| 
	.dwpsn	file "../ff.c",line 786,column 1,is_stmt,isa 1
        ADD       SP, SP, #20           ; [DPU_3_PIPE] 
	.dwcfi	cfa_offset, 4
$C$DW$65	.dwtag  DW_TAG_TI_branch
	.dwattr $C$DW$65, DW_AT_low_pc(0x00)
	.dwattr $C$DW$65, DW_AT_TI_return

        POP       {PC}                  ; [DPU_3_PIPE] 
	.dwcfi	cfa_offset, 0
        ; BRANCH OCCURS                  ; [] 
	.dwattr $C$DW$57, DW_AT_TI_end_file("../ff.c")
	.dwattr $C$DW$57, DW_AT_TI_end_line(0x312)
	.dwattr $C$DW$57, DW_AT_TI_end_column(0x01)
	.dwendentry
	.dwendtag $C$DW$57

	.sect	".text"
	.clink
	.thumbfunc move_window
	.thumb

$C$DW$66	.dwtag  DW_TAG_subprogram
	.dwattr $C$DW$66, DW_AT_name("move_window")
	.dwattr $C$DW$66, DW_AT_low_pc(move_window)
	.dwattr $C$DW$66, DW_AT_high_pc(0x00)
	.dwattr $C$DW$66, DW_AT_TI_symbol_name("move_window")
	.dwattr $C$DW$66, DW_AT_type(*$C$DW$T$45)
	.dwattr $C$DW$66, DW_AT_TI_begin_file("../ff.c")
	.dwattr $C$DW$66, DW_AT_TI_begin_line(0x317)
	.dwattr $C$DW$66, DW_AT_TI_begin_column(0x09)
	.dwattr $C$DW$66, DW_AT_decl_file("../ff.c")
	.dwattr $C$DW$66, DW_AT_decl_line(0x317)
	.dwattr $C$DW$66, DW_AT_decl_column(0x09)
	.dwattr $C$DW$66, DW_AT_TI_max_frame_size(0x10)
	.dwpsn	file "../ff.c",line 795,column 1,is_stmt,address move_window,isa 1

	.dwfde $C$DW$CIE, move_window
$C$DW$67	.dwtag  DW_TAG_formal_parameter
	.dwattr $C$DW$67, DW_AT_name("fs")
	.dwattr $C$DW$67, DW_AT_TI_symbol_name("fs")
	.dwattr $C$DW$67, DW_AT_type(*$C$DW$T$25)
	.dwattr $C$DW$67, DW_AT_location[DW_OP_reg0]

$C$DW$68	.dwtag  DW_TAG_formal_parameter
	.dwattr $C$DW$68, DW_AT_name("sector")
	.dwattr $C$DW$68, DW_AT_TI_symbol_name("sector")
	.dwattr $C$DW$68, DW_AT_type(*$C$DW$T$21)
	.dwattr $C$DW$68, DW_AT_location[DW_OP_reg1]

;----------------------------------------------------------------------
; 791 | FRESULT move_window (                                                  
; 792 | FATFS* fs,    /* File system object */                                 
; 793 | DWORD sector  /* Sector number to make appearance in the fs->win[] */  
; 794 | )                                                                      
;----------------------------------------------------------------------

;*****************************************************************************
;* FUNCTION NAME: move_window                                                *
;*                                                                           *
;*   Regs Modified     : A1,A2,A3,A4,V9,SP,LR,SR,D0,D0_hi,D1,D1_hi,D2,D2_hi, *
;*                           D3,D3_hi,D4,D4_hi,D5,D5_hi,D6,D6_hi,D7,D7_hi,   *
;*                           FPEXC,FPSCR                                     *
;*   Regs Used         : A1,A2,A3,A4,V9,SP,LR,SR,D0,D0_hi,D1,D1_hi,D2,D2_hi, *
;*                           D3,D3_hi,D4,D4_hi,D5,D5_hi,D6,D6_hi,D7,D7_hi,   *
;*                           FPEXC,FPSCR                                     *
;*   Local Frame Size  : 0 Args + 12 Auto + 4 Save = 16 byte                 *
;*****************************************************************************
move_window:
;* --------------------------------------------------------------------------*
	.dwcfi	cfa_offset, 0
        PUSH      {A2, A3, A4, LR}      ; [DPU_3_PIPE] 
	.dwcfi	cfa_offset, 16
	.dwcfi	save_reg_to_mem, 14, -4
	.dwcfi	save_reg_to_mem, 3, -8
	.dwcfi	save_reg_to_mem, 2, -12
	.dwcfi	save_reg_to_mem, 1, -16
$C$DW$69	.dwtag  DW_TAG_variable
	.dwattr $C$DW$69, DW_AT_name("fs")
	.dwattr $C$DW$69, DW_AT_TI_symbol_name("fs")
	.dwattr $C$DW$69, DW_AT_type(*$C$DW$T$25)
	.dwattr $C$DW$69, DW_AT_location[DW_OP_breg13 0]

$C$DW$70	.dwtag  DW_TAG_variable
	.dwattr $C$DW$70, DW_AT_name("sector")
	.dwattr $C$DW$70, DW_AT_TI_symbol_name("sector")
	.dwattr $C$DW$70, DW_AT_type(*$C$DW$T$21)
	.dwattr $C$DW$70, DW_AT_location[DW_OP_breg13 4]

$C$DW$71	.dwtag  DW_TAG_variable
	.dwattr $C$DW$71, DW_AT_name("res")
	.dwattr $C$DW$71, DW_AT_TI_symbol_name("res")
	.dwattr $C$DW$71, DW_AT_type(*$C$DW$T$45)
	.dwattr $C$DW$71, DW_AT_location[DW_OP_breg13 8]

        STR       A2, [SP, #4]          ; [DPU_3_PIPE] |795| 
        STR       A1, [SP, #0]          ; [DPU_3_PIPE] |795| 
	.dwpsn	file "../ff.c",line 796,column 15,is_stmt,isa 1
;----------------------------------------------------------------------
; 796 | FRESULT res = FR_OK;                                                   
;----------------------------------------------------------------------
        MOVS      A1, #0                ; [DPU_3_PIPE] |796| 
        STRB      A1, [SP, #8]          ; [DPU_3_PIPE] |796| 
	.dwpsn	file "../ff.c",line 799,column 3,is_stmt,isa 1
;----------------------------------------------------------------------
; 799 | if (sector != fs->winsect) {  /* Window offset changed? */             
; 800 | #if !_FS_READONLY                                                      
;----------------------------------------------------------------------
        LDR       A1, [SP, #0]          ; [DPU_3_PIPE] |799| 
        LDR       A2, [SP, #4]          ; [DPU_3_PIPE] |799| 
        LDR       A1, [A1, #48]         ; [DPU_3_PIPE] |799| 
        CMP       A1, A2                ; [DPU_3_PIPE] |799| 
        BEQ       ||$C$L14||            ; [DPU_3_PIPE] |799| 
        ; BRANCHCC OCCURS {||$C$L14||}   ; [] |799| 
;* --------------------------------------------------------------------------*
	.dwpsn	file "../ff.c",line 801,column 5,is_stmt,isa 1
;----------------------------------------------------------------------
; 801 | res = sync_window(fs);    /* Write-back changes */                     
; 802 | #endif                                                                 
;----------------------------------------------------------------------
        LDR       A1, [SP, #0]          ; [DPU_3_PIPE] |801| 
$C$DW$72	.dwtag  DW_TAG_TI_branch
	.dwattr $C$DW$72, DW_AT_low_pc(0x00)
	.dwattr $C$DW$72, DW_AT_name("sync_window")
	.dwattr $C$DW$72, DW_AT_TI_call

        BL        sync_window           ; [DPU_3_PIPE] |801| 
        ; CALL OCCURS {sync_window }     ; [] |801| 
        STRB      A1, [SP, #8]          ; [DPU_3_PIPE] |801| 
	.dwpsn	file "../ff.c",line 803,column 5,is_stmt,isa 1
;----------------------------------------------------------------------
; 803 | if (res == FR_OK) {      /* Fill sector window with new data */        
;----------------------------------------------------------------------
        LDRB      A1, [SP, #8]          ; [DPU_3_PIPE] |803| 
        CBNZ      A1, ||$C$L14||        ; [] 
        ; BRANCHCC OCCURS {||$C$L14||}   ; [] |803| 
;* --------------------------------------------------------------------------*
	.dwpsn	file "../ff.c",line 804,column 7,is_stmt,isa 1
;----------------------------------------------------------------------
; 804 | if (disk_read(fs->drv, fs->win, sector, 1) != RES_OK) {                
;----------------------------------------------------------------------
        LDR       A1, [SP, #0]          ; [DPU_3_PIPE] |804| 
        LDR       A2, [SP, #0]          ; [DPU_3_PIPE] |804| 
        LDR       A3, [SP, #4]          ; [DPU_3_PIPE] |804| 
        LDRB      A1, [A1, #1]          ; [DPU_3_PIPE] |804| 
        MOVS      A4, #1                ; [DPU_3_PIPE] |804| 
        ADDS      A2, A2, #52           ; [DPU_3_PIPE] |804| 
$C$DW$73	.dwtag  DW_TAG_TI_branch
	.dwattr $C$DW$73, DW_AT_low_pc(0x00)
	.dwattr $C$DW$73, DW_AT_name("disk_read")
	.dwattr $C$DW$73, DW_AT_TI_call

        BL        disk_read             ; [DPU_3_PIPE] |804| 
        ; CALL OCCURS {disk_read }       ; [] |804| 
        CBZ       A1, ||$C$L13||        ; [] 
        ; BRANCHCC OCCURS {||$C$L13||}   ; [] |804| 
;* --------------------------------------------------------------------------*
	.dwpsn	file "../ff.c",line 805,column 9,is_stmt,isa 1
;----------------------------------------------------------------------
; 805 | sector = 0xFFFFFFFF;  /* Invalidate window if data is not reliable */  
;----------------------------------------------------------------------
        MOV       A1, #-1               ; [DPU_3_PIPE] |805| 
        STR       A1, [SP, #4]          ; [DPU_3_PIPE] |805| 
	.dwpsn	file "../ff.c",line 806,column 9,is_stmt,isa 1
;----------------------------------------------------------------------
; 806 | res = FR_DISK_ERR;                                                     
;----------------------------------------------------------------------
        MOVS      A1, #1                ; [DPU_3_PIPE] |806| 
        STRB      A1, [SP, #8]          ; [DPU_3_PIPE] |806| 
;* --------------------------------------------------------------------------*
||$C$L13||:    
	.dwpsn	file "../ff.c",line 808,column 7,is_stmt,isa 1
;----------------------------------------------------------------------
; 808 | fs->winsect = sector;                                                  
;----------------------------------------------------------------------
        LDR       A1, [SP, #4]          ; [DPU_3_PIPE] |808| 
        LDR       A2, [SP, #0]          ; [DPU_3_PIPE] |808| 
        STR       A1, [A2, #48]         ; [DPU_3_PIPE] |808| 
;* --------------------------------------------------------------------------*
||$C$L14||:    
	.dwpsn	file "../ff.c",line 811,column 3,is_stmt,isa 1
;----------------------------------------------------------------------
; 811 | return res;                                                            
;----------------------------------------------------------------------
        LDRB      A1, [SP, #8]          ; [DPU_3_PIPE] |811| 
	.dwpsn	file "../ff.c",line 812,column 1,is_stmt,isa 1
$C$DW$74	.dwtag  DW_TAG_TI_branch
	.dwattr $C$DW$74, DW_AT_low_pc(0x00)
	.dwattr $C$DW$74, DW_AT_TI_return

        POP       {A2, A3, A4, PC}      ; [DPU_3_PIPE] 
	.dwcfi	cfa_offset, 0
	.dwcfi	restore_reg, 3
	.dwcfi	restore_reg, 2
	.dwcfi	restore_reg, 1
        ; BRANCH OCCURS                  ; [] 
	.dwattr $C$DW$66, DW_AT_TI_end_file("../ff.c")
	.dwattr $C$DW$66, DW_AT_TI_end_line(0x32c)
	.dwattr $C$DW$66, DW_AT_TI_end_column(0x01)
	.dwendentry
	.dwendtag $C$DW$66

	.sect	".text"
	.clink
	.thumbfunc sync_fs
	.thumb

$C$DW$75	.dwtag  DW_TAG_subprogram
	.dwattr $C$DW$75, DW_AT_name("sync_fs")
	.dwattr $C$DW$75, DW_AT_low_pc(sync_fs)
	.dwattr $C$DW$75, DW_AT_high_pc(0x00)
	.dwattr $C$DW$75, DW_AT_TI_symbol_name("sync_fs")
	.dwattr $C$DW$75, DW_AT_type(*$C$DW$T$45)
	.dwattr $C$DW$75, DW_AT_TI_begin_file("../ff.c")
	.dwattr $C$DW$75, DW_AT_TI_begin_line(0x336)
	.dwattr $C$DW$75, DW_AT_TI_begin_column(0x09)
	.dwattr $C$DW$75, DW_AT_decl_file("../ff.c")
	.dwattr $C$DW$75, DW_AT_decl_line(0x336)
	.dwattr $C$DW$75, DW_AT_decl_column(0x09)
	.dwattr $C$DW$75, DW_AT_TI_max_frame_size(0x10)
	.dwpsn	file "../ff.c",line 825,column 1,is_stmt,address sync_fs,isa 1

	.dwfde $C$DW$CIE, sync_fs
$C$DW$76	.dwtag  DW_TAG_formal_parameter
	.dwattr $C$DW$76, DW_AT_name("fs")
	.dwattr $C$DW$76, DW_AT_TI_symbol_name("fs")
	.dwattr $C$DW$76, DW_AT_type(*$C$DW$T$25)
	.dwattr $C$DW$76, DW_AT_location[DW_OP_reg0]

;----------------------------------------------------------------------
; 822 | FRESULT sync_fs (  /* FR_OK: successful, FR_DISK_ERR: failed */        
; 823 | FATFS* fs    /* File system object */                                  
; 824 | )                                                                      
;----------------------------------------------------------------------

;*****************************************************************************
;* FUNCTION NAME: sync_fs                                                    *
;*                                                                           *
;*   Regs Modified     : A1,A2,A3,A4,V9,SP,LR,SR,D0,D0_hi,D1,D1_hi,D2,D2_hi, *
;*                           D3,D3_hi,D4,D4_hi,D5,D5_hi,D6,D6_hi,D7,D7_hi,   *
;*                           FPEXC,FPSCR                                     *
;*   Regs Used         : A1,A2,A3,A4,V9,SP,LR,SR,D0,D0_hi,D1,D1_hi,D2,D2_hi, *
;*                           D3,D3_hi,D4,D4_hi,D5,D5_hi,D6,D6_hi,D7,D7_hi,   *
;*                           FPEXC,FPSCR                                     *
;*   Local Frame Size  : 0 Args + 8 Auto + 4 Save = 12 byte                  *
;*****************************************************************************
sync_fs:
;* --------------------------------------------------------------------------*
	.dwcfi	cfa_offset, 0
        PUSH      {A2, A3, A4, LR}      ; [DPU_3_PIPE] 
	.dwcfi	cfa_offset, 16
	.dwcfi	save_reg_to_mem, 14, -4
	.dwcfi	save_reg_to_mem, 3, -8
	.dwcfi	save_reg_to_mem, 2, -12
	.dwcfi	save_reg_to_mem, 1, -16
$C$DW$77	.dwtag  DW_TAG_variable
	.dwattr $C$DW$77, DW_AT_name("fs")
	.dwattr $C$DW$77, DW_AT_TI_symbol_name("fs")
	.dwattr $C$DW$77, DW_AT_type(*$C$DW$T$25)
	.dwattr $C$DW$77, DW_AT_location[DW_OP_breg13 0]

$C$DW$78	.dwtag  DW_TAG_variable
	.dwattr $C$DW$78, DW_AT_name("res")
	.dwattr $C$DW$78, DW_AT_TI_symbol_name("res")
	.dwattr $C$DW$78, DW_AT_type(*$C$DW$T$45)
	.dwattr $C$DW$78, DW_AT_location[DW_OP_breg13 4]

;----------------------------------------------------------------------
; 826 | FRESULT res;                                                           
;----------------------------------------------------------------------
        STR       A1, [SP, #0]          ; [DPU_3_PIPE] |825| 
	.dwpsn	file "../ff.c",line 829,column 3,is_stmt,isa 1
;----------------------------------------------------------------------
; 829 | res = sync_window(fs);                                                 
;----------------------------------------------------------------------
        LDR       A1, [SP, #0]          ; [DPU_3_PIPE] |829| 
$C$DW$79	.dwtag  DW_TAG_TI_branch
	.dwattr $C$DW$79, DW_AT_low_pc(0x00)
	.dwattr $C$DW$79, DW_AT_name("sync_window")
	.dwattr $C$DW$79, DW_AT_TI_call

        BL        sync_window           ; [DPU_3_PIPE] |829| 
        ; CALL OCCURS {sync_window }     ; [] |829| 
        STRB      A1, [SP, #4]          ; [DPU_3_PIPE] |829| 
	.dwpsn	file "../ff.c",line 830,column 3,is_stmt,isa 1
;----------------------------------------------------------------------
; 830 | if (res == FR_OK) {                                                    
;----------------------------------------------------------------------
        LDRB      A1, [SP, #4]          ; [DPU_3_PIPE] |830| 
        CMP       A1, #0                ; [DPU_3_PIPE] |830| 
        BNE       ||$C$L16||            ; [DPU_3_PIPE] |830| 
        ; BRANCHCC OCCURS {||$C$L16||}   ; [] |830| 
;* --------------------------------------------------------------------------*
	.dwpsn	file "../ff.c",line 832,column 5,is_stmt,isa 1
;----------------------------------------------------------------------
; 832 | if (fs->fs_type == FS_FAT32 && fs->fsi_flag == 1) {                    
;----------------------------------------------------------------------
        LDR       A1, [SP, #0]          ; [DPU_3_PIPE] |832| 
        LDRB      A1, [A1, #0]          ; [DPU_3_PIPE] |832| 
        CMP       A1, #3                ; [DPU_3_PIPE] |832| 
        BNE       ||$C$L15||            ; [DPU_3_PIPE] |832| 
        ; BRANCHCC OCCURS {||$C$L15||}   ; [] |832| 
;* --------------------------------------------------------------------------*
        LDR       A1, [SP, #0]          ; [DPU_3_PIPE] |832| 
        LDRB      A1, [A1, #5]          ; [DPU_3_PIPE] |832| 
        CMP       A1, #1                ; [DPU_3_PIPE] |832| 
        BNE       ||$C$L15||            ; [DPU_3_PIPE] |832| 
        ; BRANCHCC OCCURS {||$C$L15||}   ; [] |832| 
;* --------------------------------------------------------------------------*
	.dwpsn	file "../ff.c",line 834,column 7,is_stmt,isa 1
;----------------------------------------------------------------------
; 834 | mem_set(fs->win, 0, SS(fs));                                           
;----------------------------------------------------------------------
        LDR       A1, [SP, #0]          ; [DPU_3_PIPE] |834| 
        MOVS      A2, #0                ; [DPU_3_PIPE] |834| 
        MOV       A3, #512              ; [DPU_3_PIPE] |834| 
        ADDS      A1, A1, #52           ; [DPU_3_PIPE] |834| 
$C$DW$80	.dwtag  DW_TAG_TI_branch
	.dwattr $C$DW$80, DW_AT_low_pc(0x00)
	.dwattr $C$DW$80, DW_AT_name("mem_set")
	.dwattr $C$DW$80, DW_AT_TI_call

        BL        mem_set               ; [DPU_3_PIPE] |834| 
        ; CALL OCCURS {mem_set }         ; [] |834| 
	.dwpsn	file "../ff.c",line 835,column 7,is_stmt,isa 1
;----------------------------------------------------------------------
; 835 | ST_WORD(fs->win+BS_55AA, 0xAA55);                                      
;----------------------------------------------------------------------
        LDR       A2, [SP, #0]          ; [DPU_3_PIPE] |835| 
        MOVS      A1, #85               ; [DPU_3_PIPE] |835| 
        STRB      A1, [A2, #562]        ; [DPU_3_PIPE] |835| 
        LDR       A2, [SP, #0]          ; [DPU_3_PIPE] |835| 
        MOVS      A1, #170              ; [DPU_3_PIPE] |835| 
        STRB      A1, [A2, #563]        ; [DPU_3_PIPE] |835| 
	.dwpsn	file "../ff.c",line 836,column 7,is_stmt,isa 1
;----------------------------------------------------------------------
; 836 | ST_DWORD(fs->win+FSI_LeadSig, 0x41615252);                             
;----------------------------------------------------------------------
        LDR       A2, [SP, #0]          ; [DPU_3_PIPE] |836| 
        MOVS      A1, #82               ; [DPU_3_PIPE] |836| 
        STRB      A1, [A2, #52]         ; [DPU_3_PIPE] |836| 
        LDR       A2, [SP, #0]          ; [DPU_3_PIPE] |836| 
        MOVS      A1, #82               ; [DPU_3_PIPE] |836| 
        STRB      A1, [A2, #53]         ; [DPU_3_PIPE] |836| 
        LDR       A2, [SP, #0]          ; [DPU_3_PIPE] |836| 
        MOVS      A1, #97               ; [DPU_3_PIPE] |836| 
        STRB      A1, [A2, #54]         ; [DPU_3_PIPE] |836| 
        LDR       A2, [SP, #0]          ; [DPU_3_PIPE] |836| 
        MOVS      A1, #65               ; [DPU_3_PIPE] |836| 
        STRB      A1, [A2, #55]         ; [DPU_3_PIPE] |836| 
	.dwpsn	file "../ff.c",line 837,column 7,is_stmt,isa 1
;----------------------------------------------------------------------
; 837 | ST_DWORD(fs->win+FSI_StrucSig, 0x61417272);                            
;----------------------------------------------------------------------
        LDR       A2, [SP, #0]          ; [DPU_3_PIPE] |837| 
        MOVS      A1, #114              ; [DPU_3_PIPE] |837| 
        STRB      A1, [A2, #536]        ; [DPU_3_PIPE] |837| 
        LDR       A2, [SP, #0]          ; [DPU_3_PIPE] |837| 
        MOVS      A1, #114              ; [DPU_3_PIPE] |837| 
        STRB      A1, [A2, #537]        ; [DPU_3_PIPE] |837| 
        LDR       A2, [SP, #0]          ; [DPU_3_PIPE] |837| 
        MOVS      A1, #65               ; [DPU_3_PIPE] |837| 
        STRB      A1, [A2, #538]        ; [DPU_3_PIPE] |837| 
        LDR       A2, [SP, #0]          ; [DPU_3_PIPE] |837| 
        MOVS      A1, #97               ; [DPU_3_PIPE] |837| 
        STRB      A1, [A2, #539]        ; [DPU_3_PIPE] |837| 
	.dwpsn	file "../ff.c",line 838,column 7,is_stmt,isa 1
;----------------------------------------------------------------------
; 838 | ST_DWORD(fs->win+FSI_Free_Count, fs->free_clust);                      
;----------------------------------------------------------------------
        LDR       A1, [SP, #0]          ; [DPU_3_PIPE] |838| 
        LDR       A2, [SP, #0]          ; [DPU_3_PIPE] |838| 
        LDRB      A1, [A1, #16]         ; [DPU_3_PIPE] |838| 
        STRB      A1, [A2, #540]        ; [DPU_3_PIPE] |838| 
        LDR       A1, [SP, #0]          ; [DPU_3_PIPE] |838| 
        LDR       A2, [SP, #0]          ; [DPU_3_PIPE] |838| 
        LDRH      A1, [A1, #16]         ; [DPU_3_PIPE] |838| 
        ASRS      A1, A1, #8            ; [DPU_3_PIPE] |838| 
        STRB      A1, [A2, #541]        ; [DPU_3_PIPE] |838| 
        LDR       A1, [SP, #0]          ; [DPU_3_PIPE] |838| 
        LDR       A2, [SP, #0]          ; [DPU_3_PIPE] |838| 
        LDRB      A1, [A1, #18]         ; [DPU_3_PIPE] |838| 
        STRB      A1, [A2, #542]        ; [DPU_3_PIPE] |838| 
        LDR       A1, [SP, #0]          ; [DPU_3_PIPE] |838| 
        LDR       A2, [SP, #0]          ; [DPU_3_PIPE] |838| 
        LDRB      A1, [A1, #19]         ; [DPU_3_PIPE] |838| 
        STRB      A1, [A2, #543]        ; [DPU_3_PIPE] |838| 
	.dwpsn	file "../ff.c",line 839,column 7,is_stmt,isa 1
;----------------------------------------------------------------------
; 839 | ST_DWORD(fs->win+FSI_Nxt_Free, fs->last_clust);                        
;----------------------------------------------------------------------
        LDR       A1, [SP, #0]          ; [DPU_3_PIPE] |839| 
        LDR       A2, [SP, #0]          ; [DPU_3_PIPE] |839| 
        LDRB      A1, [A1, #12]         ; [DPU_3_PIPE] |839| 
        STRB      A1, [A2, #544]        ; [DPU_3_PIPE] |839| 
        LDR       A1, [SP, #0]          ; [DPU_3_PIPE] |839| 
        LDR       A2, [SP, #0]          ; [DPU_3_PIPE] |839| 
        LDRH      A1, [A1, #12]         ; [DPU_3_PIPE] |839| 
        ASRS      A1, A1, #8            ; [DPU_3_PIPE] |839| 
        STRB      A1, [A2, #545]        ; [DPU_3_PIPE] |839| 
        LDR       A1, [SP, #0]          ; [DPU_3_PIPE] |839| 
        LDR       A2, [SP, #0]          ; [DPU_3_PIPE] |839| 
        LDRB      A1, [A1, #14]         ; [DPU_3_PIPE] |839| 
        STRB      A1, [A2, #546]        ; [DPU_3_PIPE] |839| 
        LDR       A1, [SP, #0]          ; [DPU_3_PIPE] |839| 
        LDR       A2, [SP, #0]          ; [DPU_3_PIPE] |839| 
        LDRB      A1, [A1, #15]         ; [DPU_3_PIPE] |839| 
        STRB      A1, [A2, #547]        ; [DPU_3_PIPE] |839| 
	.dwpsn	file "../ff.c",line 841,column 7,is_stmt,isa 1
;----------------------------------------------------------------------
; 841 | fs->winsect = fs->volbase + 1;                                         
;----------------------------------------------------------------------
        LDR       A1, [SP, #0]          ; [DPU_3_PIPE] |841| 
        LDR       A2, [SP, #0]          ; [DPU_3_PIPE] |841| 
        LDR       A1, [A1, #32]         ; [DPU_3_PIPE] |841| 
        ADDS      A1, A1, #1            ; [DPU_3_PIPE] |841| 
        STR       A1, [A2, #48]         ; [DPU_3_PIPE] |841| 
	.dwpsn	file "../ff.c",line 842,column 7,is_stmt,isa 1
;----------------------------------------------------------------------
; 842 | disk_write(fs->drv, fs->win, fs->winsect, 1);                          
;----------------------------------------------------------------------
        LDR       A1, [SP, #0]          ; [DPU_3_PIPE] |842| 
        LDR       A3, [SP, #0]          ; [DPU_3_PIPE] |842| 
        LDR       A2, [SP, #0]          ; [DPU_3_PIPE] |842| 
        LDRB      A1, [A1, #1]          ; [DPU_3_PIPE] |842| 
        LDR       A3, [A3, #48]         ; [DPU_3_PIPE] |842| 
        MOVS      A4, #1                ; [DPU_3_PIPE] |842| 
        ADDS      A2, A2, #52           ; [DPU_3_PIPE] |842| 
$C$DW$81	.dwtag  DW_TAG_TI_branch
	.dwattr $C$DW$81, DW_AT_low_pc(0x00)
	.dwattr $C$DW$81, DW_AT_name("disk_write")
	.dwattr $C$DW$81, DW_AT_TI_call

        BL        disk_write            ; [DPU_3_PIPE] |842| 
        ; CALL OCCURS {disk_write }      ; [] |842| 
	.dwpsn	file "../ff.c",line 843,column 7,is_stmt,isa 1
;----------------------------------------------------------------------
; 843 | fs->fsi_flag = 0;                                                      
;----------------------------------------------------------------------
        LDR       A1, [SP, #0]          ; [DPU_3_PIPE] |843| 
        MOVS      A2, #0                ; [DPU_3_PIPE] |843| 
        STRB      A2, [A1, #5]          ; [DPU_3_PIPE] |843| 
;* --------------------------------------------------------------------------*
||$C$L15||:    
	.dwpsn	file "../ff.c",line 846,column 5,is_stmt,isa 1
;----------------------------------------------------------------------
; 846 | if (disk_ioctl(fs->drv, CTRL_SYNC, 0) != RES_OK)                       
;----------------------------------------------------------------------
        LDR       A1, [SP, #0]          ; [DPU_3_PIPE] |846| 
        LDRB      A1, [A1, #1]          ; [DPU_3_PIPE] |846| 
        MOVS      A2, #0                ; [DPU_3_PIPE] |846| 
        MOVS      A3, #0                ; [DPU_3_PIPE] |846| 
$C$DW$82	.dwtag  DW_TAG_TI_branch
	.dwattr $C$DW$82, DW_AT_low_pc(0x00)
	.dwattr $C$DW$82, DW_AT_name("disk_ioctl")
	.dwattr $C$DW$82, DW_AT_TI_call

        BL        disk_ioctl            ; [DPU_3_PIPE] |846| 
        ; CALL OCCURS {disk_ioctl }      ; [] |846| 
        CBZ       A1, ||$C$L16||        ; [] 
        ; BRANCHCC OCCURS {||$C$L16||}   ; [] |846| 
;* --------------------------------------------------------------------------*
	.dwpsn	file "../ff.c",line 847,column 7,is_stmt,isa 1
;----------------------------------------------------------------------
; 847 | res = FR_DISK_ERR;                                                     
;----------------------------------------------------------------------
        MOVS      A1, #1                ; [DPU_3_PIPE] |847| 
        STRB      A1, [SP, #4]          ; [DPU_3_PIPE] |847| 
;* --------------------------------------------------------------------------*
||$C$L16||:    
	.dwpsn	file "../ff.c",line 850,column 3,is_stmt,isa 1
;----------------------------------------------------------------------
; 850 | return res;                                                            
;----------------------------------------------------------------------
        LDRB      A1, [SP, #4]          ; [DPU_3_PIPE] |850| 
	.dwpsn	file "../ff.c",line 851,column 1,is_stmt,isa 1
$C$DW$83	.dwtag  DW_TAG_TI_branch
	.dwattr $C$DW$83, DW_AT_low_pc(0x00)
	.dwattr $C$DW$83, DW_AT_TI_return

        POP       {A2, A3, A4, PC}      ; [DPU_3_PIPE] 
	.dwcfi	cfa_offset, 0
	.dwcfi	restore_reg, 3
	.dwcfi	restore_reg, 2
	.dwcfi	restore_reg, 1
        ; BRANCH OCCURS                  ; [] 
	.dwattr $C$DW$75, DW_AT_TI_end_file("../ff.c")
	.dwattr $C$DW$75, DW_AT_TI_end_line(0x353)
	.dwattr $C$DW$75, DW_AT_TI_end_column(0x01)
	.dwendentry
	.dwendtag $C$DW$75

	.sect	".text"
	.clink
	.thumbfunc clust2sect
	.thumb
	.global	clust2sect

$C$DW$84	.dwtag  DW_TAG_subprogram
	.dwattr $C$DW$84, DW_AT_name("clust2sect")
	.dwattr $C$DW$84, DW_AT_low_pc(clust2sect)
	.dwattr $C$DW$84, DW_AT_high_pc(0x00)
	.dwattr $C$DW$84, DW_AT_TI_symbol_name("clust2sect")
	.dwattr $C$DW$84, DW_AT_external
	.dwattr $C$DW$84, DW_AT_type(*$C$DW$T$21)
	.dwattr $C$DW$84, DW_AT_TI_begin_file("../ff.c")
	.dwattr $C$DW$84, DW_AT_TI_begin_line(0x35e)
	.dwattr $C$DW$84, DW_AT_TI_begin_column(0x07)
	.dwattr $C$DW$84, DW_AT_decl_file("../ff.c")
	.dwattr $C$DW$84, DW_AT_decl_line(0x35e)
	.dwattr $C$DW$84, DW_AT_decl_column(0x07)
	.dwattr $C$DW$84, DW_AT_TI_max_frame_size(0x08)
	.dwpsn	file "../ff.c",line 866,column 1,is_stmt,address clust2sect,isa 1

	.dwfde $C$DW$CIE, clust2sect
$C$DW$85	.dwtag  DW_TAG_formal_parameter
	.dwattr $C$DW$85, DW_AT_name("fs")
	.dwattr $C$DW$85, DW_AT_TI_symbol_name("fs")
	.dwattr $C$DW$85, DW_AT_type(*$C$DW$T$25)
	.dwattr $C$DW$85, DW_AT_location[DW_OP_reg0]

$C$DW$86	.dwtag  DW_TAG_formal_parameter
	.dwattr $C$DW$86, DW_AT_name("clst")
	.dwattr $C$DW$86, DW_AT_TI_symbol_name("clst")
	.dwattr $C$DW$86, DW_AT_type(*$C$DW$T$21)
	.dwattr $C$DW$86, DW_AT_location[DW_OP_reg1]

;----------------------------------------------------------------------
; 862 | DWORD clust2sect (  /* !=0: Sector number, 0: Failed - invalid cluster#
;     |  */                                                                    
; 863 | FATFS* fs,    /* File system object */                                 
; 864 | DWORD clst    /* Cluster# to be converted */                           
; 865 | )                                                                      
;----------------------------------------------------------------------

;*****************************************************************************
;* FUNCTION NAME: clust2sect                                                 *
;*                                                                           *
;*   Regs Modified     : A1,A2,A3,SP,SR                                      *
;*   Regs Used         : A1,A2,A3,SP,LR,SR                                   *
;*   Local Frame Size  : 0 Args + 8 Auto + 0 Save = 8 byte                   *
;*****************************************************************************
clust2sect:
;* --------------------------------------------------------------------------*
	.dwcfi	cfa_offset, 0
        SUB       SP, SP, #8            ; [DPU_3_PIPE] 
	.dwcfi	cfa_offset, 8
$C$DW$87	.dwtag  DW_TAG_variable
	.dwattr $C$DW$87, DW_AT_name("fs")
	.dwattr $C$DW$87, DW_AT_TI_symbol_name("fs")
	.dwattr $C$DW$87, DW_AT_type(*$C$DW$T$25)
	.dwattr $C$DW$87, DW_AT_location[DW_OP_breg13 0]

$C$DW$88	.dwtag  DW_TAG_variable
	.dwattr $C$DW$88, DW_AT_name("clst")
	.dwattr $C$DW$88, DW_AT_TI_symbol_name("clst")
	.dwattr $C$DW$88, DW_AT_type(*$C$DW$T$21)
	.dwattr $C$DW$88, DW_AT_location[DW_OP_breg13 4]

        STR       A2, [SP, #4]          ; [DPU_3_PIPE] |866| 
        STR       A1, [SP, #0]          ; [DPU_3_PIPE] |866| 
	.dwpsn	file "../ff.c",line 867,column 3,is_stmt,isa 1
;----------------------------------------------------------------------
; 867 | clst -= 2;                                                             
;----------------------------------------------------------------------
        LDR       A1, [SP, #4]          ; [DPU_3_PIPE] |867| 
        SUBS      A1, A1, #2            ; [DPU_3_PIPE] |867| 
        STR       A1, [SP, #4]          ; [DPU_3_PIPE] |867| 
	.dwpsn	file "../ff.c",line 868,column 3,is_stmt,isa 1
;----------------------------------------------------------------------
; 868 | if (clst >= fs->n_fatent - 2) return 0;    /* Invalid cluster# */      
;----------------------------------------------------------------------
        LDR       A1, [SP, #0]          ; [DPU_3_PIPE] |868| 
        LDR       A2, [SP, #4]          ; [DPU_3_PIPE] |868| 
        LDR       A1, [A1, #24]         ; [DPU_3_PIPE] |868| 
        SUBS      A1, A1, #2            ; [DPU_3_PIPE] |868| 
        CMP       A1, A2                ; [DPU_3_PIPE] |868| 
        BHI       ||$C$L17||            ; [DPU_3_PIPE] |868| 
        ; BRANCHCC OCCURS {||$C$L17||}   ; [] |868| 
;* --------------------------------------------------------------------------*
	.dwpsn	file "../ff.c",line 868,column 33,is_stmt,isa 1
        MOVS      A1, #0                ; [DPU_3_PIPE] |868| 
        B         ||$C$L18||            ; [DPU_3_PIPE] |868| 
        ; BRANCH OCCURS {||$C$L18||}     ; [] |868| 
;* --------------------------------------------------------------------------*
||$C$L17||:    
	.dwpsn	file "../ff.c",line 869,column 3,is_stmt,isa 1
;----------------------------------------------------------------------
; 869 | return clst * fs->csize + fs->database;                                
;----------------------------------------------------------------------
        LDR       A2, [SP, #0]          ; [DPU_3_PIPE] |869| 
        LDR       A1, [SP, #0]          ; [DPU_3_PIPE] |869| 
        LDR       A3, [SP, #4]          ; [DPU_3_PIPE] |869| 
        LDRB      A2, [A2, #2]          ; [DPU_3_PIPE] |869| 
        LDR       A1, [A1, #44]         ; [DPU_3_PIPE] |869| 
        MLA       A1, A2, A3, A1        ; [DPU_3_PIPE] |869| 
;* --------------------------------------------------------------------------*
||$C$L18||:    
	.dwpsn	file "../ff.c",line 870,column 1,is_stmt,isa 1
        ADD       SP, SP, #8            ; [DPU_3_PIPE] 
	.dwcfi	cfa_offset, 0
$C$DW$89	.dwtag  DW_TAG_TI_branch
	.dwattr $C$DW$89, DW_AT_low_pc(0x00)
	.dwattr $C$DW$89, DW_AT_TI_return

        BX        LR                    ; [DPU_3_PIPE] 
        ; BRANCH OCCURS                  ; [] 
	.dwattr $C$DW$84, DW_AT_TI_end_file("../ff.c")
	.dwattr $C$DW$84, DW_AT_TI_end_line(0x366)
	.dwattr $C$DW$84, DW_AT_TI_end_column(0x01)
	.dwendentry
	.dwendtag $C$DW$84

	.sect	".text"
	.clink
	.thumbfunc get_fat
	.thumb
	.global	get_fat

$C$DW$90	.dwtag  DW_TAG_subprogram
	.dwattr $C$DW$90, DW_AT_name("get_fat")
	.dwattr $C$DW$90, DW_AT_low_pc(get_fat)
	.dwattr $C$DW$90, DW_AT_high_pc(0x00)
	.dwattr $C$DW$90, DW_AT_TI_symbol_name("get_fat")
	.dwattr $C$DW$90, DW_AT_external
	.dwattr $C$DW$90, DW_AT_type(*$C$DW$T$21)
	.dwattr $C$DW$90, DW_AT_TI_begin_file("../ff.c")
	.dwattr $C$DW$90, DW_AT_TI_begin_line(0x370)
	.dwattr $C$DW$90, DW_AT_TI_begin_column(0x07)
	.dwattr $C$DW$90, DW_AT_decl_file("../ff.c")
	.dwattr $C$DW$90, DW_AT_decl_line(0x370)
	.dwattr $C$DW$90, DW_AT_decl_column(0x07)
	.dwattr $C$DW$90, DW_AT_TI_max_frame_size(0x20)
	.dwpsn	file "../ff.c",line 884,column 1,is_stmt,address get_fat,isa 1

	.dwfde $C$DW$CIE, get_fat
$C$DW$91	.dwtag  DW_TAG_formal_parameter
	.dwattr $C$DW$91, DW_AT_name("fs")
	.dwattr $C$DW$91, DW_AT_TI_symbol_name("fs")
	.dwattr $C$DW$91, DW_AT_type(*$C$DW$T$25)
	.dwattr $C$DW$91, DW_AT_location[DW_OP_reg0]

$C$DW$92	.dwtag  DW_TAG_formal_parameter
	.dwattr $C$DW$92, DW_AT_name("clst")
	.dwattr $C$DW$92, DW_AT_TI_symbol_name("clst")
	.dwattr $C$DW$92, DW_AT_type(*$C$DW$T$21)
	.dwattr $C$DW$92, DW_AT_location[DW_OP_reg1]

;----------------------------------------------------------------------
; 880 | DWORD get_fat (  /* 0xFFFFFFFF:Disk error, 1:Internal error, 2..0x0FFFF
;     | FFF:Cluster status */                                                  
; 881 | FATFS* fs,  /* File system object */                                   
; 882 | DWORD clst  /* FAT item index (cluster#) to get the value */           
; 883 | )                                                                      
;----------------------------------------------------------------------

;*****************************************************************************
;* FUNCTION NAME: get_fat                                                    *
;*                                                                           *
;*   Regs Modified     : A1,A2,A3,A4,V9,SP,LR,SR,D0,D0_hi,D1,D1_hi,D2,D2_hi, *
;*                           D3,D3_hi,D4,D4_hi,D5,D5_hi,D6,D6_hi,D7,D7_hi,   *
;*                           FPEXC,FPSCR                                     *
;*   Regs Used         : A1,A2,A3,A4,V9,SP,LR,SR,D0,D0_hi,D1,D1_hi,D2,D2_hi, *
;*                           D3,D3_hi,D4,D4_hi,D5,D5_hi,D6,D6_hi,D7,D7_hi,   *
;*                           FPEXC,FPSCR                                     *
;*   Local Frame Size  : 0 Args + 24 Auto + 4 Save = 28 byte                 *
;*****************************************************************************
get_fat:
;* --------------------------------------------------------------------------*
	.dwcfi	cfa_offset, 0
        PUSH      {LR}                  ; [DPU_3_PIPE] 
	.dwcfi	cfa_offset, 4
	.dwcfi	save_reg_to_mem, 14, -4
        SUB       SP, SP, #28           ; [DPU_3_PIPE] 
	.dwcfi	cfa_offset, 32
$C$DW$93	.dwtag  DW_TAG_variable
	.dwattr $C$DW$93, DW_AT_name("fs")
	.dwattr $C$DW$93, DW_AT_TI_symbol_name("fs")
	.dwattr $C$DW$93, DW_AT_type(*$C$DW$T$25)
	.dwattr $C$DW$93, DW_AT_location[DW_OP_breg13 0]

$C$DW$94	.dwtag  DW_TAG_variable
	.dwattr $C$DW$94, DW_AT_name("clst")
	.dwattr $C$DW$94, DW_AT_TI_symbol_name("clst")
	.dwattr $C$DW$94, DW_AT_type(*$C$DW$T$21)
	.dwattr $C$DW$94, DW_AT_location[DW_OP_breg13 4]

$C$DW$95	.dwtag  DW_TAG_variable
	.dwattr $C$DW$95, DW_AT_name("wc")
	.dwattr $C$DW$95, DW_AT_TI_symbol_name("wc")
	.dwattr $C$DW$95, DW_AT_type(*$C$DW$T$35)
	.dwattr $C$DW$95, DW_AT_location[DW_OP_breg13 8]

$C$DW$96	.dwtag  DW_TAG_variable
	.dwattr $C$DW$96, DW_AT_name("bc")
	.dwattr $C$DW$96, DW_AT_TI_symbol_name("bc")
	.dwattr $C$DW$96, DW_AT_type(*$C$DW$T$35)
	.dwattr $C$DW$96, DW_AT_location[DW_OP_breg13 12]

$C$DW$97	.dwtag  DW_TAG_variable
	.dwattr $C$DW$97, DW_AT_name("p")
	.dwattr $C$DW$97, DW_AT_TI_symbol_name("p")
	.dwattr $C$DW$97, DW_AT_type(*$C$DW$T$26)
	.dwattr $C$DW$97, DW_AT_location[DW_OP_breg13 16]

$C$DW$98	.dwtag  DW_TAG_variable
	.dwattr $C$DW$98, DW_AT_name("val")
	.dwattr $C$DW$98, DW_AT_TI_symbol_name("val")
	.dwattr $C$DW$98, DW_AT_type(*$C$DW$T$21)
	.dwattr $C$DW$98, DW_AT_location[DW_OP_breg13 20]

;----------------------------------------------------------------------
; 885 | UINT wc, bc;                                                           
; 886 | BYTE *p;                                                               
; 887 | DWORD val;                                                             
;----------------------------------------------------------------------
        STR       A2, [SP, #4]          ; [DPU_3_PIPE] |884| 
        STR       A1, [SP, #0]          ; [DPU_3_PIPE] |884| 
	.dwpsn	file "../ff.c",line 890,column 3,is_stmt,isa 1
;----------------------------------------------------------------------
; 890 | if (clst < 2 || clst >= fs->n_fatent) {  /* Check range */             
;----------------------------------------------------------------------
        LDR       A1, [SP, #4]          ; [DPU_3_PIPE] |890| 
        CMP       A1, #2                ; [DPU_3_PIPE] |890| 
        BCC       ||$C$L19||            ; [DPU_3_PIPE] |890| 
        ; BRANCHCC OCCURS {||$C$L19||}   ; [] |890| 
;* --------------------------------------------------------------------------*
        LDR       A1, [SP, #0]          ; [DPU_3_PIPE] |890| 
        LDR       A2, [SP, #4]          ; [DPU_3_PIPE] |890| 
        LDR       A1, [A1, #24]         ; [DPU_3_PIPE] |890| 
        CMP       A1, A2                ; [DPU_3_PIPE] |890| 
        BHI       ||$C$L20||            ; [DPU_3_PIPE] |890| 
        ; BRANCHCC OCCURS {||$C$L20||}   ; [] |890| 
;* --------------------------------------------------------------------------*
||$C$L19||:    
	.dwpsn	file "../ff.c",line 891,column 5,is_stmt,isa 1
;----------------------------------------------------------------------
; 891 | val = 1;  /* Internal error */                                         
;----------------------------------------------------------------------
        MOVS      A1, #1                ; [DPU_3_PIPE] |891| 
        STR       A1, [SP, #20]         ; [DPU_3_PIPE] |891| 
	.dwpsn	file "../ff.c",line 893,column 3,is_stmt,isa 1
;----------------------------------------------------------------------
; 893 | } else {                                                               
;----------------------------------------------------------------------
        B         ||$C$L28||            ; [DPU_3_PIPE] |893| 
        ; BRANCH OCCURS {||$C$L28||}     ; [] |893| 
;* --------------------------------------------------------------------------*
||$C$L20||:    
	.dwpsn	file "../ff.c",line 894,column 5,is_stmt,isa 1
;----------------------------------------------------------------------
; 894 | val = 0xFFFFFFFF;  /* Default value falls on disk error */             
;----------------------------------------------------------------------
        MOV       A1, #-1               ; [DPU_3_PIPE] |894| 
        STR       A1, [SP, #20]         ; [DPU_3_PIPE] |894| 
	.dwpsn	file "../ff.c",line 896,column 5,is_stmt,isa 1
;----------------------------------------------------------------------
; 896 | switch (fs->fs_type) {                                                 
; 897 | case FS_FAT12 :                                                        
;----------------------------------------------------------------------
        B         ||$C$L27||            ; [DPU_3_PIPE] |896| 
        ; BRANCH OCCURS {||$C$L27||}     ; [] |896| 
;* --------------------------------------------------------------------------*
||$C$L21||:    
	.dwpsn	file "../ff.c",line 898,column 7,is_stmt,isa 1
;----------------------------------------------------------------------
; 898 | bc = (UINT)clst; bc += bc / 2;                                         
;----------------------------------------------------------------------
        LDR       A1, [SP, #4]          ; [DPU_3_PIPE] |898| 
        STR       A1, [SP, #12]         ; [DPU_3_PIPE] |898| 
	.dwpsn	file "../ff.c",line 898,column 24,is_stmt,isa 1
        LDR       A2, [SP, #12]         ; [DPU_3_PIPE] |898| 
        LDR       A1, [SP, #12]         ; [DPU_3_PIPE] |898| 
        ADD       A1, A1, A2, LSR #1    ; [DPU_3_PIPE] |898| 
        STR       A1, [SP, #12]         ; [DPU_3_PIPE] |898| 
	.dwpsn	file "../ff.c",line 899,column 7,is_stmt,isa 1
;----------------------------------------------------------------------
; 899 | if (move_window(fs, fs->fatbase + (bc / SS(fs))) != FR_OK) break;      
;----------------------------------------------------------------------
        LDR       A1, [SP, #0]          ; [DPU_3_PIPE] |899| 
        LDR       A3, [SP, #12]         ; [DPU_3_PIPE] |899| 
        LDR       A2, [A1, #36]         ; [DPU_3_PIPE] |899| 
        LDR       A1, [SP, #0]          ; [DPU_3_PIPE] |899| 
        ADD       A2, A2, A3, LSR #9    ; [DPU_3_PIPE] |899| 
$C$DW$99	.dwtag  DW_TAG_TI_branch
	.dwattr $C$DW$99, DW_AT_low_pc(0x00)
	.dwattr $C$DW$99, DW_AT_name("move_window")
	.dwattr $C$DW$99, DW_AT_TI_call

        BL        move_window           ; [DPU_3_PIPE] |899| 
        ; CALL OCCURS {move_window }     ; [] |899| 
        CMP       A1, #0                ; [DPU_3_PIPE] |899| 
        BNE       ||$C$L28||            ; [DPU_3_PIPE] |899| 
        ; BRANCHCC OCCURS {||$C$L28||}   ; [] |899| 
;* --------------------------------------------------------------------------*
	.dwpsn	file "../ff.c",line 899,column 66,is_stmt,isa 1
	.dwpsn	file "../ff.c",line 900,column 7,is_stmt,isa 1
;----------------------------------------------------------------------
; 900 | wc = fs->win[bc++ % SS(fs)];                                           
;----------------------------------------------------------------------
        LDR       A2, [SP, #12]         ; [DPU_3_PIPE] |900| 
        LDR       A1, [SP, #0]          ; [DPU_3_PIPE] |900| 
        ADDS      A3, A2, #1            ; [DPU_3_PIPE] |900| 
        STR       A3, [SP, #12]         ; [DPU_3_PIPE] |900| 
        UBFX      A2, A2, #0, #9        ; [DPU_3_PIPE] |900| 
        ADDS      A1, A1, A2            ; [DPU_3_PIPE] |900| 
        LDRB      A1, [A1, #52]         ; [DPU_3_PIPE] |900| 
        STR       A1, [SP, #8]          ; [DPU_3_PIPE] |900| 
	.dwpsn	file "../ff.c",line 901,column 7,is_stmt,isa 1
;----------------------------------------------------------------------
; 901 | if (move_window(fs, fs->fatbase + (bc / SS(fs))) != FR_OK) break;      
;----------------------------------------------------------------------
        LDR       A1, [SP, #0]          ; [DPU_3_PIPE] |901| 
        LDR       A3, [SP, #12]         ; [DPU_3_PIPE] |901| 
        LDR       A2, [A1, #36]         ; [DPU_3_PIPE] |901| 
        LDR       A1, [SP, #0]          ; [DPU_3_PIPE] |901| 
        ADD       A2, A2, A3, LSR #9    ; [DPU_3_PIPE] |901| 
$C$DW$100	.dwtag  DW_TAG_TI_branch
	.dwattr $C$DW$100, DW_AT_low_pc(0x00)
	.dwattr $C$DW$100, DW_AT_name("move_window")
	.dwattr $C$DW$100, DW_AT_TI_call

        BL        move_window           ; [DPU_3_PIPE] |901| 
        ; CALL OCCURS {move_window }     ; [] |901| 
        CMP       A1, #0                ; [DPU_3_PIPE] |901| 
        BNE       ||$C$L28||            ; [DPU_3_PIPE] |901| 
        ; BRANCHCC OCCURS {||$C$L28||}   ; [] |901| 
;* --------------------------------------------------------------------------*
	.dwpsn	file "../ff.c",line 901,column 66,is_stmt,isa 1
	.dwpsn	file "../ff.c",line 902,column 7,is_stmt,isa 1
;----------------------------------------------------------------------
; 902 | wc |= fs->win[bc % SS(fs)] << 8;                                       
;----------------------------------------------------------------------
        LDR       A2, [SP, #12]         ; [DPU_3_PIPE] |902| 
        LDR       A1, [SP, #0]          ; [DPU_3_PIPE] |902| 
        BFC       A2, #9, #23           ; [DPU_3_PIPE] |902| 
        ADDS      A1, A1, A2            ; [DPU_3_PIPE] |902| 
        LDR       A2, [SP, #8]          ; [DPU_3_PIPE] |902| 
        LDRB      A1, [A1, #52]         ; [DPU_3_PIPE] |902| 
        ORR       A2, A2, A1, LSL #8    ; [DPU_3_PIPE] |902| 
        STR       A2, [SP, #8]          ; [DPU_3_PIPE] |902| 
	.dwpsn	file "../ff.c",line 903,column 7,is_stmt,isa 1
;----------------------------------------------------------------------
; 903 | val = clst & 1 ? wc >> 4 : (wc & 0xFFF);                               
;----------------------------------------------------------------------
        LDR       A1, [SP, #4]          ; [DPU_3_PIPE] |903| 
        LSRS      A1, A1, #1            ; [DPU_3_PIPE] |903| 
        BCC       ||$C$L22||            ; [DPU_3_PIPE] |903| 
        ; BRANCHCC OCCURS {||$C$L22||}   ; [] |903| 
;* --------------------------------------------------------------------------*
        LDR       A1, [SP, #8]          ; [DPU_3_PIPE] |903| 
        LSRS      A1, A1, #4            ; [DPU_3_PIPE] |903| 
        B         ||$C$L23||            ; [DPU_3_PIPE] |903| 
        ; BRANCH OCCURS {||$C$L23||}     ; [] |903| 
;* --------------------------------------------------------------------------*
||$C$L22||:    
        LDR       A1, [SP, #8]          ; [DPU_3_PIPE] |903| 
        UBFX      A1, A1, #0, #12       ; [DPU_3_PIPE] |903| 
;* --------------------------------------------------------------------------*
||$C$L23||:    
        STR       A1, [SP, #20]         ; [DPU_3_PIPE] |903| 
	.dwpsn	file "../ff.c",line 904,column 7,is_stmt,isa 1
;----------------------------------------------------------------------
; 904 | break;                                                                 
; 906 | case FS_FAT16 :                                                        
;----------------------------------------------------------------------
        B         ||$C$L28||            ; [DPU_3_PIPE] |904| 
        ; BRANCH OCCURS {||$C$L28||}     ; [] |904| 
;* --------------------------------------------------------------------------*
||$C$L24||:    
	.dwpsn	file "../ff.c",line 907,column 7,is_stmt,isa 1
;----------------------------------------------------------------------
; 907 | if (move_window(fs, fs->fatbase + (clst / (SS(fs) / 2))) != FR_OK) brea
;     | k;                                                                     
;----------------------------------------------------------------------
        LDR       A1, [SP, #0]          ; [DPU_3_PIPE] |907| 
        LDR       A3, [SP, #4]          ; [DPU_3_PIPE] |907| 
        LDR       A2, [A1, #36]         ; [DPU_3_PIPE] |907| 
        LDR       A1, [SP, #0]          ; [DPU_3_PIPE] |907| 
        ADD       A2, A2, A3, LSR #8    ; [DPU_3_PIPE] |907| 
$C$DW$101	.dwtag  DW_TAG_TI_branch
	.dwattr $C$DW$101, DW_AT_low_pc(0x00)
	.dwattr $C$DW$101, DW_AT_name("move_window")
	.dwattr $C$DW$101, DW_AT_TI_call

        BL        move_window           ; [DPU_3_PIPE] |907| 
        ; CALL OCCURS {move_window }     ; [] |907| 
        CMP       A1, #0                ; [DPU_3_PIPE] |907| 
        BNE       ||$C$L28||            ; [DPU_3_PIPE] |907| 
        ; BRANCHCC OCCURS {||$C$L28||}   ; [] |907| 
;* --------------------------------------------------------------------------*
	.dwpsn	file "../ff.c",line 907,column 74,is_stmt,isa 1
	.dwpsn	file "../ff.c",line 908,column 7,is_stmt,isa 1
;----------------------------------------------------------------------
; 908 | p = &fs->win[clst * 2 % SS(fs)];                                       
;----------------------------------------------------------------------
        LDR       A2, [SP, #4]          ; [DPU_3_PIPE] |908| 
        LDR       A1, [SP, #0]          ; [DPU_3_PIPE] |908| 
        LSLS      A2, A2, #1            ; [DPU_3_PIPE] |908| 
        BFC       A2, #9, #23           ; [DPU_3_PIPE] |908| 
        ADDS      A1, A1, A2            ; [DPU_3_PIPE] |908| 
        ADDS      A1, A1, #52           ; [DPU_3_PIPE] |908| 
        STR       A1, [SP, #16]         ; [DPU_3_PIPE] |908| 
	.dwpsn	file "../ff.c",line 909,column 7,is_stmt,isa 1
;----------------------------------------------------------------------
; 909 | val = LD_WORD(p);                                                      
;----------------------------------------------------------------------
        LDR       A2, [SP, #16]         ; [DPU_3_PIPE] |909| 
        LDR       A1, [SP, #16]         ; [DPU_3_PIPE] |909| 
        LDRB      A2, [A2, #1]          ; [DPU_3_PIPE] |909| 
        LDRB      A1, [A1, #0]          ; [DPU_3_PIPE] |909| 
        ORR       A1, A1, A2, LSL #8    ; [DPU_3_PIPE] |909| 
        UXTH      A1, A1                ; [DPU_3_PIPE] |909| 
        STR       A1, [SP, #20]         ; [DPU_3_PIPE] |909| 
	.dwpsn	file "../ff.c",line 910,column 7,is_stmt,isa 1
;----------------------------------------------------------------------
; 910 | break;                                                                 
; 912 | case FS_FAT32 :                                                        
;----------------------------------------------------------------------
        B         ||$C$L28||            ; [DPU_3_PIPE] |910| 
        ; BRANCH OCCURS {||$C$L28||}     ; [] |910| 
;* --------------------------------------------------------------------------*
||$C$L25||:    
	.dwpsn	file "../ff.c",line 913,column 7,is_stmt,isa 1
;----------------------------------------------------------------------
; 913 | if (move_window(fs, fs->fatbase + (clst / (SS(fs) / 4))) != FR_OK) brea
;     | k;                                                                     
;----------------------------------------------------------------------
        LDR       A1, [SP, #0]          ; [DPU_3_PIPE] |913| 
        LDR       A3, [SP, #4]          ; [DPU_3_PIPE] |913| 
        LDR       A2, [A1, #36]         ; [DPU_3_PIPE] |913| 
        LDR       A1, [SP, #0]          ; [DPU_3_PIPE] |913| 
        ADD       A2, A2, A3, LSR #7    ; [DPU_3_PIPE] |913| 
$C$DW$102	.dwtag  DW_TAG_TI_branch
	.dwattr $C$DW$102, DW_AT_low_pc(0x00)
	.dwattr $C$DW$102, DW_AT_name("move_window")
	.dwattr $C$DW$102, DW_AT_TI_call

        BL        move_window           ; [DPU_3_PIPE] |913| 
        ; CALL OCCURS {move_window }     ; [] |913| 
        CBNZ      A1, ||$C$L28||        ; [] 
        ; BRANCHCC OCCURS {||$C$L28||}   ; [] |913| 
;* --------------------------------------------------------------------------*
	.dwpsn	file "../ff.c",line 913,column 74,is_stmt,isa 1
	.dwpsn	file "../ff.c",line 914,column 7,is_stmt,isa 1
;----------------------------------------------------------------------
; 914 | p = &fs->win[clst * 4 % SS(fs)];                                       
;----------------------------------------------------------------------
        LDR       A2, [SP, #4]          ; [DPU_3_PIPE] |914| 
        LDR       A1, [SP, #0]          ; [DPU_3_PIPE] |914| 
        LSLS      A2, A2, #2            ; [DPU_3_PIPE] |914| 
        BFC       A2, #9, #23           ; [DPU_3_PIPE] |914| 
        ADDS      A1, A1, A2            ; [DPU_3_PIPE] |914| 
        ADDS      A1, A1, #52           ; [DPU_3_PIPE] |914| 
        STR       A1, [SP, #16]         ; [DPU_3_PIPE] |914| 
	.dwpsn	file "../ff.c",line 915,column 7,is_stmt,isa 1
;----------------------------------------------------------------------
; 915 | val = LD_DWORD(p) & 0x0FFFFFFF;                                        
;----------------------------------------------------------------------
        LDR       A4, [SP, #16]         ; [DPU_3_PIPE] |915| 
        LDR       A3, [SP, #16]         ; [DPU_3_PIPE] |915| 
        LDR       A1, [SP, #16]         ; [DPU_3_PIPE] |915| 
        LDR       A2, [SP, #16]         ; [DPU_3_PIPE] |915| 
        LDRB      A4, [A4, #2]          ; [DPU_3_PIPE] |915| 
        LDRB      A1, [A1, #3]          ; [DPU_3_PIPE] |915| 
        LDRB      A3, [A3, #1]          ; [DPU_3_PIPE] |915| 
        LDRB      A2, [A2, #0]          ; [DPU_3_PIPE] |915| 
        LSLS      A1, A1, #24           ; [DPU_3_PIPE] |915| 
        ORR       A1, A1, A4, LSL #16   ; [DPU_3_PIPE] |915| 
        ORR       A1, A1, A3, LSL #8    ; [DPU_3_PIPE] |915| 
        ORRS      A2, A2, A1            ; [DPU_3_PIPE] |915| 
        BIC       A2, A2, #-268435456   ; [DPU_3_PIPE] |915| 
        STR       A2, [SP, #20]         ; [DPU_3_PIPE] |915| 
	.dwpsn	file "../ff.c",line 916,column 7,is_stmt,isa 1
;----------------------------------------------------------------------
; 916 | break;                                                                 
; 918 | default:                                                               
;----------------------------------------------------------------------
        B         ||$C$L28||            ; [DPU_3_PIPE] |916| 
        ; BRANCH OCCURS {||$C$L28||}     ; [] |916| 
;* --------------------------------------------------------------------------*
||$C$L26||:    
	.dwpsn	file "../ff.c",line 919,column 7,is_stmt,isa 1
;----------------------------------------------------------------------
; 919 | val = 1;  /* Internal error */                                         
;----------------------------------------------------------------------
        MOVS      A1, #1                ; [DPU_3_PIPE] |919| 
        STR       A1, [SP, #20]         ; [DPU_3_PIPE] |919| 
	.dwpsn	file "../ff.c",line 920,column 5,is_stmt,isa 1
        B         ||$C$L28||            ; [DPU_3_PIPE] |920| 
        ; BRANCH OCCURS {||$C$L28||}     ; [] |920| 
;* --------------------------------------------------------------------------*
||$C$L27||:    
	.dwpsn	file "../ff.c",line 896,column 5,is_stmt,isa 1
        LDR       A1, [SP, #0]          ; [DPU_3_PIPE] |896| 
        LDRB      A1, [A1, #0]          ; [DPU_3_PIPE] |896| 
        SUBS      A1, A1, #1            ; [DPU_3_PIPE] |896| 
        BEQ       ||$C$L21||            ; [DPU_3_PIPE] |896| 
        ; BRANCHCC OCCURS {||$C$L21||}   ; [] |896| 
;* --------------------------------------------------------------------------*
        SUBS      A1, A1, #1            ; [DPU_3_PIPE] |896| 
        BEQ       ||$C$L24||            ; [DPU_3_PIPE] |896| 
        ; BRANCHCC OCCURS {||$C$L24||}   ; [] |896| 
;* --------------------------------------------------------------------------*
        SUBS      A1, A1, #1            ; [DPU_3_PIPE] |896| 
        BEQ       ||$C$L25||            ; [DPU_3_PIPE] |896| 
        ; BRANCHCC OCCURS {||$C$L25||}   ; [] |896| 
;* --------------------------------------------------------------------------*
        B         ||$C$L26||            ; [DPU_3_PIPE] |896| 
        ; BRANCH OCCURS {||$C$L26||}     ; [] |896| 
;* --------------------------------------------------------------------------*
||$C$L28||:    
	.dwpsn	file "../ff.c",line 923,column 3,is_stmt,isa 1
;----------------------------------------------------------------------
; 923 | return val;                                                            
;----------------------------------------------------------------------
        LDR       A1, [SP, #20]         ; [DPU_3_PIPE] |923| 
	.dwpsn	file "../ff.c",line 924,column 1,is_stmt,isa 1
        ADD       SP, SP, #28           ; [DPU_3_PIPE] 
	.dwcfi	cfa_offset, 4
$C$DW$103	.dwtag  DW_TAG_TI_branch
	.dwattr $C$DW$103, DW_AT_low_pc(0x00)
	.dwattr $C$DW$103, DW_AT_TI_return

        POP       {PC}                  ; [DPU_3_PIPE] 
	.dwcfi	cfa_offset, 0
        ; BRANCH OCCURS                  ; [] 
	.dwattr $C$DW$90, DW_AT_TI_end_file("../ff.c")
	.dwattr $C$DW$90, DW_AT_TI_end_line(0x39c)
	.dwattr $C$DW$90, DW_AT_TI_end_column(0x01)
	.dwendentry
	.dwendtag $C$DW$90

	.sect	".text"
	.clink
	.thumbfunc put_fat
	.thumb
	.global	put_fat

$C$DW$104	.dwtag  DW_TAG_subprogram
	.dwattr $C$DW$104, DW_AT_name("put_fat")
	.dwattr $C$DW$104, DW_AT_low_pc(put_fat)
	.dwattr $C$DW$104, DW_AT_high_pc(0x00)
	.dwattr $C$DW$104, DW_AT_TI_symbol_name("put_fat")
	.dwattr $C$DW$104, DW_AT_external
	.dwattr $C$DW$104, DW_AT_type(*$C$DW$T$45)
	.dwattr $C$DW$104, DW_AT_TI_begin_file("../ff.c")
	.dwattr $C$DW$104, DW_AT_TI_begin_line(0x3a7)
	.dwattr $C$DW$104, DW_AT_TI_begin_column(0x09)
	.dwattr $C$DW$104, DW_AT_decl_file("../ff.c")
	.dwattr $C$DW$104, DW_AT_decl_line(0x3a7)
	.dwattr $C$DW$104, DW_AT_decl_column(0x09)
	.dwattr $C$DW$104, DW_AT_TI_max_frame_size(0x20)
	.dwpsn	file "../ff.c",line 940,column 1,is_stmt,address put_fat,isa 1

	.dwfde $C$DW$CIE, put_fat
$C$DW$105	.dwtag  DW_TAG_formal_parameter
	.dwattr $C$DW$105, DW_AT_name("fs")
	.dwattr $C$DW$105, DW_AT_TI_symbol_name("fs")
	.dwattr $C$DW$105, DW_AT_type(*$C$DW$T$25)
	.dwattr $C$DW$105, DW_AT_location[DW_OP_reg0]

$C$DW$106	.dwtag  DW_TAG_formal_parameter
	.dwattr $C$DW$106, DW_AT_name("clst")
	.dwattr $C$DW$106, DW_AT_TI_symbol_name("clst")
	.dwattr $C$DW$106, DW_AT_type(*$C$DW$T$21)
	.dwattr $C$DW$106, DW_AT_location[DW_OP_reg1]

$C$DW$107	.dwtag  DW_TAG_formal_parameter
	.dwattr $C$DW$107, DW_AT_name("val")
	.dwattr $C$DW$107, DW_AT_TI_symbol_name("val")
	.dwattr $C$DW$107, DW_AT_type(*$C$DW$T$21)
	.dwattr $C$DW$107, DW_AT_location[DW_OP_reg2]

;----------------------------------------------------------------------
; 935 | FRESULT put_fat (                                                      
; 936 | FATFS* fs,  /* File system object */                                   
; 937 | DWORD clst,  /* FAT item index (cluster#) to be set */                 
; 938 | DWORD val  /* New value to mark the cluster */                         
; 939 | )                                                                      
;----------------------------------------------------------------------

;*****************************************************************************
;* FUNCTION NAME: put_fat                                                    *
;*                                                                           *
;*   Regs Modified     : A1,A2,A3,A4,V1,V9,SP,LR,SR,D0,D0_hi,D1,D1_hi,D2,    *
;*                           D2_hi,D3,D3_hi,D4,D4_hi,D5,D5_hi,D6,D6_hi,D7,   *
;*                           D7_hi,FPEXC,FPSCR                               *
;*   Regs Used         : A1,A2,A3,A4,V1,V9,SP,LR,SR,D0,D0_hi,D1,D1_hi,D2,    *
;*                           D2_hi,D3,D3_hi,D4,D4_hi,D5,D5_hi,D6,D6_hi,D7,   *
;*                           D7_hi,FPEXC,FPSCR                               *
;*   Local Frame Size  : 0 Args + 24 Auto + 8 Save = 32 byte                 *
;*****************************************************************************
put_fat:
;* --------------------------------------------------------------------------*
	.dwcfi	cfa_offset, 0
        PUSH      {V1, LR}              ; [DPU_3_PIPE] 
	.dwcfi	cfa_offset, 8
	.dwcfi	save_reg_to_mem, 14, -4
	.dwcfi	save_reg_to_mem, 4, -8
        SUB       SP, SP, #24           ; [DPU_3_PIPE] 
	.dwcfi	cfa_offset, 32
$C$DW$108	.dwtag  DW_TAG_variable
	.dwattr $C$DW$108, DW_AT_name("fs")
	.dwattr $C$DW$108, DW_AT_TI_symbol_name("fs")
	.dwattr $C$DW$108, DW_AT_type(*$C$DW$T$25)
	.dwattr $C$DW$108, DW_AT_location[DW_OP_breg13 0]

$C$DW$109	.dwtag  DW_TAG_variable
	.dwattr $C$DW$109, DW_AT_name("clst")
	.dwattr $C$DW$109, DW_AT_TI_symbol_name("clst")
	.dwattr $C$DW$109, DW_AT_type(*$C$DW$T$21)
	.dwattr $C$DW$109, DW_AT_location[DW_OP_breg13 4]

$C$DW$110	.dwtag  DW_TAG_variable
	.dwattr $C$DW$110, DW_AT_name("val")
	.dwattr $C$DW$110, DW_AT_TI_symbol_name("val")
	.dwattr $C$DW$110, DW_AT_type(*$C$DW$T$21)
	.dwattr $C$DW$110, DW_AT_location[DW_OP_breg13 8]

$C$DW$111	.dwtag  DW_TAG_variable
	.dwattr $C$DW$111, DW_AT_name("bc")
	.dwattr $C$DW$111, DW_AT_TI_symbol_name("bc")
	.dwattr $C$DW$111, DW_AT_type(*$C$DW$T$35)
	.dwattr $C$DW$111, DW_AT_location[DW_OP_breg13 12]

$C$DW$112	.dwtag  DW_TAG_variable
	.dwattr $C$DW$112, DW_AT_name("p")
	.dwattr $C$DW$112, DW_AT_TI_symbol_name("p")
	.dwattr $C$DW$112, DW_AT_type(*$C$DW$T$26)
	.dwattr $C$DW$112, DW_AT_location[DW_OP_breg13 16]

$C$DW$113	.dwtag  DW_TAG_variable
	.dwattr $C$DW$113, DW_AT_name("res")
	.dwattr $C$DW$113, DW_AT_TI_symbol_name("res")
	.dwattr $C$DW$113, DW_AT_type(*$C$DW$T$45)
	.dwattr $C$DW$113, DW_AT_location[DW_OP_breg13 20]

;----------------------------------------------------------------------
; 941 | UINT bc;                                                               
; 942 | BYTE *p;                                                               
; 943 | FRESULT res;                                                           
;----------------------------------------------------------------------
        STR       A3, [SP, #8]          ; [DPU_3_PIPE] |940| 
        STR       A2, [SP, #4]          ; [DPU_3_PIPE] |940| 
        STR       A1, [SP, #0]          ; [DPU_3_PIPE] |940| 
	.dwpsn	file "../ff.c",line 946,column 3,is_stmt,isa 1
;----------------------------------------------------------------------
; 946 | if (clst < 2 || clst >= fs->n_fatent) {  /* Check range */             
;----------------------------------------------------------------------
        LDR       A1, [SP, #4]          ; [DPU_3_PIPE] |946| 
        CMP       A1, #2                ; [DPU_3_PIPE] |946| 
        BCC       ||$C$L29||            ; [DPU_3_PIPE] |946| 
        ; BRANCHCC OCCURS {||$C$L29||}   ; [] |946| 
;* --------------------------------------------------------------------------*
        LDR       A1, [SP, #0]          ; [DPU_3_PIPE] |946| 
        LDR       A2, [SP, #4]          ; [DPU_3_PIPE] |946| 
        LDR       A1, [A1, #24]         ; [DPU_3_PIPE] |946| 
        CMP       A1, A2                ; [DPU_3_PIPE] |946| 
        BHI       ||$C$L38||            ; [DPU_3_PIPE] |946| 
        ; BRANCHCC OCCURS {||$C$L38||}   ; [] |946| 
;* --------------------------------------------------------------------------*
||$C$L29||:    
	.dwpsn	file "../ff.c",line 947,column 5,is_stmt,isa 1
;----------------------------------------------------------------------
; 947 | res = FR_INT_ERR;                                                      
;----------------------------------------------------------------------
        MOVS      A1, #2                ; [DPU_3_PIPE] |947| 
        STRB      A1, [SP, #20]         ; [DPU_3_PIPE] |947| 
	.dwpsn	file "../ff.c",line 949,column 3,is_stmt,isa 1
;----------------------------------------------------------------------
; 949 | } else {                                                               
; 950 |   switch (fs->fs_type) {                                               
; 951 |   case FS_FAT12 :                                                      
;----------------------------------------------------------------------
        B         ||$C$L39||            ; [DPU_3_PIPE] |949| 
        ; BRANCH OCCURS {||$C$L39||}     ; [] |949| 
;* --------------------------------------------------------------------------*
;* --------------------------------------------------------------------------*
||$C$L30||:    
	.dwpsn	file "../ff.c",line 952,column 7,is_stmt,isa 1
;----------------------------------------------------------------------
; 952 | bc = (UINT)clst; bc += bc / 2;                                         
;----------------------------------------------------------------------
        LDR       A1, [SP, #4]          ; [DPU_3_PIPE] |952| 
        STR       A1, [SP, #12]         ; [DPU_3_PIPE] |952| 
	.dwpsn	file "../ff.c",line 952,column 24,is_stmt,isa 1
        LDR       A2, [SP, #12]         ; [DPU_3_PIPE] |952| 
        LDR       A1, [SP, #12]         ; [DPU_3_PIPE] |952| 
        ADD       A1, A1, A2, LSR #1    ; [DPU_3_PIPE] |952| 
        STR       A1, [SP, #12]         ; [DPU_3_PIPE] |952| 
	.dwpsn	file "../ff.c",line 953,column 7,is_stmt,isa 1
;----------------------------------------------------------------------
; 953 | res = move_window(fs, fs->fatbase + (bc / SS(fs)));                    
;----------------------------------------------------------------------
        LDR       A1, [SP, #0]          ; [DPU_3_PIPE] |953| 
        LDR       A3, [SP, #12]         ; [DPU_3_PIPE] |953| 
        LDR       A2, [A1, #36]         ; [DPU_3_PIPE] |953| 
        LDR       A1, [SP, #0]          ; [DPU_3_PIPE] |953| 
        ADD       A2, A2, A3, LSR #9    ; [DPU_3_PIPE] |953| 
$C$DW$114	.dwtag  DW_TAG_TI_branch
	.dwattr $C$DW$114, DW_AT_low_pc(0x00)
	.dwattr $C$DW$114, DW_AT_name("move_window")
	.dwattr $C$DW$114, DW_AT_TI_call

        BL        move_window           ; [DPU_3_PIPE] |953| 
        ; CALL OCCURS {move_window }     ; [] |953| 
        STRB      A1, [SP, #20]         ; [DPU_3_PIPE] |953| 
	.dwpsn	file "../ff.c",line 954,column 7,is_stmt,isa 1
;----------------------------------------------------------------------
; 954 | if (res != FR_OK) break;                                               
;----------------------------------------------------------------------
        LDRB      A1, [SP, #20]         ; [DPU_3_PIPE] |954| 
        CMP       A1, #0                ; [DPU_3_PIPE] |954| 
        BNE       ||$C$L39||            ; [DPU_3_PIPE] |954| 
        ; BRANCHCC OCCURS {||$C$L39||}   ; [] |954| 
;* --------------------------------------------------------------------------*
	.dwpsn	file "../ff.c",line 954,column 25,is_stmt,isa 1
	.dwpsn	file "../ff.c",line 955,column 7,is_stmt,isa 1
;----------------------------------------------------------------------
; 955 | p = &fs->win[bc++ % SS(fs)];                                           
;----------------------------------------------------------------------
        LDR       A1, [SP, #12]         ; [DPU_3_PIPE] |955| 
        LDR       A2, [SP, #0]          ; [DPU_3_PIPE] |955| 
        UBFX      A3, A1, #0, #9        ; [DPU_3_PIPE] |955| 
        ADDS      A1, A1, #1            ; [DPU_3_PIPE] |955| 
        ADDS      A2, A2, A3            ; [DPU_3_PIPE] |955| 
        STR       A1, [SP, #12]         ; [DPU_3_PIPE] |955| 
        ADDS      A2, A2, #52           ; [DPU_3_PIPE] |955| 
        STR       A2, [SP, #16]         ; [DPU_3_PIPE] |955| 
	.dwpsn	file "../ff.c",line 956,column 7,is_stmt,isa 1
;----------------------------------------------------------------------
; 956 | *p = (clst & 1) ? ((*p & 0x0F) | ((BYTE)val << 4)) : (BYTE)val;        
;----------------------------------------------------------------------
        LDR       A1, [SP, #4]          ; [DPU_3_PIPE] |956| 
        LSRS      A1, A1, #1            ; [DPU_3_PIPE] |956| 
        BCC       ||$C$L31||            ; [DPU_3_PIPE] |956| 
        ; BRANCHCC OCCURS {||$C$L31||}   ; [] |956| 
;* --------------------------------------------------------------------------*
        LDR       A1, [SP, #16]         ; [DPU_3_PIPE] |956| 
        LDRB      A2, [SP, #8]          ; [DPU_3_PIPE] |956| 
        LDRB      A1, [A1, #0]          ; [DPU_3_PIPE] |956| 
        AND       A1, A1, #15           ; [DPU_3_PIPE] |956| 
        ORR       A1, A1, A2, LSL #4    ; [DPU_3_PIPE] |956| 
        B         ||$C$L32||            ; [DPU_3_PIPE] |956| 
        ; BRANCH OCCURS {||$C$L32||}     ; [] |956| 
;* --------------------------------------------------------------------------*
||$C$L31||:    
        LDRB      A1, [SP, #8]          ; [DPU_3_PIPE] |956| 
;* --------------------------------------------------------------------------*
||$C$L32||:    
        LDR       A2, [SP, #16]         ; [DPU_3_PIPE] |956| 
        STRB      A1, [A2, #0]          ; [DPU_3_PIPE] |956| 
	.dwpsn	file "../ff.c",line 957,column 7,is_stmt,isa 1
;----------------------------------------------------------------------
; 957 | fs->wflag = 1;                                                         
;----------------------------------------------------------------------
        LDR       A1, [SP, #0]          ; [DPU_3_PIPE] |957| 
        MOVS      A2, #1                ; [DPU_3_PIPE] |957| 
        STRB      A2, [A1, #4]          ; [DPU_3_PIPE] |957| 
	.dwpsn	file "../ff.c",line 958,column 7,is_stmt,isa 1
;----------------------------------------------------------------------
; 958 | res = move_window(fs, fs->fatbase + (bc / SS(fs)));                    
;----------------------------------------------------------------------
        LDR       A1, [SP, #0]          ; [DPU_3_PIPE] |958| 
        LDR       A3, [SP, #12]         ; [DPU_3_PIPE] |958| 
        LDR       A2, [A1, #36]         ; [DPU_3_PIPE] |958| 
        LDR       A1, [SP, #0]          ; [DPU_3_PIPE] |958| 
        ADD       A2, A2, A3, LSR #9    ; [DPU_3_PIPE] |958| 
$C$DW$115	.dwtag  DW_TAG_TI_branch
	.dwattr $C$DW$115, DW_AT_low_pc(0x00)
	.dwattr $C$DW$115, DW_AT_name("move_window")
	.dwattr $C$DW$115, DW_AT_TI_call

        BL        move_window           ; [DPU_3_PIPE] |958| 
        ; CALL OCCURS {move_window }     ; [] |958| 
        STRB      A1, [SP, #20]         ; [DPU_3_PIPE] |958| 
	.dwpsn	file "../ff.c",line 959,column 7,is_stmt,isa 1
;----------------------------------------------------------------------
; 959 | if (res != FR_OK) break;                                               
;----------------------------------------------------------------------
        LDRB      A1, [SP, #20]         ; [DPU_3_PIPE] |959| 
        CMP       A1, #0                ; [DPU_3_PIPE] |959| 
        BNE       ||$C$L39||            ; [DPU_3_PIPE] |959| 
        ; BRANCHCC OCCURS {||$C$L39||}   ; [] |959| 
;* --------------------------------------------------------------------------*
	.dwpsn	file "../ff.c",line 959,column 25,is_stmt,isa 1
	.dwpsn	file "../ff.c",line 960,column 7,is_stmt,isa 1
;----------------------------------------------------------------------
; 960 | p = &fs->win[bc % SS(fs)];                                             
;----------------------------------------------------------------------
        LDR       A2, [SP, #12]         ; [DPU_3_PIPE] |960| 
        LDR       A1, [SP, #0]          ; [DPU_3_PIPE] |960| 
        BFC       A2, #9, #23           ; [DPU_3_PIPE] |960| 
        ADDS      A1, A1, A2            ; [DPU_3_PIPE] |960| 
        ADDS      A1, A1, #52           ; [DPU_3_PIPE] |960| 
        STR       A1, [SP, #16]         ; [DPU_3_PIPE] |960| 
	.dwpsn	file "../ff.c",line 961,column 7,is_stmt,isa 1
;----------------------------------------------------------------------
; 961 | *p = (clst & 1) ? (BYTE)(val >> 4) : ((*p & 0xF0) | ((BYTE)(val >> 8) &
;     |  0x0F));                                                               
;----------------------------------------------------------------------
        LDR       A1, [SP, #4]          ; [DPU_3_PIPE] |961| 
        LSRS      A1, A1, #1            ; [DPU_3_PIPE] |961| 
        BCC       ||$C$L33||            ; [DPU_3_PIPE] |961| 
        ; BRANCHCC OCCURS {||$C$L33||}   ; [] |961| 
;* --------------------------------------------------------------------------*
        LDR       A1, [SP, #8]          ; [DPU_3_PIPE] |961| 
        LSRS      A1, A1, #4            ; [DPU_3_PIPE] |961| 
        UXTB      A2, A1                ; [DPU_3_PIPE] |961| 
        B         ||$C$L34||            ; [DPU_3_PIPE] |961| 
        ; BRANCH OCCURS {||$C$L34||}     ; [] |961| 
;* --------------------------------------------------------------------------*
||$C$L33||:    
        LDR       A1, [SP, #16]         ; [DPU_3_PIPE] |961| 
        LDRB      A2, [SP, #9]          ; [DPU_3_PIPE] |961| 
        LDRB      A1, [A1, #0]          ; [DPU_3_PIPE] |961| 
        AND       A2, A2, #15           ; [DPU_3_PIPE] |961| 
        AND       A1, A1, #240          ; [DPU_3_PIPE] |961| 
        ORRS      A2, A2, A1            ; [DPU_3_PIPE] |961| 
;* --------------------------------------------------------------------------*
||$C$L34||:    
        LDR       A1, [SP, #16]         ; [DPU_3_PIPE] |961| 
        STRB      A2, [A1, #0]          ; [DPU_3_PIPE] |961| 
	.dwpsn	file "../ff.c",line 962,column 7,is_stmt,isa 1
;----------------------------------------------------------------------
; 962 | fs->wflag = 1;                                                         
;----------------------------------------------------------------------
        LDR       A1, [SP, #0]          ; [DPU_3_PIPE] |962| 
        MOVS      A2, #1                ; [DPU_3_PIPE] |962| 
        STRB      A2, [A1, #4]          ; [DPU_3_PIPE] |962| 
	.dwpsn	file "../ff.c",line 963,column 7,is_stmt,isa 1
;----------------------------------------------------------------------
; 963 | break;                                                                 
; 965 | case FS_FAT16 :                                                        
;----------------------------------------------------------------------
        B         ||$C$L39||            ; [DPU_3_PIPE] |963| 
        ; BRANCH OCCURS {||$C$L39||}     ; [] |963| 
;* --------------------------------------------------------------------------*
||$C$L35||:    
	.dwpsn	file "../ff.c",line 966,column 7,is_stmt,isa 1
;----------------------------------------------------------------------
; 966 | res = move_window(fs, fs->fatbase + (clst / (SS(fs) / 2)));            
;----------------------------------------------------------------------
        LDR       A1, [SP, #0]          ; [DPU_3_PIPE] |966| 
        LDR       A3, [SP, #4]          ; [DPU_3_PIPE] |966| 
        LDR       A2, [A1, #36]         ; [DPU_3_PIPE] |966| 
        LDR       A1, [SP, #0]          ; [DPU_3_PIPE] |966| 
        ADD       A2, A2, A3, LSR #8    ; [DPU_3_PIPE] |966| 
$C$DW$116	.dwtag  DW_TAG_TI_branch
	.dwattr $C$DW$116, DW_AT_low_pc(0x00)
	.dwattr $C$DW$116, DW_AT_name("move_window")
	.dwattr $C$DW$116, DW_AT_TI_call

        BL        move_window           ; [DPU_3_PIPE] |966| 
        ; CALL OCCURS {move_window }     ; [] |966| 
        STRB      A1, [SP, #20]         ; [DPU_3_PIPE] |966| 
	.dwpsn	file "../ff.c",line 967,column 7,is_stmt,isa 1
;----------------------------------------------------------------------
; 967 | if (res != FR_OK) break;                                               
;----------------------------------------------------------------------
        LDRB      A1, [SP, #20]         ; [DPU_3_PIPE] |967| 
        CMP       A1, #0                ; [DPU_3_PIPE] |967| 
        BNE       ||$C$L39||            ; [DPU_3_PIPE] |967| 
        ; BRANCHCC OCCURS {||$C$L39||}   ; [] |967| 
;* --------------------------------------------------------------------------*
	.dwpsn	file "../ff.c",line 967,column 25,is_stmt,isa 1
	.dwpsn	file "../ff.c",line 968,column 7,is_stmt,isa 1
;----------------------------------------------------------------------
; 968 | p = &fs->win[clst * 2 % SS(fs)];                                       
;----------------------------------------------------------------------
        LDR       A2, [SP, #4]          ; [DPU_3_PIPE] |968| 
        LDR       A1, [SP, #0]          ; [DPU_3_PIPE] |968| 
        LSLS      A2, A2, #1            ; [DPU_3_PIPE] |968| 
        BFC       A2, #9, #23           ; [DPU_3_PIPE] |968| 
        ADDS      A1, A1, A2            ; [DPU_3_PIPE] |968| 
        ADDS      A1, A1, #52           ; [DPU_3_PIPE] |968| 
        STR       A1, [SP, #16]         ; [DPU_3_PIPE] |968| 
	.dwpsn	file "../ff.c",line 969,column 7,is_stmt,isa 1
;----------------------------------------------------------------------
; 969 | ST_WORD(p, (WORD)val);                                                 
;----------------------------------------------------------------------
        LDRB      A1, [SP, #8]          ; [DPU_3_PIPE] |969| 
        LDR       A2, [SP, #16]         ; [DPU_3_PIPE] |969| 
        STRB      A1, [A2, #0]          ; [DPU_3_PIPE] |969| 
        LDRH      A1, [SP, #8]          ; [DPU_3_PIPE] |969| 
        LDR       A2, [SP, #16]         ; [DPU_3_PIPE] |969| 
        ASRS      A1, A1, #8            ; [DPU_3_PIPE] |969| 
        STRB      A1, [A2, #1]          ; [DPU_3_PIPE] |969| 
	.dwpsn	file "../ff.c",line 970,column 7,is_stmt,isa 1
;----------------------------------------------------------------------
; 970 | fs->wflag = 1;                                                         
;----------------------------------------------------------------------
        LDR       A1, [SP, #0]          ; [DPU_3_PIPE] |970| 
        MOVS      A2, #1                ; [DPU_3_PIPE] |970| 
        STRB      A2, [A1, #4]          ; [DPU_3_PIPE] |970| 
	.dwpsn	file "../ff.c",line 971,column 7,is_stmt,isa 1
;----------------------------------------------------------------------
; 971 | break;                                                                 
; 973 | case FS_FAT32 :                                                        
;----------------------------------------------------------------------
        B         ||$C$L39||            ; [DPU_3_PIPE] |971| 
        ; BRANCH OCCURS {||$C$L39||}     ; [] |971| 
;* --------------------------------------------------------------------------*
||$C$L36||:    
	.dwpsn	file "../ff.c",line 974,column 7,is_stmt,isa 1
;----------------------------------------------------------------------
; 974 | res = move_window(fs, fs->fatbase + (clst / (SS(fs) / 4)));            
;----------------------------------------------------------------------
        LDR       A1, [SP, #0]          ; [DPU_3_PIPE] |974| 
        LDR       A3, [SP, #4]          ; [DPU_3_PIPE] |974| 
        LDR       A2, [A1, #36]         ; [DPU_3_PIPE] |974| 
        LDR       A1, [SP, #0]          ; [DPU_3_PIPE] |974| 
        ADD       A2, A2, A3, LSR #7    ; [DPU_3_PIPE] |974| 
$C$DW$117	.dwtag  DW_TAG_TI_branch
	.dwattr $C$DW$117, DW_AT_low_pc(0x00)
	.dwattr $C$DW$117, DW_AT_name("move_window")
	.dwattr $C$DW$117, DW_AT_TI_call

        BL        move_window           ; [DPU_3_PIPE] |974| 
        ; CALL OCCURS {move_window }     ; [] |974| 
        STRB      A1, [SP, #20]         ; [DPU_3_PIPE] |974| 
	.dwpsn	file "../ff.c",line 975,column 7,is_stmt,isa 1
;----------------------------------------------------------------------
; 975 | if (res != FR_OK) break;                                               
;----------------------------------------------------------------------
        LDRB      A1, [SP, #20]         ; [DPU_3_PIPE] |975| 
        CMP       A1, #0                ; [DPU_3_PIPE] |975| 
        BNE       ||$C$L39||            ; [DPU_3_PIPE] |975| 
        ; BRANCHCC OCCURS {||$C$L39||}   ; [] |975| 
;* --------------------------------------------------------------------------*
	.dwpsn	file "../ff.c",line 975,column 25,is_stmt,isa 1
	.dwpsn	file "../ff.c",line 976,column 7,is_stmt,isa 1
;----------------------------------------------------------------------
; 976 | p = &fs->win[clst * 4 % SS(fs)];                                       
;----------------------------------------------------------------------
        LDR       A2, [SP, #4]          ; [DPU_3_PIPE] |976| 
        LDR       A1, [SP, #0]          ; [DPU_3_PIPE] |976| 
        LSLS      A2, A2, #2            ; [DPU_3_PIPE] |976| 
        BFC       A2, #9, #23           ; [DPU_3_PIPE] |976| 
        ADDS      A1, A1, A2            ; [DPU_3_PIPE] |976| 
        ADDS      A1, A1, #52           ; [DPU_3_PIPE] |976| 
        STR       A1, [SP, #16]         ; [DPU_3_PIPE] |976| 
	.dwpsn	file "../ff.c",line 977,column 7,is_stmt,isa 1
;----------------------------------------------------------------------
; 977 | val |= LD_DWORD(p) & 0xF0000000;                                       
;----------------------------------------------------------------------
        LDR       A4, [SP, #16]         ; [DPU_3_PIPE] |977| 
        LDR       A3, [SP, #16]         ; [DPU_3_PIPE] |977| 
        LDR       A1, [SP, #16]         ; [DPU_3_PIPE] |977| 
        LDR       A2, [SP, #16]         ; [DPU_3_PIPE] |977| 
        LDRB      V1, [A4, #2]          ; [DPU_3_PIPE] |977| 
        LDRB      A1, [A1, #3]          ; [DPU_3_PIPE] |977| 
        LDRB      A4, [A3, #1]          ; [DPU_3_PIPE] |977| 
        LDRB      A2, [A2, #0]          ; [DPU_3_PIPE] |977| 
        LDR       A3, [SP, #8]          ; [DPU_3_PIPE] |977| 
        LSLS      A1, A1, #24           ; [DPU_3_PIPE] |977| 
        ORR       A1, A1, V1, LSL #16   ; [DPU_3_PIPE] |977| 
        ORR       A1, A1, A4, LSL #8    ; [DPU_3_PIPE] |977| 
        ORRS      A1, A2, A1            ; [DPU_3_PIPE] |977| 
        AND       A1, A1, #-268435456   ; [DPU_3_PIPE] |977| 
        ORRS      A1, A1, A3            ; [DPU_3_PIPE] |977| 
        STR       A1, [SP, #8]          ; [DPU_3_PIPE] |977| 
	.dwpsn	file "../ff.c",line 978,column 7,is_stmt,isa 1
;----------------------------------------------------------------------
; 978 | ST_DWORD(p, val);                                                      
;----------------------------------------------------------------------
        LDRB      A1, [SP, #8]          ; [DPU_3_PIPE] |978| 
        LDR       A2, [SP, #16]         ; [DPU_3_PIPE] |978| 
        STRB      A1, [A2, #0]          ; [DPU_3_PIPE] |978| 
        LDRH      A1, [SP, #8]          ; [DPU_3_PIPE] |978| 
        LDR       A2, [SP, #16]         ; [DPU_3_PIPE] |978| 
        ASRS      A1, A1, #8            ; [DPU_3_PIPE] |978| 
        STRB      A1, [A2, #1]          ; [DPU_3_PIPE] |978| 
        LDRB      A1, [SP, #10]         ; [DPU_3_PIPE] |978| 
        LDR       A2, [SP, #16]         ; [DPU_3_PIPE] |978| 
        STRB      A1, [A2, #2]          ; [DPU_3_PIPE] |978| 
        LDRB      A1, [SP, #11]         ; [DPU_3_PIPE] |978| 
        LDR       A2, [SP, #16]         ; [DPU_3_PIPE] |978| 
        STRB      A1, [A2, #3]          ; [DPU_3_PIPE] |978| 
	.dwpsn	file "../ff.c",line 979,column 7,is_stmt,isa 1
;----------------------------------------------------------------------
; 979 | fs->wflag = 1;                                                         
;----------------------------------------------------------------------
        LDR       A1, [SP, #0]          ; [DPU_3_PIPE] |979| 
        MOVS      A2, #1                ; [DPU_3_PIPE] |979| 
        STRB      A2, [A1, #4]          ; [DPU_3_PIPE] |979| 
	.dwpsn	file "../ff.c",line 980,column 7,is_stmt,isa 1
;----------------------------------------------------------------------
; 980 | break;                                                                 
; 982 | default :                                                              
;----------------------------------------------------------------------
        B         ||$C$L39||            ; [DPU_3_PIPE] |980| 
        ; BRANCH OCCURS {||$C$L39||}     ; [] |980| 
;* --------------------------------------------------------------------------*
||$C$L37||:    
	.dwpsn	file "../ff.c",line 983,column 7,is_stmt,isa 1
;----------------------------------------------------------------------
; 983 | res = FR_INT_ERR;                                                      
;----------------------------------------------------------------------
        MOVS      A1, #2                ; [DPU_3_PIPE] |983| 
        STRB      A1, [SP, #20]         ; [DPU_3_PIPE] |983| 
	.dwpsn	file "../ff.c",line 984,column 5,is_stmt,isa 1
        B         ||$C$L39||            ; [DPU_3_PIPE] |984| 
        ; BRANCH OCCURS {||$C$L39||}     ; [] |984| 
;* --------------------------------------------------------------------------*
||$C$L38||:    
	.dwpsn	file "../ff.c",line 950,column 5,is_stmt,isa 1
        LDR       A1, [SP, #0]          ; [DPU_3_PIPE] |950| 
        LDRB      A1, [A1, #0]          ; [DPU_3_PIPE] |950| 
        SUBS      A1, A1, #1            ; [DPU_3_PIPE] |950| 
        BEQ       ||$C$L30||            ; [DPU_3_PIPE] |950| 
        ; BRANCHCC OCCURS {||$C$L30||}   ; [] |950| 
;* --------------------------------------------------------------------------*
        SUBS      A1, A1, #1            ; [DPU_3_PIPE] |950| 
        BEQ       ||$C$L35||            ; [DPU_3_PIPE] |950| 
        ; BRANCHCC OCCURS {||$C$L35||}   ; [] |950| 
;* --------------------------------------------------------------------------*
        SUBS      A1, A1, #1            ; [DPU_3_PIPE] |950| 
        BEQ       ||$C$L36||            ; [DPU_3_PIPE] |950| 
        ; BRANCHCC OCCURS {||$C$L36||}   ; [] |950| 
;* --------------------------------------------------------------------------*
        B         ||$C$L37||            ; [DPU_3_PIPE] |950| 
        ; BRANCH OCCURS {||$C$L37||}     ; [] |950| 
;* --------------------------------------------------------------------------*
||$C$L39||:    
	.dwpsn	file "../ff.c",line 987,column 3,is_stmt,isa 1
;----------------------------------------------------------------------
; 987 | return res;                                                            
;----------------------------------------------------------------------
        LDRB      A1, [SP, #20]         ; [DPU_3_PIPE] |987| 
	.dwpsn	file "../ff.c",line 988,column 1,is_stmt,isa 1
        ADD       SP, SP, #24           ; [DPU_3_PIPE] 
	.dwcfi	cfa_offset, 8
$C$DW$118	.dwtag  DW_TAG_TI_branch
	.dwattr $C$DW$118, DW_AT_low_pc(0x00)
	.dwattr $C$DW$118, DW_AT_TI_return

        POP       {V1, PC}              ; [DPU_3_PIPE] 
	.dwcfi	cfa_offset, 0
	.dwcfi	restore_reg, 4
        ; BRANCH OCCURS                  ; [] 
	.dwattr $C$DW$104, DW_AT_TI_end_file("../ff.c")
	.dwattr $C$DW$104, DW_AT_TI_end_line(0x3dc)
	.dwattr $C$DW$104, DW_AT_TI_end_column(0x01)
	.dwendentry
	.dwendtag $C$DW$104

	.sect	".text"
	.clink
	.thumbfunc remove_chain
	.thumb

$C$DW$119	.dwtag  DW_TAG_subprogram
	.dwattr $C$DW$119, DW_AT_name("remove_chain")
	.dwattr $C$DW$119, DW_AT_low_pc(remove_chain)
	.dwattr $C$DW$119, DW_AT_high_pc(0x00)
	.dwattr $C$DW$119, DW_AT_TI_symbol_name("remove_chain")
	.dwattr $C$DW$119, DW_AT_type(*$C$DW$T$45)
	.dwattr $C$DW$119, DW_AT_TI_begin_file("../ff.c")
	.dwattr $C$DW$119, DW_AT_TI_begin_line(0x3e7)
	.dwattr $C$DW$119, DW_AT_TI_begin_column(0x09)
	.dwattr $C$DW$119, DW_AT_decl_file("../ff.c")
	.dwattr $C$DW$119, DW_AT_decl_line(0x3e7)
	.dwattr $C$DW$119, DW_AT_decl_column(0x09)
	.dwattr $C$DW$119, DW_AT_TI_max_frame_size(0x18)
	.dwpsn	file "../ff.c",line 1003,column 1,is_stmt,address remove_chain,isa 1

	.dwfde $C$DW$CIE, remove_chain
$C$DW$120	.dwtag  DW_TAG_formal_parameter
	.dwattr $C$DW$120, DW_AT_name("fs")
	.dwattr $C$DW$120, DW_AT_TI_symbol_name("fs")
	.dwattr $C$DW$120, DW_AT_type(*$C$DW$T$25)
	.dwattr $C$DW$120, DW_AT_location[DW_OP_reg0]

$C$DW$121	.dwtag  DW_TAG_formal_parameter
	.dwattr $C$DW$121, DW_AT_name("clst")
	.dwattr $C$DW$121, DW_AT_TI_symbol_name("clst")
	.dwattr $C$DW$121, DW_AT_type(*$C$DW$T$21)
	.dwattr $C$DW$121, DW_AT_location[DW_OP_reg1]

;----------------------------------------------------------------------
; 999 | FRESULT remove_chain (                                                 
; 1000 | FATFS* fs,      /* File system object */                               
; 1001 | DWORD clst      /* Cluster# to remove a chain from */                  
; 1002 | )                                                                      
;----------------------------------------------------------------------

;*****************************************************************************
;* FUNCTION NAME: remove_chain                                               *
;*                                                                           *
;*   Regs Modified     : A1,A2,A3,A4,V9,SP,LR,SR,D0,D0_hi,D1,D1_hi,D2,D2_hi, *
;*                           D3,D3_hi,D4,D4_hi,D5,D5_hi,D6,D6_hi,D7,D7_hi,   *
;*                           FPEXC,FPSCR                                     *
;*   Regs Used         : A1,A2,A3,A4,V9,SP,LR,SR,D0,D0_hi,D1,D1_hi,D2,D2_hi, *
;*                           D3,D3_hi,D4,D4_hi,D5,D5_hi,D6,D6_hi,D7,D7_hi,   *
;*                           FPEXC,FPSCR                                     *
;*   Local Frame Size  : 0 Args + 16 Auto + 4 Save = 20 byte                 *
;*****************************************************************************
remove_chain:
;* --------------------------------------------------------------------------*
	.dwcfi	cfa_offset, 0
        PUSH      {LR}                  ; [DPU_3_PIPE] 
	.dwcfi	cfa_offset, 4
	.dwcfi	save_reg_to_mem, 14, -4
        SUB       SP, SP, #20           ; [DPU_3_PIPE] 
	.dwcfi	cfa_offset, 24
$C$DW$122	.dwtag  DW_TAG_variable
	.dwattr $C$DW$122, DW_AT_name("fs")
	.dwattr $C$DW$122, DW_AT_TI_symbol_name("fs")
	.dwattr $C$DW$122, DW_AT_type(*$C$DW$T$25)
	.dwattr $C$DW$122, DW_AT_location[DW_OP_breg13 0]

$C$DW$123	.dwtag  DW_TAG_variable
	.dwattr $C$DW$123, DW_AT_name("clst")
	.dwattr $C$DW$123, DW_AT_TI_symbol_name("clst")
	.dwattr $C$DW$123, DW_AT_type(*$C$DW$T$21)
	.dwattr $C$DW$123, DW_AT_location[DW_OP_breg13 4]

$C$DW$124	.dwtag  DW_TAG_variable
	.dwattr $C$DW$124, DW_AT_name("nxt")
	.dwattr $C$DW$124, DW_AT_TI_symbol_name("nxt")
	.dwattr $C$DW$124, DW_AT_type(*$C$DW$T$21)
	.dwattr $C$DW$124, DW_AT_location[DW_OP_breg13 8]

$C$DW$125	.dwtag  DW_TAG_variable
	.dwattr $C$DW$125, DW_AT_name("res")
	.dwattr $C$DW$125, DW_AT_TI_symbol_name("res")
	.dwattr $C$DW$125, DW_AT_type(*$C$DW$T$45)
	.dwattr $C$DW$125, DW_AT_location[DW_OP_breg13 12]

;----------------------------------------------------------------------
; 1004 | FRESULT res;                                                           
; 1005 | DWORD nxt;                                                             
; 1006 | #if _USE_TRIM                                                          
; 1007 | DWORD scl = clst, ecl = clst, rt[2];                                   
; 1008 | #endif                                                                 
;----------------------------------------------------------------------
        STR       A2, [SP, #4]          ; [DPU_3_PIPE] |1003| 
        STR       A1, [SP, #0]          ; [DPU_3_PIPE] |1003| 
	.dwpsn	file "../ff.c",line 1010,column 3,is_stmt,isa 1
;----------------------------------------------------------------------
; 1010 | if (clst < 2 || clst >= fs->n_fatent) {  /* Check range */             
;----------------------------------------------------------------------
        LDR       A1, [SP, #4]          ; [DPU_3_PIPE] |1010| 
        CMP       A1, #2                ; [DPU_3_PIPE] |1010| 
        BCC       ||$C$L40||            ; [DPU_3_PIPE] |1010| 
        ; BRANCHCC OCCURS {||$C$L40||}   ; [] |1010| 
;* --------------------------------------------------------------------------*
        LDR       A1, [SP, #0]          ; [DPU_3_PIPE] |1010| 
        LDR       A2, [SP, #4]          ; [DPU_3_PIPE] |1010| 
        LDR       A1, [A1, #24]         ; [DPU_3_PIPE] |1010| 
        CMP       A1, A2                ; [DPU_3_PIPE] |1010| 
        BHI       ||$C$L41||            ; [DPU_3_PIPE] |1010| 
        ; BRANCHCC OCCURS {||$C$L41||}   ; [] |1010| 
;* --------------------------------------------------------------------------*
||$C$L40||:    
	.dwpsn	file "../ff.c",line 1011,column 5,is_stmt,isa 1
;----------------------------------------------------------------------
; 1011 | res = FR_INT_ERR;                                                      
;----------------------------------------------------------------------
        MOVS      A1, #2                ; [DPU_3_PIPE] |1011| 
        STRB      A1, [SP, #12]         ; [DPU_3_PIPE] |1011| 
	.dwpsn	file "../ff.c",line 1013,column 3,is_stmt,isa 1
;----------------------------------------------------------------------
; 1013 | } else {                                                               
;----------------------------------------------------------------------
        B         ||$C$L47||            ; [DPU_3_PIPE] |1013| 
        ; BRANCH OCCURS {||$C$L47||}     ; [] |1013| 
;* --------------------------------------------------------------------------*
||$C$L41||:    
	.dwpsn	file "../ff.c",line 1014,column 5,is_stmt,isa 1
;----------------------------------------------------------------------
; 1014 | res = FR_OK;                                                           
;----------------------------------------------------------------------
        MOVS      A1, #0                ; [DPU_3_PIPE] |1014| 
        STRB      A1, [SP, #12]         ; [DPU_3_PIPE] |1014| 
	.dwpsn	file "../ff.c",line 1015,column 5,is_stmt,isa 1
;----------------------------------------------------------------------
; 1015 | while (clst < fs->n_fatent) {      /* Not a last link? */              
;----------------------------------------------------------------------
        B         ||$C$L46||            ; [DPU_3_PIPE] |1015| 
        ; BRANCH OCCURS {||$C$L46||}     ; [] |1015| 
;* --------------------------------------------------------------------------*
||$C$L42||:    
	.dwpsn	file "../ff.c",line 1016,column 7,is_stmt,isa 1
;----------------------------------------------------------------------
; 1016 | nxt = get_fat(fs, clst);      /* Get cluster status */                 
;----------------------------------------------------------------------
        LDR       A1, [SP, #0]          ; [DPU_3_PIPE] |1016| 
        LDR       A2, [SP, #4]          ; [DPU_3_PIPE] |1016| 
$C$DW$126	.dwtag  DW_TAG_TI_branch
	.dwattr $C$DW$126, DW_AT_low_pc(0x00)
	.dwattr $C$DW$126, DW_AT_name("get_fat")
	.dwattr $C$DW$126, DW_AT_TI_call

        BL        get_fat               ; [DPU_3_PIPE] |1016| 
        ; CALL OCCURS {get_fat }         ; [] |1016| 
        STR       A1, [SP, #8]          ; [DPU_3_PIPE] |1016| 
	.dwpsn	file "../ff.c",line 1017,column 7,is_stmt,isa 1
;----------------------------------------------------------------------
; 1017 | if (nxt == 0) break;        /* Empty cluster? */                       
;----------------------------------------------------------------------
        LDR       A1, [SP, #8]          ; [DPU_3_PIPE] |1017| 
        CMP       A1, #0                ; [DPU_3_PIPE] |1017| 
        BEQ       ||$C$L47||            ; [DPU_3_PIPE] |1017| 
        ; BRANCHCC OCCURS {||$C$L47||}   ; [] |1017| 
;* --------------------------------------------------------------------------*
	.dwpsn	file "../ff.c",line 1017,column 21,is_stmt,isa 1
	.dwpsn	file "../ff.c",line 1018,column 7,is_stmt,isa 1
;----------------------------------------------------------------------
; 1018 | if (nxt == 1) { res = FR_INT_ERR; break; }  /* Internal error? */      
;----------------------------------------------------------------------
        LDR       A1, [SP, #8]          ; [DPU_3_PIPE] |1018| 
        CMP       A1, #1                ; [DPU_3_PIPE] |1018| 
        BNE       ||$C$L43||            ; [DPU_3_PIPE] |1018| 
        ; BRANCHCC OCCURS {||$C$L43||}   ; [] |1018| 
;* --------------------------------------------------------------------------*
	.dwpsn	file "../ff.c",line 1018,column 23,is_stmt,isa 1
        MOVS      A1, #2                ; [DPU_3_PIPE] |1018| 
        STRB      A1, [SP, #12]         ; [DPU_3_PIPE] |1018| 
	.dwpsn	file "../ff.c",line 1018,column 41,is_stmt,isa 1
        B         ||$C$L47||            ; [DPU_3_PIPE] |1018| 
        ; BRANCH OCCURS {||$C$L47||}     ; [] |1018| 
;* --------------------------------------------------------------------------*
||$C$L43||:    
	.dwpsn	file "../ff.c",line 1019,column 7,is_stmt,isa 1
;----------------------------------------------------------------------
; 1019 | if (nxt == 0xFFFFFFFF) { res = FR_DISK_ERR; break; }  /* Disk error? */
;----------------------------------------------------------------------
        LDR       A1, [SP, #8]          ; [DPU_3_PIPE] |1019| 
        CMP       A1, #-1               ; [DPU_3_PIPE] |1019| 
        BNE       ||$C$L44||            ; [DPU_3_PIPE] |1019| 
        ; BRANCHCC OCCURS {||$C$L44||}   ; [] |1019| 
;* --------------------------------------------------------------------------*
	.dwpsn	file "../ff.c",line 1019,column 32,is_stmt,isa 1
        MOVS      A1, #1                ; [DPU_3_PIPE] |1019| 
        STRB      A1, [SP, #12]         ; [DPU_3_PIPE] |1019| 
	.dwpsn	file "../ff.c",line 1019,column 51,is_stmt,isa 1
        B         ||$C$L47||            ; [DPU_3_PIPE] |1019| 
        ; BRANCH OCCURS {||$C$L47||}     ; [] |1019| 
;* --------------------------------------------------------------------------*
||$C$L44||:    
	.dwpsn	file "../ff.c",line 1020,column 7,is_stmt,isa 1
;----------------------------------------------------------------------
; 1020 | res = put_fat(fs, clst, 0);      /* Mark the cluster "empty" */        
;----------------------------------------------------------------------
        LDR       A1, [SP, #0]          ; [DPU_3_PIPE] |1020| 
        LDR       A2, [SP, #4]          ; [DPU_3_PIPE] |1020| 
        MOVS      A3, #0                ; [DPU_3_PIPE] |1020| 
$C$DW$127	.dwtag  DW_TAG_TI_branch
	.dwattr $C$DW$127, DW_AT_low_pc(0x00)
	.dwattr $C$DW$127, DW_AT_name("put_fat")
	.dwattr $C$DW$127, DW_AT_TI_call

        BL        put_fat               ; [DPU_3_PIPE] |1020| 
        ; CALL OCCURS {put_fat }         ; [] |1020| 
        STRB      A1, [SP, #12]         ; [DPU_3_PIPE] |1020| 
	.dwpsn	file "../ff.c",line 1021,column 7,is_stmt,isa 1
;----------------------------------------------------------------------
; 1021 | if (res != FR_OK) break;                                               
;----------------------------------------------------------------------
        LDRB      A1, [SP, #12]         ; [DPU_3_PIPE] |1021| 
        CBNZ      A1, ||$C$L47||        ; [] 
        ; BRANCHCC OCCURS {||$C$L47||}   ; [] |1021| 
;* --------------------------------------------------------------------------*
	.dwpsn	file "../ff.c",line 1021,column 25,is_stmt,isa 1
	.dwpsn	file "../ff.c",line 1022,column 7,is_stmt,isa 1
;----------------------------------------------------------------------
; 1022 | if (fs->free_clust != 0xFFFFFFFF) {  /* Update FSINFO */               
;----------------------------------------------------------------------
        LDR       A1, [SP, #0]          ; [DPU_3_PIPE] |1022| 
        LDR       A1, [A1, #16]         ; [DPU_3_PIPE] |1022| 
        CMP       A1, #-1               ; [DPU_3_PIPE] |1022| 
        BEQ       ||$C$L45||            ; [DPU_3_PIPE] |1022| 
        ; BRANCHCC OCCURS {||$C$L45||}   ; [] |1022| 
;* --------------------------------------------------------------------------*
	.dwpsn	file "../ff.c",line 1023,column 9,is_stmt,isa 1
;----------------------------------------------------------------------
; 1023 | fs->free_clust++;                                                      
;----------------------------------------------------------------------
        LDR       A2, [SP, #0]          ; [DPU_3_PIPE] |1023| 
        LDR       A1, [A2, #16]         ; [DPU_3_PIPE] |1023| 
        ADDS      A1, A1, #1            ; [DPU_3_PIPE] |1023| 
        STR       A1, [A2, #16]         ; [DPU_3_PIPE] |1023| 
	.dwpsn	file "../ff.c",line 1024,column 9,is_stmt,isa 1
;----------------------------------------------------------------------
; 1024 | fs->fsi_flag |= 1;                                                     
; 1026 | #if _USE_TRIM                                                          
; 1027 | if (ecl + 1 == nxt) {  /* Is next cluster contiguous? */               
; 1028 | ecl = nxt;                                                             
; 1029 | } else {        /* End of contiguous clusters */                       
; 1030 | rt[0] = clust2sect(fs, scl);          /* Start sector */               
; 1031 | rt[1] = clust2sect(fs, ecl) + fs->csize - 1;  /* End sector */         
; 1032 | disk_ioctl(fs->drv, CTRL_TRIM, rt);        /* Erase the block */       
; 1033 | scl = ecl = nxt;                                                       
; 1035 | #endif                                                                 
;----------------------------------------------------------------------
        LDR       A2, [SP, #0]          ; [DPU_3_PIPE] |1024| 
        LDRB      A1, [A2, #5]          ; [DPU_3_PIPE] |1024| 
        ORR       A1, A1, #1            ; [DPU_3_PIPE] |1024| 
        STRB      A1, [A2, #5]          ; [DPU_3_PIPE] |1024| 
;* --------------------------------------------------------------------------*
||$C$L45||:    
	.dwpsn	file "../ff.c",line 1036,column 7,is_stmt,isa 1
;----------------------------------------------------------------------
; 1036 | clst = nxt;  /* Next cluster */                                        
;----------------------------------------------------------------------
        LDR       A1, [SP, #8]          ; [DPU_3_PIPE] |1036| 
        STR       A1, [SP, #4]          ; [DPU_3_PIPE] |1036| 
;* --------------------------------------------------------------------------*
;*   BEGIN LOOP ||$C$L46||
;* --------------------------------------------------------------------------*
||$C$L46||:    
	.dwpsn	file "../ff.c",line 1015,column 12,is_stmt,isa 1
        LDR       A1, [SP, #0]          ; [DPU_3_PIPE] |1015| 
        LDR       A2, [SP, #4]          ; [DPU_3_PIPE] |1015| 
        LDR       A1, [A1, #24]         ; [DPU_3_PIPE] |1015| 
        CMP       A1, A2                ; [DPU_3_PIPE] |1015| 
        BHI       ||$C$L42||            ; [DPU_3_PIPE] |1015| 
        ; BRANCHCC OCCURS {||$C$L42||}   ; [] |1015| 
;* --------------------------------------------------------------------------*
||$C$L47||:    
	.dwpsn	file "../ff.c",line 1040,column 3,is_stmt,isa 1
;----------------------------------------------------------------------
; 1040 | return res;                                                            
;----------------------------------------------------------------------
        LDRB      A1, [SP, #12]         ; [DPU_3_PIPE] |1040| 
	.dwpsn	file "../ff.c",line 1041,column 1,is_stmt,isa 1
        ADD       SP, SP, #20           ; [DPU_3_PIPE] 
	.dwcfi	cfa_offset, 4
$C$DW$128	.dwtag  DW_TAG_TI_branch
	.dwattr $C$DW$128, DW_AT_low_pc(0x00)
	.dwattr $C$DW$128, DW_AT_TI_return

        POP       {PC}                  ; [DPU_3_PIPE] 
	.dwcfi	cfa_offset, 0
        ; BRANCH OCCURS                  ; [] 
	.dwattr $C$DW$119, DW_AT_TI_end_file("../ff.c")
	.dwattr $C$DW$119, DW_AT_TI_end_line(0x411)
	.dwattr $C$DW$119, DW_AT_TI_end_column(0x01)
	.dwendentry
	.dwendtag $C$DW$119

	.sect	".text"
	.clink
	.thumbfunc create_chain
	.thumb

$C$DW$129	.dwtag  DW_TAG_subprogram
	.dwattr $C$DW$129, DW_AT_name("create_chain")
	.dwattr $C$DW$129, DW_AT_low_pc(create_chain)
	.dwattr $C$DW$129, DW_AT_high_pc(0x00)
	.dwattr $C$DW$129, DW_AT_TI_symbol_name("create_chain")
	.dwattr $C$DW$129, DW_AT_type(*$C$DW$T$21)
	.dwattr $C$DW$129, DW_AT_TI_begin_file("../ff.c")
	.dwattr $C$DW$129, DW_AT_TI_begin_line(0x41c)
	.dwattr $C$DW$129, DW_AT_TI_begin_column(0x07)
	.dwattr $C$DW$129, DW_AT_decl_file("../ff.c")
	.dwattr $C$DW$129, DW_AT_decl_line(0x41c)
	.dwattr $C$DW$129, DW_AT_decl_column(0x07)
	.dwattr $C$DW$129, DW_AT_TI_max_frame_size(0x20)
	.dwpsn	file "../ff.c",line 1056,column 1,is_stmt,address create_chain,isa 1

	.dwfde $C$DW$CIE, create_chain
$C$DW$130	.dwtag  DW_TAG_formal_parameter
	.dwattr $C$DW$130, DW_AT_name("fs")
	.dwattr $C$DW$130, DW_AT_TI_symbol_name("fs")
	.dwattr $C$DW$130, DW_AT_type(*$C$DW$T$25)
	.dwattr $C$DW$130, DW_AT_location[DW_OP_reg0]

$C$DW$131	.dwtag  DW_TAG_formal_parameter
	.dwattr $C$DW$131, DW_AT_name("clst")
	.dwattr $C$DW$131, DW_AT_TI_symbol_name("clst")
	.dwattr $C$DW$131, DW_AT_type(*$C$DW$T$21)
	.dwattr $C$DW$131, DW_AT_location[DW_OP_reg1]

;----------------------------------------------------------------------
; 1052 | DWORD create_chain (  /* 0:No free cluster, 1:Internal error, 0xFFFFFFF
;     | F:Disk error, >=2:New cluster# */                                      
; 1053 | FATFS* fs,      /* File system object */                               
; 1054 | DWORD clst      /* Cluster# to stretch. 0 means create a new chain. */ 
; 1055 | )                                                                      
;----------------------------------------------------------------------

;*****************************************************************************
;* FUNCTION NAME: create_chain                                               *
;*                                                                           *
;*   Regs Modified     : A1,A2,A3,A4,V9,SP,LR,SR,D0,D0_hi,D1,D1_hi,D2,D2_hi, *
;*                           D3,D3_hi,D4,D4_hi,D5,D5_hi,D6,D6_hi,D7,D7_hi,   *
;*                           FPEXC,FPSCR                                     *
;*   Regs Used         : A1,A2,A3,A4,V9,SP,LR,SR,D0,D0_hi,D1,D1_hi,D2,D2_hi, *
;*                           D3,D3_hi,D4,D4_hi,D5,D5_hi,D6,D6_hi,D7,D7_hi,   *
;*                           FPEXC,FPSCR                                     *
;*   Local Frame Size  : 0 Args + 24 Auto + 4 Save = 28 byte                 *
;*****************************************************************************
create_chain:
;* --------------------------------------------------------------------------*
	.dwcfi	cfa_offset, 0
        PUSH      {LR}                  ; [DPU_3_PIPE] 
	.dwcfi	cfa_offset, 4
	.dwcfi	save_reg_to_mem, 14, -4
        SUB       SP, SP, #28           ; [DPU_3_PIPE] 
	.dwcfi	cfa_offset, 32
$C$DW$132	.dwtag  DW_TAG_variable
	.dwattr $C$DW$132, DW_AT_name("fs")
	.dwattr $C$DW$132, DW_AT_TI_symbol_name("fs")
	.dwattr $C$DW$132, DW_AT_type(*$C$DW$T$25)
	.dwattr $C$DW$132, DW_AT_location[DW_OP_breg13 0]

$C$DW$133	.dwtag  DW_TAG_variable
	.dwattr $C$DW$133, DW_AT_name("clst")
	.dwattr $C$DW$133, DW_AT_TI_symbol_name("clst")
	.dwattr $C$DW$133, DW_AT_type(*$C$DW$T$21)
	.dwattr $C$DW$133, DW_AT_location[DW_OP_breg13 4]

$C$DW$134	.dwtag  DW_TAG_variable
	.dwattr $C$DW$134, DW_AT_name("cs")
	.dwattr $C$DW$134, DW_AT_TI_symbol_name("cs")
	.dwattr $C$DW$134, DW_AT_type(*$C$DW$T$21)
	.dwattr $C$DW$134, DW_AT_location[DW_OP_breg13 8]

$C$DW$135	.dwtag  DW_TAG_variable
	.dwattr $C$DW$135, DW_AT_name("ncl")
	.dwattr $C$DW$135, DW_AT_TI_symbol_name("ncl")
	.dwattr $C$DW$135, DW_AT_type(*$C$DW$T$21)
	.dwattr $C$DW$135, DW_AT_location[DW_OP_breg13 12]

$C$DW$136	.dwtag  DW_TAG_variable
	.dwattr $C$DW$136, DW_AT_name("scl")
	.dwattr $C$DW$136, DW_AT_TI_symbol_name("scl")
	.dwattr $C$DW$136, DW_AT_type(*$C$DW$T$21)
	.dwattr $C$DW$136, DW_AT_location[DW_OP_breg13 16]

$C$DW$137	.dwtag  DW_TAG_variable
	.dwattr $C$DW$137, DW_AT_name("res")
	.dwattr $C$DW$137, DW_AT_TI_symbol_name("res")
	.dwattr $C$DW$137, DW_AT_type(*$C$DW$T$45)
	.dwattr $C$DW$137, DW_AT_location[DW_OP_breg13 20]

;----------------------------------------------------------------------
; 1057 | DWORD cs, ncl, scl;                                                    
; 1058 | FRESULT res;                                                           
;----------------------------------------------------------------------
        STR       A2, [SP, #4]          ; [DPU_3_PIPE] |1056| 
        STR       A1, [SP, #0]          ; [DPU_3_PIPE] |1056| 
	.dwpsn	file "../ff.c",line 1061,column 3,is_stmt,isa 1
;----------------------------------------------------------------------
; 1061 | if (clst == 0) {    /* Create a new chain */                           
;----------------------------------------------------------------------
        LDR       A1, [SP, #4]          ; [DPU_3_PIPE] |1061| 
        CBNZ      A1, ||$C$L49||        ; [] 
        ; BRANCHCC OCCURS {||$C$L49||}   ; [] |1061| 
;* --------------------------------------------------------------------------*
	.dwpsn	file "../ff.c",line 1062,column 5,is_stmt,isa 1
;----------------------------------------------------------------------
; 1062 | scl = fs->last_clust;      /* Get suggested start point */             
;----------------------------------------------------------------------
        LDR       A1, [SP, #0]          ; [DPU_3_PIPE] |1062| 
        LDR       A1, [A1, #12]         ; [DPU_3_PIPE] |1062| 
        STR       A1, [SP, #16]         ; [DPU_3_PIPE] |1062| 
	.dwpsn	file "../ff.c",line 1063,column 5,is_stmt,isa 1
;----------------------------------------------------------------------
; 1063 | if (!scl || scl >= fs->n_fatent) scl = 1;                              
;----------------------------------------------------------------------
        LDR       A1, [SP, #16]         ; [DPU_3_PIPE] |1063| 
        CBZ       A1, ||$C$L48||        ; [] 
        ; BRANCHCC OCCURS {||$C$L48||}   ; [] |1063| 
;* --------------------------------------------------------------------------*
        LDR       A1, [SP, #0]          ; [DPU_3_PIPE] |1063| 
        LDR       A2, [SP, #16]         ; [DPU_3_PIPE] |1063| 
        LDR       A1, [A1, #24]         ; [DPU_3_PIPE] |1063| 
        CMP       A1, A2                ; [DPU_3_PIPE] |1063| 
        BHI       ||$C$L53||            ; [DPU_3_PIPE] |1063| 
        ; BRANCHCC OCCURS {||$C$L53||}   ; [] |1063| 
;* --------------------------------------------------------------------------*
||$C$L48||:    
	.dwpsn	file "../ff.c",line 1063,column 38,is_stmt,isa 1
        MOVS      A1, #1                ; [DPU_3_PIPE] |1063| 
        STR       A1, [SP, #16]         ; [DPU_3_PIPE] |1063| 
	.dwpsn	file "../ff.c",line 1064,column 3,is_stmt,isa 1
;----------------------------------------------------------------------
; 1065 | else {          /* Stretch the current chain */                        
;----------------------------------------------------------------------
        B         ||$C$L53||            ; [DPU_3_PIPE] |1064| 
        ; BRANCH OCCURS {||$C$L53||}     ; [] |1064| 
;* --------------------------------------------------------------------------*
||$C$L49||:    
	.dwpsn	file "../ff.c",line 1066,column 5,is_stmt,isa 1
;----------------------------------------------------------------------
; 1066 | cs = get_fat(fs, clst);      /* Check the cluster status */            
;----------------------------------------------------------------------
        LDR       A1, [SP, #0]          ; [DPU_3_PIPE] |1066| 
        LDR       A2, [SP, #4]          ; [DPU_3_PIPE] |1066| 
$C$DW$138	.dwtag  DW_TAG_TI_branch
	.dwattr $C$DW$138, DW_AT_low_pc(0x00)
	.dwattr $C$DW$138, DW_AT_name("get_fat")
	.dwattr $C$DW$138, DW_AT_TI_call

        BL        get_fat               ; [DPU_3_PIPE] |1066| 
        ; CALL OCCURS {get_fat }         ; [] |1066| 
        STR       A1, [SP, #8]          ; [DPU_3_PIPE] |1066| 
	.dwpsn	file "../ff.c",line 1067,column 5,is_stmt,isa 1
;----------------------------------------------------------------------
; 1067 | if (cs < 2) return 1;      /* Invalid value */                         
;----------------------------------------------------------------------
        LDR       A1, [SP, #8]          ; [DPU_3_PIPE] |1067| 
        CMP       A1, #2                ; [DPU_3_PIPE] |1067| 
        BCS       ||$C$L50||            ; [DPU_3_PIPE] |1067| 
        ; BRANCHCC OCCURS {||$C$L50||}   ; [] |1067| 
;* --------------------------------------------------------------------------*
	.dwpsn	file "../ff.c",line 1067,column 17,is_stmt,isa 1
        MOVS      A1, #1                ; [DPU_3_PIPE] |1067| 
        B         ||$C$L64||            ; [DPU_3_PIPE] |1067| 
        ; BRANCH OCCURS {||$C$L64||}     ; [] |1067| 
;* --------------------------------------------------------------------------*
||$C$L50||:    
	.dwpsn	file "../ff.c",line 1068,column 5,is_stmt,isa 1
;----------------------------------------------------------------------
; 1068 | if (cs == 0xFFFFFFFF) return cs;  /* A disk error occurred */          
;----------------------------------------------------------------------
        LDR       A1, [SP, #8]          ; [DPU_3_PIPE] |1068| 
        CMP       A1, #-1               ; [DPU_3_PIPE] |1068| 
        BNE       ||$C$L51||            ; [DPU_3_PIPE] |1068| 
        ; BRANCHCC OCCURS {||$C$L51||}   ; [] |1068| 
;* --------------------------------------------------------------------------*
	.dwpsn	file "../ff.c",line 1068,column 27,is_stmt,isa 1
        LDR       A1, [SP, #8]          ; [DPU_3_PIPE] |1068| 
        B         ||$C$L64||            ; [DPU_3_PIPE] |1068| 
        ; BRANCH OCCURS {||$C$L64||}     ; [] |1068| 
;* --------------------------------------------------------------------------*
||$C$L51||:    
	.dwpsn	file "../ff.c",line 1069,column 5,is_stmt,isa 1
;----------------------------------------------------------------------
; 1069 | if (cs < fs->n_fatent) return cs;  /* It is already followed by next cl
;     | uster */                                                               
;----------------------------------------------------------------------
        LDR       A1, [SP, #0]          ; [DPU_3_PIPE] |1069| 
        LDR       A2, [SP, #8]          ; [DPU_3_PIPE] |1069| 
        LDR       A1, [A1, #24]         ; [DPU_3_PIPE] |1069| 
        CMP       A1, A2                ; [DPU_3_PIPE] |1069| 
        BLS       ||$C$L52||            ; [DPU_3_PIPE] |1069| 
        ; BRANCHCC OCCURS {||$C$L52||}   ; [] |1069| 
;* --------------------------------------------------------------------------*
	.dwpsn	file "../ff.c",line 1069,column 28,is_stmt,isa 1
        LDR       A1, [SP, #8]          ; [DPU_3_PIPE] |1069| 
        B         ||$C$L64||            ; [DPU_3_PIPE] |1069| 
        ; BRANCH OCCURS {||$C$L64||}     ; [] |1069| 
;* --------------------------------------------------------------------------*
||$C$L52||:    
	.dwpsn	file "../ff.c",line 1070,column 5,is_stmt,isa 1
;----------------------------------------------------------------------
; 1070 | scl = clst;                                                            
;----------------------------------------------------------------------
        LDR       A1, [SP, #4]          ; [DPU_3_PIPE] |1070| 
        STR       A1, [SP, #16]         ; [DPU_3_PIPE] |1070| 
;* --------------------------------------------------------------------------*
||$C$L53||:    
	.dwpsn	file "../ff.c",line 1073,column 3,is_stmt,isa 1
;----------------------------------------------------------------------
; 1073 | ncl = scl;        /* Start cluster */                                  
; 1074 | for (;;) {                                                             
;----------------------------------------------------------------------
        LDR       A1, [SP, #16]         ; [DPU_3_PIPE] |1073| 
        STR       A1, [SP, #12]         ; [DPU_3_PIPE] |1073| 
;* --------------------------------------------------------------------------*
;*   BEGIN LOOP ||$C$L54||
;*
;*   Loop source line                : 1074
;*   Loop closing brace source line  : 1085
;*   Known Minimum Trip Count        : 1
;*   Known Maximum Trip Count        : 4294967295
;*   Known Max Trip Count Factor     : 1
;* --------------------------------------------------------------------------*
||$C$L54||:    
	.dwpsn	file "../ff.c",line 1075,column 5,is_stmt,isa 1
;----------------------------------------------------------------------
; 1075 | ncl++;              /* Next cluster */                                 
;----------------------------------------------------------------------
        LDR       A1, [SP, #12]         ; [DPU_3_PIPE] |1075| 
        ADDS      A1, A1, #1            ; [DPU_3_PIPE] |1075| 
        STR       A1, [SP, #12]         ; [DPU_3_PIPE] |1075| 
	.dwpsn	file "../ff.c",line 1076,column 5,is_stmt,isa 1
;----------------------------------------------------------------------
; 1076 | if (ncl >= fs->n_fatent) {    /* Check wrap around */                  
;----------------------------------------------------------------------
        LDR       A1, [SP, #0]          ; [DPU_3_PIPE] |1076| 
        LDR       A2, [SP, #12]         ; [DPU_3_PIPE] |1076| 
        LDR       A1, [A1, #24]         ; [DPU_3_PIPE] |1076| 
        CMP       A1, A2                ; [DPU_3_PIPE] |1076| 
        BHI       ||$C$L55||            ; [DPU_3_PIPE] |1076| 
        ; BRANCHCC OCCURS {||$C$L55||}   ; [] |1076| 
;* --------------------------------------------------------------------------*
	.dwpsn	file "../ff.c",line 1077,column 7,is_stmt,isa 1
;----------------------------------------------------------------------
; 1077 | ncl = 2;                                                               
;----------------------------------------------------------------------
        MOVS      A1, #2                ; [DPU_3_PIPE] |1077| 
        STR       A1, [SP, #12]         ; [DPU_3_PIPE] |1077| 
	.dwpsn	file "../ff.c",line 1078,column 7,is_stmt,isa 1
;----------------------------------------------------------------------
; 1078 | if (ncl > scl) return 0;  /* No free cluster */                        
;----------------------------------------------------------------------
        LDR       A1, [SP, #16]         ; [DPU_3_PIPE] |1078| 
        LDR       A2, [SP, #12]         ; [DPU_3_PIPE] |1078| 
        CMP       A1, A2                ; [DPU_3_PIPE] |1078| 
        BCS       ||$C$L55||            ; [DPU_3_PIPE] |1078| 
        ; BRANCHCC OCCURS {||$C$L55||}   ; [] |1078| 
;* --------------------------------------------------------------------------*
	.dwpsn	file "../ff.c",line 1078,column 22,is_stmt,isa 1
        MOVS      A1, #0                ; [DPU_3_PIPE] |1078| 
        B         ||$C$L64||            ; [DPU_3_PIPE] |1078| 
        ; BRANCH OCCURS {||$C$L64||}     ; [] |1078| 
;* --------------------------------------------------------------------------*
||$C$L55||:    
	.dwpsn	file "../ff.c",line 1080,column 5,is_stmt,isa 1
;----------------------------------------------------------------------
; 1080 | cs = get_fat(fs, ncl);      /* Get the cluster status */               
;----------------------------------------------------------------------
        LDR       A1, [SP, #0]          ; [DPU_3_PIPE] |1080| 
        LDR       A2, [SP, #12]         ; [DPU_3_PIPE] |1080| 
$C$DW$139	.dwtag  DW_TAG_TI_branch
	.dwattr $C$DW$139, DW_AT_low_pc(0x00)
	.dwattr $C$DW$139, DW_AT_name("get_fat")
	.dwattr $C$DW$139, DW_AT_TI_call

        BL        get_fat               ; [DPU_3_PIPE] |1080| 
        ; CALL OCCURS {get_fat }         ; [] |1080| 
        STR       A1, [SP, #8]          ; [DPU_3_PIPE] |1080| 
	.dwpsn	file "../ff.c",line 1081,column 5,is_stmt,isa 1
;----------------------------------------------------------------------
; 1081 | if (cs == 0) break;        /* Found a free cluster */                  
;----------------------------------------------------------------------
        LDR       A1, [SP, #8]          ; [DPU_3_PIPE] |1081| 
        CBZ       A1, ||$C$L58||        ; [] 
        ; BRANCHCC OCCURS {||$C$L58||}   ; [] |1081| 
;* --------------------------------------------------------------------------*
	.dwpsn	file "../ff.c",line 1081,column 18,is_stmt,isa 1
	.dwpsn	file "../ff.c",line 1082,column 5,is_stmt,isa 1
;----------------------------------------------------------------------
; 1082 | if (cs == 0xFFFFFFFF || cs == 1)/* An error occurred */                
;----------------------------------------------------------------------
        LDR       A1, [SP, #8]          ; [DPU_3_PIPE] |1082| 
        CMP       A1, #-1               ; [DPU_3_PIPE] |1082| 
        BEQ       ||$C$L56||            ; [DPU_3_PIPE] |1082| 
        ; BRANCHCC OCCURS {||$C$L56||}   ; [] |1082| 
;* --------------------------------------------------------------------------*
        LDR       A1, [SP, #8]          ; [DPU_3_PIPE] |1082| 
        CMP       A1, #1                ; [DPU_3_PIPE] |1082| 
        BNE       ||$C$L57||            ; [DPU_3_PIPE] |1082| 
        ; BRANCHCC OCCURS {||$C$L57||}   ; [] |1082| 
;* --------------------------------------------------------------------------*
||$C$L56||:    
	.dwpsn	file "../ff.c",line 1083,column 7,is_stmt,isa 1
;----------------------------------------------------------------------
; 1083 | return cs;                                                             
;----------------------------------------------------------------------
        LDR       A1, [SP, #8]          ; [DPU_3_PIPE] |1083| 
        B         ||$C$L64||            ; [DPU_3_PIPE] |1083| 
        ; BRANCH OCCURS {||$C$L64||}     ; [] |1083| 
;* --------------------------------------------------------------------------*
||$C$L57||:    
	.dwpsn	file "../ff.c",line 1084,column 5,is_stmt,isa 1
;----------------------------------------------------------------------
; 1084 | if (ncl == scl) return 0;    /* No free cluster */                     
;----------------------------------------------------------------------
        LDR       A1, [SP, #16]         ; [DPU_3_PIPE] |1084| 
        LDR       A2, [SP, #12]         ; [DPU_3_PIPE] |1084| 
        CMP       A1, A2                ; [DPU_3_PIPE] |1084| 
        BNE       ||$C$L54||            ; [DPU_3_PIPE] |1084| 
        ; BRANCHCC OCCURS {||$C$L54||}   ; [] |1084| 
;* --------------------------------------------------------------------------*
	.dwpsn	file "../ff.c",line 1084,column 21,is_stmt,isa 1
        MOVS      A1, #0                ; [DPU_3_PIPE] |1084| 
        B         ||$C$L64||            ; [DPU_3_PIPE] |1084| 
        ; BRANCH OCCURS {||$C$L64||}     ; [] |1084| 
;* --------------------------------------------------------------------------*
;* --------------------------------------------------------------------------*
||$C$L58||:    
	.dwpsn	file "../ff.c",line 1087,column 3,is_stmt,isa 1
;----------------------------------------------------------------------
; 1087 | res = put_fat(fs, ncl, 0x0FFFFFFF);  /* Mark the new cluster "last link
;     | " */                                                                   
;----------------------------------------------------------------------
        LDR       A1, [SP, #0]          ; [DPU_3_PIPE] |1087| 
        LDR       A2, [SP, #12]         ; [DPU_3_PIPE] |1087| 
        MVN       A3, #-268435456       ; [DPU_3_PIPE] |1087| 
$C$DW$140	.dwtag  DW_TAG_TI_branch
	.dwattr $C$DW$140, DW_AT_low_pc(0x00)
	.dwattr $C$DW$140, DW_AT_name("put_fat")
	.dwattr $C$DW$140, DW_AT_TI_call

        BL        put_fat               ; [DPU_3_PIPE] |1087| 
        ; CALL OCCURS {put_fat }         ; [] |1087| 
        STRB      A1, [SP, #20]         ; [DPU_3_PIPE] |1087| 
	.dwpsn	file "../ff.c",line 1088,column 3,is_stmt,isa 1
;----------------------------------------------------------------------
; 1088 | if (res == FR_OK && clst != 0) {                                       
;----------------------------------------------------------------------
        LDRB      A1, [SP, #20]         ; [DPU_3_PIPE] |1088| 
        CBNZ      A1, ||$C$L59||        ; [] 
        ; BRANCHCC OCCURS {||$C$L59||}   ; [] |1088| 
;* --------------------------------------------------------------------------*
        LDR       A1, [SP, #4]          ; [DPU_3_PIPE] |1088| 
        CBZ       A1, ||$C$L59||        ; [] 
        ; BRANCHCC OCCURS {||$C$L59||}   ; [] |1088| 
;* --------------------------------------------------------------------------*
	.dwpsn	file "../ff.c",line 1089,column 5,is_stmt,isa 1
;----------------------------------------------------------------------
; 1089 | res = put_fat(fs, clst, ncl);  /* Link it to the previous one if needed
;     |  */                                                                    
;----------------------------------------------------------------------
        LDR       A1, [SP, #0]          ; [DPU_3_PIPE] |1089| 
        LDR       A2, [SP, #4]          ; [DPU_3_PIPE] |1089| 
        LDR       A3, [SP, #12]         ; [DPU_3_PIPE] |1089| 
$C$DW$141	.dwtag  DW_TAG_TI_branch
	.dwattr $C$DW$141, DW_AT_low_pc(0x00)
	.dwattr $C$DW$141, DW_AT_name("put_fat")
	.dwattr $C$DW$141, DW_AT_TI_call

        BL        put_fat               ; [DPU_3_PIPE] |1089| 
        ; CALL OCCURS {put_fat }         ; [] |1089| 
        STRB      A1, [SP, #20]         ; [DPU_3_PIPE] |1089| 
;* --------------------------------------------------------------------------*
||$C$L59||:    
	.dwpsn	file "../ff.c",line 1091,column 3,is_stmt,isa 1
;----------------------------------------------------------------------
; 1091 | if (res == FR_OK) {                                                    
;----------------------------------------------------------------------
        LDRB      A1, [SP, #20]         ; [DPU_3_PIPE] |1091| 
        CBNZ      A1, ||$C$L60||        ; [] 
        ; BRANCHCC OCCURS {||$C$L60||}   ; [] |1091| 
;* --------------------------------------------------------------------------*
	.dwpsn	file "../ff.c",line 1092,column 5,is_stmt,isa 1
;----------------------------------------------------------------------
; 1092 | fs->last_clust = ncl;      /* Update FSINFO */                         
;----------------------------------------------------------------------
        LDR       A1, [SP, #12]         ; [DPU_3_PIPE] |1092| 
        LDR       A2, [SP, #0]          ; [DPU_3_PIPE] |1092| 
        STR       A1, [A2, #12]         ; [DPU_3_PIPE] |1092| 
	.dwpsn	file "../ff.c",line 1093,column 5,is_stmt,isa 1
;----------------------------------------------------------------------
; 1093 | if (fs->free_clust != 0xFFFFFFFF) {                                    
;----------------------------------------------------------------------
        LDR       A1, [SP, #0]          ; [DPU_3_PIPE] |1093| 
        LDR       A1, [A1, #16]         ; [DPU_3_PIPE] |1093| 
        CMP       A1, #-1               ; [DPU_3_PIPE] |1093| 
        BEQ       ||$C$L63||            ; [DPU_3_PIPE] |1093| 
        ; BRANCHCC OCCURS {||$C$L63||}   ; [] |1093| 
;* --------------------------------------------------------------------------*
	.dwpsn	file "../ff.c",line 1094,column 7,is_stmt,isa 1
;----------------------------------------------------------------------
; 1094 | fs->free_clust--;                                                      
;----------------------------------------------------------------------
        LDR       A2, [SP, #0]          ; [DPU_3_PIPE] |1094| 
        LDR       A1, [A2, #16]         ; [DPU_3_PIPE] |1094| 
        SUBS      A1, A1, #1            ; [DPU_3_PIPE] |1094| 
        STR       A1, [A2, #16]         ; [DPU_3_PIPE] |1094| 
	.dwpsn	file "../ff.c",line 1095,column 7,is_stmt,isa 1
;----------------------------------------------------------------------
; 1095 | fs->fsi_flag |= 1;                                                     
;----------------------------------------------------------------------
        LDR       A2, [SP, #0]          ; [DPU_3_PIPE] |1095| 
        LDRB      A1, [A2, #5]          ; [DPU_3_PIPE] |1095| 
        ORR       A1, A1, #1            ; [DPU_3_PIPE] |1095| 
        STRB      A1, [A2, #5]          ; [DPU_3_PIPE] |1095| 
	.dwpsn	file "../ff.c",line 1097,column 3,is_stmt,isa 1
;----------------------------------------------------------------------
; 1097 | } else {                                                               
;----------------------------------------------------------------------
        B         ||$C$L63||            ; [DPU_3_PIPE] |1097| 
        ; BRANCH OCCURS {||$C$L63||}     ; [] |1097| 
;* --------------------------------------------------------------------------*
||$C$L60||:    
	.dwpsn	file "../ff.c",line 1098,column 5,is_stmt,isa 1
;----------------------------------------------------------------------
; 1098 | ncl = (res == FR_DISK_ERR) ? 0xFFFFFFFF : 1;                           
;----------------------------------------------------------------------
        LDRB      A1, [SP, #20]         ; [DPU_3_PIPE] |1098| 
        CMP       A1, #1                ; [DPU_3_PIPE] |1098| 
        BNE       ||$C$L61||            ; [DPU_3_PIPE] |1098| 
        ; BRANCHCC OCCURS {||$C$L61||}   ; [] |1098| 
;* --------------------------------------------------------------------------*
        MOV       A1, #-1               ; [DPU_3_PIPE] |1098| 
        B         ||$C$L62||            ; [DPU_3_PIPE] |1098| 
        ; BRANCH OCCURS {||$C$L62||}     ; [] |1098| 
;* --------------------------------------------------------------------------*
||$C$L61||:    
        MOVS      A1, #1                ; [DPU_3_PIPE] |1098| 
;* --------------------------------------------------------------------------*
||$C$L62||:    
        STR       A1, [SP, #12]         ; [DPU_3_PIPE] |1098| 
;* --------------------------------------------------------------------------*
||$C$L63||:    
	.dwpsn	file "../ff.c",line 1101,column 3,is_stmt,isa 1
;----------------------------------------------------------------------
; 1101 | return ncl;    /* Return new cluster number or error code */           
;----------------------------------------------------------------------
        LDR       A1, [SP, #12]         ; [DPU_3_PIPE] |1101| 
;* --------------------------------------------------------------------------*
||$C$L64||:    
	.dwpsn	file "../ff.c",line 1102,column 1,is_stmt,isa 1
        ADD       SP, SP, #28           ; [DPU_3_PIPE] 
	.dwcfi	cfa_offset, 4
$C$DW$142	.dwtag  DW_TAG_TI_branch
	.dwattr $C$DW$142, DW_AT_low_pc(0x00)
	.dwattr $C$DW$142, DW_AT_TI_return

        POP       {PC}                  ; [DPU_3_PIPE] 
	.dwcfi	cfa_offset, 0
        ; BRANCH OCCURS                  ; [] 
	.dwattr $C$DW$129, DW_AT_TI_end_file("../ff.c")
	.dwattr $C$DW$129, DW_AT_TI_end_line(0x44e)
	.dwattr $C$DW$129, DW_AT_TI_end_column(0x01)
	.dwendentry
	.dwendtag $C$DW$129

	.sect	".text"
	.clink
	.thumbfunc dir_sdi
	.thumb

$C$DW$143	.dwtag  DW_TAG_subprogram
	.dwattr $C$DW$143, DW_AT_name("dir_sdi")
	.dwattr $C$DW$143, DW_AT_low_pc(dir_sdi)
	.dwattr $C$DW$143, DW_AT_high_pc(0x00)
	.dwattr $C$DW$143, DW_AT_TI_symbol_name("dir_sdi")
	.dwattr $C$DW$143, DW_AT_type(*$C$DW$T$45)
	.dwattr $C$DW$143, DW_AT_TI_begin_file("../ff.c")
	.dwattr $C$DW$143, DW_AT_TI_begin_line(0x476)
	.dwattr $C$DW$143, DW_AT_TI_begin_column(0x09)
	.dwattr $C$DW$143, DW_AT_decl_file("../ff.c")
	.dwattr $C$DW$143, DW_AT_decl_line(0x476)
	.dwattr $C$DW$143, DW_AT_decl_column(0x09)
	.dwattr $C$DW$143, DW_AT_TI_max_frame_size(0x18)
	.dwpsn	file "../ff.c",line 1146,column 1,is_stmt,address dir_sdi,isa 1

	.dwfde $C$DW$CIE, dir_sdi
$C$DW$144	.dwtag  DW_TAG_formal_parameter
	.dwattr $C$DW$144, DW_AT_name("dp")
	.dwattr $C$DW$144, DW_AT_TI_symbol_name("dp")
	.dwattr $C$DW$144, DW_AT_type(*$C$DW$T$53)
	.dwattr $C$DW$144, DW_AT_location[DW_OP_reg0]

$C$DW$145	.dwtag  DW_TAG_formal_parameter
	.dwattr $C$DW$145, DW_AT_name("idx")
	.dwattr $C$DW$145, DW_AT_TI_symbol_name("idx")
	.dwattr $C$DW$145, DW_AT_type(*$C$DW$T$35)
	.dwattr $C$DW$145, DW_AT_location[DW_OP_reg1]

;----------------------------------------------------------------------
; 1142 | FRESULT dir_sdi (                                                      
; 1143 | DIR* dp,    /* Pointer to directory object */                          
; 1144 | UINT idx    /* Index of directory table */                             
; 1145 | )                                                                      
;----------------------------------------------------------------------

;*****************************************************************************
;* FUNCTION NAME: dir_sdi                                                    *
;*                                                                           *
;*   Regs Modified     : A1,A2,A3,A4,V9,SP,LR,SR,D0,D0_hi,D1,D1_hi,D2,D2_hi, *
;*                           D3,D3_hi,D4,D4_hi,D5,D5_hi,D6,D6_hi,D7,D7_hi,   *
;*                           FPEXC,FPSCR                                     *
;*   Regs Used         : A1,A2,A3,A4,V9,SP,LR,SR,D0,D0_hi,D1,D1_hi,D2,D2_hi, *
;*                           D3,D3_hi,D4,D4_hi,D5,D5_hi,D6,D6_hi,D7,D7_hi,   *
;*                           FPEXC,FPSCR                                     *
;*   Local Frame Size  : 0 Args + 20 Auto + 4 Save = 24 byte                 *
;*****************************************************************************
dir_sdi:
;* --------------------------------------------------------------------------*
	.dwcfi	cfa_offset, 0
        PUSH      {LR}                  ; [DPU_3_PIPE] 
	.dwcfi	cfa_offset, 4
	.dwcfi	save_reg_to_mem, 14, -4
        SUB       SP, SP, #20           ; [DPU_3_PIPE] 
	.dwcfi	cfa_offset, 24
$C$DW$146	.dwtag  DW_TAG_variable
	.dwattr $C$DW$146, DW_AT_name("dp")
	.dwattr $C$DW$146, DW_AT_TI_symbol_name("dp")
	.dwattr $C$DW$146, DW_AT_type(*$C$DW$T$53)
	.dwattr $C$DW$146, DW_AT_location[DW_OP_breg13 0]

$C$DW$147	.dwtag  DW_TAG_variable
	.dwattr $C$DW$147, DW_AT_name("idx")
	.dwattr $C$DW$147, DW_AT_TI_symbol_name("idx")
	.dwattr $C$DW$147, DW_AT_type(*$C$DW$T$35)
	.dwattr $C$DW$147, DW_AT_location[DW_OP_breg13 4]

$C$DW$148	.dwtag  DW_TAG_variable
	.dwattr $C$DW$148, DW_AT_name("clst")
	.dwattr $C$DW$148, DW_AT_TI_symbol_name("clst")
	.dwattr $C$DW$148, DW_AT_type(*$C$DW$T$21)
	.dwattr $C$DW$148, DW_AT_location[DW_OP_breg13 8]

$C$DW$149	.dwtag  DW_TAG_variable
	.dwattr $C$DW$149, DW_AT_name("sect")
	.dwattr $C$DW$149, DW_AT_TI_symbol_name("sect")
	.dwattr $C$DW$149, DW_AT_type(*$C$DW$T$21)
	.dwattr $C$DW$149, DW_AT_location[DW_OP_breg13 12]

$C$DW$150	.dwtag  DW_TAG_variable
	.dwattr $C$DW$150, DW_AT_name("ic")
	.dwattr $C$DW$150, DW_AT_TI_symbol_name("ic")
	.dwattr $C$DW$150, DW_AT_type(*$C$DW$T$35)
	.dwattr $C$DW$150, DW_AT_location[DW_OP_breg13 16]

;----------------------------------------------------------------------
; 1147 | DWORD clst, sect;                                                      
; 1148 | UINT ic;                                                               
;----------------------------------------------------------------------
        STR       A2, [SP, #4]          ; [DPU_3_PIPE] |1146| 
        STR       A1, [SP, #0]          ; [DPU_3_PIPE] |1146| 
	.dwpsn	file "../ff.c",line 1151,column 3,is_stmt,isa 1
;----------------------------------------------------------------------
; 1151 | dp->index = (WORD)idx;  /* Current index */                            
;----------------------------------------------------------------------
        LDRH      A1, [SP, #4]          ; [DPU_3_PIPE] |1151| 
        LDR       A2, [SP, #0]          ; [DPU_3_PIPE] |1151| 
        STRH      A1, [A2, #6]          ; [DPU_3_PIPE] |1151| 
	.dwpsn	file "../ff.c",line 1152,column 3,is_stmt,isa 1
;----------------------------------------------------------------------
; 1152 | clst = dp->sclust;    /* Table start cluster (0:root) */               
;----------------------------------------------------------------------
        LDR       A1, [SP, #0]          ; [DPU_3_PIPE] |1152| 
        LDR       A1, [A1, #8]          ; [DPU_3_PIPE] |1152| 
        STR       A1, [SP, #8]          ; [DPU_3_PIPE] |1152| 
	.dwpsn	file "../ff.c",line 1153,column 3,is_stmt,isa 1
;----------------------------------------------------------------------
; 1153 | if (clst == 1 || clst >= dp->fs->n_fatent)  /* Check start cluster rang
;     | e */                                                                   
;----------------------------------------------------------------------
        LDR       A1, [SP, #8]          ; [DPU_3_PIPE] |1153| 
        CMP       A1, #1                ; [DPU_3_PIPE] |1153| 
        BEQ       ||$C$L65||            ; [DPU_3_PIPE] |1153| 
        ; BRANCHCC OCCURS {||$C$L65||}   ; [] |1153| 
;* --------------------------------------------------------------------------*
        LDR       A1, [SP, #0]          ; [DPU_3_PIPE] |1153| 
        LDR       A1, [A1, #0]          ; [DPU_3_PIPE] |1153| 
        LDR       A2, [SP, #8]          ; [DPU_3_PIPE] |1153| 
        LDR       A1, [A1, #24]         ; [DPU_3_PIPE] |1153| 
        CMP       A1, A2                ; [DPU_3_PIPE] |1153| 
        BHI       ||$C$L66||            ; [DPU_3_PIPE] |1153| 
        ; BRANCHCC OCCURS {||$C$L66||}   ; [] |1153| 
;* --------------------------------------------------------------------------*
||$C$L65||:    
	.dwpsn	file "../ff.c",line 1154,column 5,is_stmt,isa 1
;----------------------------------------------------------------------
; 1154 | return FR_INT_ERR;                                                     
;----------------------------------------------------------------------
        MOVS      A1, #2                ; [DPU_3_PIPE] |1154| 
        B         ||$C$L77||            ; [DPU_3_PIPE] |1154| 
        ; BRANCH OCCURS {||$C$L77||}     ; [] |1154| 
;* --------------------------------------------------------------------------*
||$C$L66||:    
	.dwpsn	file "../ff.c",line 1155,column 3,is_stmt,isa 1
;----------------------------------------------------------------------
; 1155 | if (!clst && dp->fs->fs_type == FS_FAT32)  /* Replace cluster# 0 with r
;     | oot cluster# if in FAT32 */                                            
;----------------------------------------------------------------------
        LDR       A1, [SP, #8]          ; [DPU_3_PIPE] |1155| 
        CBNZ      A1, ||$C$L67||        ; [] 
        ; BRANCHCC OCCURS {||$C$L67||}   ; [] |1155| 
;* --------------------------------------------------------------------------*
        LDR       A1, [SP, #0]          ; [DPU_3_PIPE] |1155| 
        LDR       A1, [A1, #0]          ; [DPU_3_PIPE] |1155| 
        LDRB      A1, [A1, #0]          ; [DPU_3_PIPE] |1155| 
        CMP       A1, #3                ; [DPU_3_PIPE] |1155| 
        BNE       ||$C$L67||            ; [DPU_3_PIPE] |1155| 
        ; BRANCHCC OCCURS {||$C$L67||}   ; [] |1155| 
;* --------------------------------------------------------------------------*
	.dwpsn	file "../ff.c",line 1156,column 5,is_stmt,isa 1
;----------------------------------------------------------------------
; 1156 | clst = dp->fs->dirbase;                                                
;----------------------------------------------------------------------
        LDR       A1, [SP, #0]          ; [DPU_3_PIPE] |1156| 
        LDR       A1, [A1, #0]          ; [DPU_3_PIPE] |1156| 
        LDR       A1, [A1, #40]         ; [DPU_3_PIPE] |1156| 
        STR       A1, [SP, #8]          ; [DPU_3_PIPE] |1156| 
;* --------------------------------------------------------------------------*
||$C$L67||:    
	.dwpsn	file "../ff.c",line 1158,column 3,is_stmt,isa 1
;----------------------------------------------------------------------
; 1158 | if (clst == 0) {  /* Static table (root-directory in FAT12/16) */      
;----------------------------------------------------------------------
        LDR       A1, [SP, #8]          ; [DPU_3_PIPE] |1158| 
        CBNZ      A1, ||$C$L69||        ; [] 
        ; BRANCHCC OCCURS {||$C$L69||}   ; [] |1158| 
;* --------------------------------------------------------------------------*
	.dwpsn	file "../ff.c",line 1159,column 5,is_stmt,isa 1
;----------------------------------------------------------------------
; 1159 | if (idx >= dp->fs->n_rootdir)  /* Is index out of range? */            
;----------------------------------------------------------------------
        LDR       A1, [SP, #0]          ; [DPU_3_PIPE] |1159| 
        LDR       A1, [A1, #0]          ; [DPU_3_PIPE] |1159| 
        LDR       A2, [SP, #4]          ; [DPU_3_PIPE] |1159| 
        LDRH      A1, [A1, #8]          ; [DPU_3_PIPE] |1159| 
        CMP       A1, A2                ; [DPU_3_PIPE] |1159| 
        BHI       ||$C$L68||            ; [DPU_3_PIPE] |1159| 
        ; BRANCHCC OCCURS {||$C$L68||}   ; [] |1159| 
;* --------------------------------------------------------------------------*
	.dwpsn	file "../ff.c",line 1160,column 7,is_stmt,isa 1
;----------------------------------------------------------------------
; 1160 | return FR_INT_ERR;                                                     
;----------------------------------------------------------------------
        MOVS      A1, #2                ; [DPU_3_PIPE] |1160| 
        B         ||$C$L77||            ; [DPU_3_PIPE] |1160| 
        ; BRANCH OCCURS {||$C$L77||}     ; [] |1160| 
;* --------------------------------------------------------------------------*
||$C$L68||:    
	.dwpsn	file "../ff.c",line 1161,column 5,is_stmt,isa 1
;----------------------------------------------------------------------
; 1161 | sect = dp->fs->dirbase;                                                
;----------------------------------------------------------------------
        LDR       A1, [SP, #0]          ; [DPU_3_PIPE] |1161| 
        LDR       A1, [A1, #0]          ; [DPU_3_PIPE] |1161| 
        LDR       A1, [A1, #40]         ; [DPU_3_PIPE] |1161| 
        STR       A1, [SP, #12]         ; [DPU_3_PIPE] |1161| 
	.dwpsn	file "../ff.c",line 1162,column 3,is_stmt,isa 1
;----------------------------------------------------------------------
; 1163 | else {        /* Dynamic table (root-directory in FAT32 or sub-director
;     | y) */                                                                  
;----------------------------------------------------------------------
        B         ||$C$L75||            ; [DPU_3_PIPE] |1162| 
        ; BRANCH OCCURS {||$C$L75||}     ; [] |1162| 
;* --------------------------------------------------------------------------*
||$C$L69||:    
	.dwpsn	file "../ff.c",line 1164,column 5,is_stmt,isa 1
;----------------------------------------------------------------------
; 1164 | ic = SS(dp->fs) / SZ_DIR * dp->fs->csize;  /* Entries per cluster */   
;----------------------------------------------------------------------
        LDR       A1, [SP, #0]          ; [DPU_3_PIPE] |1164| 
        LDR       A1, [A1, #0]          ; [DPU_3_PIPE] |1164| 
        LDRB      A1, [A1, #2]          ; [DPU_3_PIPE] |1164| 
        LSLS      A1, A1, #4            ; [DPU_3_PIPE] |1164| 
        STR       A1, [SP, #16]         ; [DPU_3_PIPE] |1164| 
	.dwpsn	file "../ff.c",line 1165,column 12,is_stmt,isa 1
;----------------------------------------------------------------------
; 1165 | while (idx >= ic) {  /* Follow cluster chain */                        
;----------------------------------------------------------------------
        LDR       A2, [SP, #4]          ; [DPU_3_PIPE] |1165| 
        LDR       A1, [SP, #16]         ; [DPU_3_PIPE] |1165| 
        CMP       A1, A2                ; [DPU_3_PIPE] |1165| 
        BHI       ||$C$L74||            ; [DPU_3_PIPE] |1165| 
        ; BRANCHCC OCCURS {||$C$L74||}   ; [] |1165| 
;* --------------------------------------------------------------------------*
;*   BEGIN LOOP ||$C$L70||
;*
;*   Loop source line                : 1165
;*   Loop closing brace source line  : 1171
;*   Known Minimum Trip Count        : 1
;*   Known Maximum Trip Count        : 4294967295
;*   Known Max Trip Count Factor     : 1
;* --------------------------------------------------------------------------*
||$C$L70||:    
	.dwpsn	file "../ff.c",line 1166,column 7,is_stmt,isa 1
;----------------------------------------------------------------------
; 1166 | clst = get_fat(dp->fs, clst);        /* Get next cluster */            
;----------------------------------------------------------------------
        LDR       A1, [SP, #0]          ; [DPU_3_PIPE] |1166| 
        LDR       A2, [SP, #8]          ; [DPU_3_PIPE] |1166| 
        LDR       A1, [A1, #0]          ; [DPU_3_PIPE] |1166| 
$C$DW$151	.dwtag  DW_TAG_TI_branch
	.dwattr $C$DW$151, DW_AT_low_pc(0x00)
	.dwattr $C$DW$151, DW_AT_name("get_fat")
	.dwattr $C$DW$151, DW_AT_TI_call

        BL        get_fat               ; [DPU_3_PIPE] |1166| 
        ; CALL OCCURS {get_fat }         ; [] |1166| 
        STR       A1, [SP, #8]          ; [DPU_3_PIPE] |1166| 
	.dwpsn	file "../ff.c",line 1167,column 7,is_stmt,isa 1
;----------------------------------------------------------------------
; 1167 | if (clst == 0xFFFFFFFF) return FR_DISK_ERR;  /* Disk error */          
;----------------------------------------------------------------------
        LDR       A1, [SP, #8]          ; [DPU_3_PIPE] |1167| 
        CMP       A1, #-1               ; [DPU_3_PIPE] |1167| 
        BNE       ||$C$L71||            ; [DPU_3_PIPE] |1167| 
        ; BRANCHCC OCCURS {||$C$L71||}   ; [] |1167| 
;* --------------------------------------------------------------------------*
	.dwpsn	file "../ff.c",line 1167,column 31,is_stmt,isa 1
        MOVS      A1, #1                ; [DPU_3_PIPE] |1167| 
        B         ||$C$L77||            ; [DPU_3_PIPE] |1167| 
        ; BRANCH OCCURS {||$C$L77||}     ; [] |1167| 
;* --------------------------------------------------------------------------*
||$C$L71||:    
	.dwpsn	file "../ff.c",line 1168,column 7,is_stmt,isa 1
;----------------------------------------------------------------------
; 1168 | if (clst < 2 || clst >= dp->fs->n_fatent)  /* Reached to end of table o
;     | r internal error */                                                    
;----------------------------------------------------------------------
        LDR       A1, [SP, #8]          ; [DPU_3_PIPE] |1168| 
        CMP       A1, #2                ; [DPU_3_PIPE] |1168| 
        BCC       ||$C$L72||            ; [DPU_3_PIPE] |1168| 
        ; BRANCHCC OCCURS {||$C$L72||}   ; [] |1168| 
;* --------------------------------------------------------------------------*
        LDR       A1, [SP, #0]          ; [DPU_3_PIPE] |1168| 
        LDR       A1, [A1, #0]          ; [DPU_3_PIPE] |1168| 
        LDR       A2, [SP, #8]          ; [DPU_3_PIPE] |1168| 
        LDR       A1, [A1, #24]         ; [DPU_3_PIPE] |1168| 
        CMP       A1, A2                ; [DPU_3_PIPE] |1168| 
        BHI       ||$C$L73||            ; [DPU_3_PIPE] |1168| 
        ; BRANCHCC OCCURS {||$C$L73||}   ; [] |1168| 
;* --------------------------------------------------------------------------*
||$C$L72||:    
	.dwpsn	file "../ff.c",line 1169,column 9,is_stmt,isa 1
;----------------------------------------------------------------------
; 1169 | return FR_INT_ERR;                                                     
;----------------------------------------------------------------------
        MOVS      A1, #2                ; [DPU_3_PIPE] |1169| 
        B         ||$C$L77||            ; [DPU_3_PIPE] |1169| 
        ; BRANCH OCCURS {||$C$L77||}     ; [] |1169| 
;* --------------------------------------------------------------------------*
||$C$L73||:    
	.dwpsn	file "../ff.c",line 1170,column 7,is_stmt,isa 1
;----------------------------------------------------------------------
; 1170 | idx -= ic;                                                             
;----------------------------------------------------------------------
        LDR       A2, [SP, #16]         ; [DPU_3_PIPE] |1170| 
        LDR       A1, [SP, #4]          ; [DPU_3_PIPE] |1170| 
        SUBS      A1, A1, A2            ; [DPU_3_PIPE] |1170| 
        STR       A1, [SP, #4]          ; [DPU_3_PIPE] |1170| 
	.dwpsn	file "../ff.c",line 1165,column 12,is_stmt,isa 1
        LDR       A1, [SP, #16]         ; [DPU_3_PIPE] |1165| 
        LDR       A2, [SP, #4]          ; [DPU_3_PIPE] |1165| 
        CMP       A1, A2                ; [DPU_3_PIPE] |1165| 
        BLS       ||$C$L70||            ; [DPU_3_PIPE] |1165| 
        ; BRANCHCC OCCURS {||$C$L70||}   ; [] |1165| 
;* --------------------------------------------------------------------------*
||$C$L74||:    
	.dwpsn	file "../ff.c",line 1172,column 5,is_stmt,isa 1
;----------------------------------------------------------------------
; 1172 | sect = clust2sect(dp->fs, clst);                                       
;----------------------------------------------------------------------
        LDR       A1, [SP, #0]          ; [DPU_3_PIPE] |1172| 
        LDR       A2, [SP, #8]          ; [DPU_3_PIPE] |1172| 
        LDR       A1, [A1, #0]          ; [DPU_3_PIPE] |1172| 
$C$DW$152	.dwtag  DW_TAG_TI_branch
	.dwattr $C$DW$152, DW_AT_low_pc(0x00)
	.dwattr $C$DW$152, DW_AT_name("clust2sect")
	.dwattr $C$DW$152, DW_AT_TI_call

        BL        clust2sect            ; [DPU_3_PIPE] |1172| 
        ; CALL OCCURS {clust2sect }      ; [] |1172| 
        STR       A1, [SP, #12]         ; [DPU_3_PIPE] |1172| 
;* --------------------------------------------------------------------------*
||$C$L75||:    
	.dwpsn	file "../ff.c",line 1174,column 3,is_stmt,isa 1
;----------------------------------------------------------------------
; 1174 | dp->clust = clst;  /* Current cluster# */                              
;----------------------------------------------------------------------
        LDR       A1, [SP, #8]          ; [DPU_3_PIPE] |1174| 
        LDR       A2, [SP, #0]          ; [DPU_3_PIPE] |1174| 
        STR       A1, [A2, #12]         ; [DPU_3_PIPE] |1174| 
	.dwpsn	file "../ff.c",line 1175,column 3,is_stmt,isa 1
;----------------------------------------------------------------------
; 1175 | if (!sect) return FR_INT_ERR;                                          
;----------------------------------------------------------------------
        LDR       A1, [SP, #12]         ; [DPU_3_PIPE] |1175| 
        CBNZ      A1, ||$C$L76||        ; [] 
        ; BRANCHCC OCCURS {||$C$L76||}   ; [] |1175| 
;* --------------------------------------------------------------------------*
	.dwpsn	file "../ff.c",line 1175,column 14,is_stmt,isa 1
        MOVS      A1, #2                ; [DPU_3_PIPE] |1175| 
        B         ||$C$L77||            ; [DPU_3_PIPE] |1175| 
        ; BRANCH OCCURS {||$C$L77||}     ; [] |1175| 
;* --------------------------------------------------------------------------*
||$C$L76||:    
	.dwpsn	file "../ff.c",line 1176,column 3,is_stmt,isa 1
;----------------------------------------------------------------------
; 1176 | dp->sect = sect + idx / (SS(dp->fs) / SZ_DIR);          /* Sector# of t
;     | he directory entry */                                                  
;----------------------------------------------------------------------
        LDR       A3, [SP, #4]          ; [DPU_3_PIPE] |1176| 
        LDR       A1, [SP, #12]         ; [DPU_3_PIPE] |1176| 
        LDR       A2, [SP, #0]          ; [DPU_3_PIPE] |1176| 
        ADD       A1, A1, A3, LSR #4    ; [DPU_3_PIPE] |1176| 
        STR       A1, [A2, #16]         ; [DPU_3_PIPE] |1176| 
	.dwpsn	file "../ff.c",line 1177,column 3,is_stmt,isa 1
;----------------------------------------------------------------------
; 1177 | dp->dir = dp->fs->win + (idx % (SS(dp->fs) / SZ_DIR)) * SZ_DIR;  /* Ptr
;     |  to the entry in the sector */                                         
;----------------------------------------------------------------------
        LDR       A1, [SP, #0]          ; [DPU_3_PIPE] |1177| 
        LDR       A2, [SP, #4]          ; [DPU_3_PIPE] |1177| 
        LDR       A3, [SP, #0]          ; [DPU_3_PIPE] |1177| 
        LDR       A1, [A1, #0]          ; [DPU_3_PIPE] |1177| 
        AND       A2, A2, #15           ; [DPU_3_PIPE] |1177| 
        ADD       A1, A1, A2, LSL #5    ; [DPU_3_PIPE] |1177| 
        ADDS      A1, A1, #52           ; [DPU_3_PIPE] |1177| 
        STR       A1, [A3, #20]         ; [DPU_3_PIPE] |1177| 
	.dwpsn	file "../ff.c",line 1179,column 3,is_stmt,isa 1
;----------------------------------------------------------------------
; 1179 | return FR_OK;                                                          
;----------------------------------------------------------------------
        MOVS      A1, #0                ; [DPU_3_PIPE] |1179| 
;* --------------------------------------------------------------------------*
||$C$L77||:    
	.dwpsn	file "../ff.c",line 1180,column 1,is_stmt,isa 1
        ADD       SP, SP, #20           ; [DPU_3_PIPE] 
	.dwcfi	cfa_offset, 4
$C$DW$153	.dwtag  DW_TAG_TI_branch
	.dwattr $C$DW$153, DW_AT_low_pc(0x00)
	.dwattr $C$DW$153, DW_AT_TI_return

        POP       {PC}                  ; [DPU_3_PIPE] 
	.dwcfi	cfa_offset, 0
        ; BRANCH OCCURS                  ; [] 
	.dwattr $C$DW$143, DW_AT_TI_end_file("../ff.c")
	.dwattr $C$DW$143, DW_AT_TI_end_line(0x49c)
	.dwattr $C$DW$143, DW_AT_TI_end_column(0x01)
	.dwendentry
	.dwendtag $C$DW$143

	.sect	".text"
	.clink
	.thumbfunc dir_next
	.thumb

$C$DW$154	.dwtag  DW_TAG_subprogram
	.dwattr $C$DW$154, DW_AT_name("dir_next")
	.dwattr $C$DW$154, DW_AT_low_pc(dir_next)
	.dwattr $C$DW$154, DW_AT_high_pc(0x00)
	.dwattr $C$DW$154, DW_AT_TI_symbol_name("dir_next")
	.dwattr $C$DW$154, DW_AT_type(*$C$DW$T$45)
	.dwattr $C$DW$154, DW_AT_TI_begin_file("../ff.c")
	.dwattr $C$DW$154, DW_AT_TI_begin_line(0x4a6)
	.dwattr $C$DW$154, DW_AT_TI_begin_column(0x09)
	.dwattr $C$DW$154, DW_AT_decl_file("../ff.c")
	.dwattr $C$DW$154, DW_AT_decl_line(0x4a6)
	.dwattr $C$DW$154, DW_AT_decl_column(0x09)
	.dwattr $C$DW$154, DW_AT_TI_max_frame_size(0x18)
	.dwpsn	file "../ff.c",line 1194,column 1,is_stmt,address dir_next,isa 1

	.dwfde $C$DW$CIE, dir_next
$C$DW$155	.dwtag  DW_TAG_formal_parameter
	.dwattr $C$DW$155, DW_AT_name("dp")
	.dwattr $C$DW$155, DW_AT_TI_symbol_name("dp")
	.dwattr $C$DW$155, DW_AT_type(*$C$DW$T$53)
	.dwattr $C$DW$155, DW_AT_location[DW_OP_reg0]

$C$DW$156	.dwtag  DW_TAG_formal_parameter
	.dwattr $C$DW$156, DW_AT_name("stretch")
	.dwattr $C$DW$156, DW_AT_TI_symbol_name("stretch")
	.dwattr $C$DW$156, DW_AT_type(*$C$DW$T$10)
	.dwattr $C$DW$156, DW_AT_location[DW_OP_reg1]

;----------------------------------------------------------------------
; 1190 | FRESULT dir_next (  /* FR_OK:Succeeded, FR_NO_FILE:End of table, FR_DEN
;     | IED:Could not stretch */                                               
; 1191 | DIR* dp,    /* Pointer to the directory object */                      
; 1192 | int stretch    /* 0: Do not stretch table, 1: Stretch table if needed *
;     | /                                                                      
; 1193 | )                                                                      
;----------------------------------------------------------------------

;*****************************************************************************
;* FUNCTION NAME: dir_next                                                   *
;*                                                                           *
;*   Regs Modified     : A1,A2,A3,A4,V9,SP,LR,SR,D0,D0_hi,D1,D1_hi,D2,D2_hi, *
;*                           D3,D3_hi,D4,D4_hi,D5,D5_hi,D6,D6_hi,D7,D7_hi,   *
;*                           FPEXC,FPSCR                                     *
;*   Regs Used         : A1,A2,A3,A4,V9,SP,LR,SR,D0,D0_hi,D1,D1_hi,D2,D2_hi, *
;*                           D3,D3_hi,D4,D4_hi,D5,D5_hi,D6,D6_hi,D7,D7_hi,   *
;*                           FPEXC,FPSCR                                     *
;*   Local Frame Size  : 0 Args + 20 Auto + 4 Save = 24 byte                 *
;*****************************************************************************
dir_next:
;* --------------------------------------------------------------------------*
	.dwcfi	cfa_offset, 0
        PUSH      {LR}                  ; [DPU_3_PIPE] 
	.dwcfi	cfa_offset, 4
	.dwcfi	save_reg_to_mem, 14, -4
        SUB       SP, SP, #20           ; [DPU_3_PIPE] 
	.dwcfi	cfa_offset, 24
$C$DW$157	.dwtag  DW_TAG_variable
	.dwattr $C$DW$157, DW_AT_name("dp")
	.dwattr $C$DW$157, DW_AT_TI_symbol_name("dp")
	.dwattr $C$DW$157, DW_AT_type(*$C$DW$T$53)
	.dwattr $C$DW$157, DW_AT_location[DW_OP_breg13 0]

$C$DW$158	.dwtag  DW_TAG_variable
	.dwattr $C$DW$158, DW_AT_name("stretch")
	.dwattr $C$DW$158, DW_AT_TI_symbol_name("stretch")
	.dwattr $C$DW$158, DW_AT_type(*$C$DW$T$10)
	.dwattr $C$DW$158, DW_AT_location[DW_OP_breg13 4]

$C$DW$159	.dwtag  DW_TAG_variable
	.dwattr $C$DW$159, DW_AT_name("clst")
	.dwattr $C$DW$159, DW_AT_TI_symbol_name("clst")
	.dwattr $C$DW$159, DW_AT_type(*$C$DW$T$21)
	.dwattr $C$DW$159, DW_AT_location[DW_OP_breg13 8]

$C$DW$160	.dwtag  DW_TAG_variable
	.dwattr $C$DW$160, DW_AT_name("i")
	.dwattr $C$DW$160, DW_AT_TI_symbol_name("i")
	.dwattr $C$DW$160, DW_AT_type(*$C$DW$T$35)
	.dwattr $C$DW$160, DW_AT_location[DW_OP_breg13 12]

;----------------------------------------------------------------------
; 1195 | DWORD clst;                                                            
; 1196 | UINT i;                                                                
;----------------------------------------------------------------------
        STR       A2, [SP, #4]          ; [DPU_3_PIPE] |1194| 
        STR       A1, [SP, #0]          ; [DPU_3_PIPE] |1194| 
	.dwpsn	file "../ff.c",line 1199,column 3,is_stmt,isa 1
;----------------------------------------------------------------------
; 1199 | i = dp->index + 1;                                                     
;----------------------------------------------------------------------
        LDR       A1, [SP, #0]          ; [DPU_3_PIPE] |1199| 
        LDRH      A1, [A1, #6]          ; [DPU_3_PIPE] |1199| 
        ADDS      A1, A1, #1            ; [DPU_3_PIPE] |1199| 
        STR       A1, [SP, #12]         ; [DPU_3_PIPE] |1199| 
	.dwpsn	file "../ff.c",line 1200,column 3,is_stmt,isa 1
;----------------------------------------------------------------------
; 1200 | if (!(i & 0xFFFF) || !dp->sect)  /* Report EOT when index has reached 6
;     | 5535 */                                                                
;----------------------------------------------------------------------
        LDR       A1, [SP, #12]         ; [DPU_3_PIPE] |1200| 
        BFC       A1, #16, #16          ; [DPU_3_PIPE] |1200| 
        CBZ       A1, ||$C$L78||        ; [] 
        ; BRANCHCC OCCURS {||$C$L78||}   ; [] |1200| 
;* --------------------------------------------------------------------------*
        LDR       A1, [SP, #0]          ; [DPU_3_PIPE] |1200| 
        LDR       A1, [A1, #16]         ; [DPU_3_PIPE] |1200| 
        CBNZ      A1, ||$C$L79||        ; [] 
        ; BRANCHCC OCCURS {||$C$L79||}   ; [] |1200| 
;* --------------------------------------------------------------------------*
||$C$L78||:    
	.dwpsn	file "../ff.c",line 1201,column 5,is_stmt,isa 1
;----------------------------------------------------------------------
; 1201 | return FR_NO_FILE;                                                     
;----------------------------------------------------------------------
        MOVS      A1, #4                ; [DPU_3_PIPE] |1201| 
        B         ||$C$L93||            ; [DPU_3_PIPE] |1201| 
        ; BRANCH OCCURS {||$C$L93||}     ; [] |1201| 
;* --------------------------------------------------------------------------*
||$C$L79||:    
	.dwpsn	file "../ff.c",line 1203,column 3,is_stmt,isa 1
;----------------------------------------------------------------------
; 1203 | if (!(i % (SS(dp->fs) / SZ_DIR))) {  /* Sector changed? */             
;----------------------------------------------------------------------
        LDR       A1, [SP, #12]         ; [DPU_3_PIPE] |1203| 
        TST       A1, #15               ; [DPU_3_PIPE] |1203| 
        BNE       ||$C$L92||            ; [DPU_3_PIPE] |1203| 
        ; BRANCHCC OCCURS {||$C$L92||}   ; [] |1203| 
;* --------------------------------------------------------------------------*
	.dwpsn	file "../ff.c",line 1204,column 5,is_stmt,isa 1
;----------------------------------------------------------------------
; 1204 | dp->sect++;          /* Next sector */                                 
;----------------------------------------------------------------------
        LDR       A2, [SP, #0]          ; [DPU_3_PIPE] |1204| 
        LDR       A1, [A2, #16]         ; [DPU_3_PIPE] |1204| 
        ADDS      A1, A1, #1            ; [DPU_3_PIPE] |1204| 
        STR       A1, [A2, #16]         ; [DPU_3_PIPE] |1204| 
	.dwpsn	file "../ff.c",line 1206,column 5,is_stmt,isa 1
;----------------------------------------------------------------------
; 1206 | if (!dp->clust) {    /* Static table */                                
;----------------------------------------------------------------------
        LDR       A1, [SP, #0]          ; [DPU_3_PIPE] |1206| 
        LDR       A1, [A1, #12]         ; [DPU_3_PIPE] |1206| 
        CBNZ      A1, ||$C$L80||        ; [] 
        ; BRANCHCC OCCURS {||$C$L80||}   ; [] |1206| 
;* --------------------------------------------------------------------------*
	.dwpsn	file "../ff.c",line 1207,column 7,is_stmt,isa 1
;----------------------------------------------------------------------
; 1207 | if (i >= dp->fs->n_rootdir)  /* Report EOT if it reached end of static
;     | table */                                                               
;----------------------------------------------------------------------
        LDR       A1, [SP, #0]          ; [DPU_3_PIPE] |1207| 
        LDR       A1, [A1, #0]          ; [DPU_3_PIPE] |1207| 
        LDR       A2, [SP, #12]         ; [DPU_3_PIPE] |1207| 
        LDRH      A1, [A1, #8]          ; [DPU_3_PIPE] |1207| 
        CMP       A1, A2                ; [DPU_3_PIPE] |1207| 
        BHI       ||$C$L92||            ; [DPU_3_PIPE] |1207| 
        ; BRANCHCC OCCURS {||$C$L92||}   ; [] |1207| 
;* --------------------------------------------------------------------------*
	.dwpsn	file "../ff.c",line 1208,column 9,is_stmt,isa 1
;----------------------------------------------------------------------
; 1208 | return FR_NO_FILE;                                                     
; 1210 | else {          /* Dynamic table */                                    
;----------------------------------------------------------------------
        MOVS      A1, #4                ; [DPU_3_PIPE] |1208| 
        B         ||$C$L93||            ; [DPU_3_PIPE] |1208| 
        ; BRANCH OCCURS {||$C$L93||}     ; [] |1208| 
;* --------------------------------------------------------------------------*
;* --------------------------------------------------------------------------*
||$C$L80||:    
	.dwpsn	file "../ff.c",line 1211,column 7,is_stmt,isa 1
;----------------------------------------------------------------------
; 1211 | if (((i / (SS(dp->fs) / SZ_DIR)) & (dp->fs->csize - 1)) == 0) {  /* Clu
;     | ster changed? */                                                       
;----------------------------------------------------------------------
        LDR       A1, [SP, #0]          ; [DPU_3_PIPE] |1211| 
        LDR       A1, [A1, #0]          ; [DPU_3_PIPE] |1211| 
        LDR       A2, [SP, #12]         ; [DPU_3_PIPE] |1211| 
        LDRB      A1, [A1, #2]          ; [DPU_3_PIPE] |1211| 
        SUBS      A1, A1, #1            ; [DPU_3_PIPE] |1211| 
        TST       A1, A2, LSR #4        ; [DPU_3_PIPE] |1211| 
        BNE       ||$C$L92||            ; [DPU_3_PIPE] |1211| 
        ; BRANCHCC OCCURS {||$C$L92||}   ; [] |1211| 
;* --------------------------------------------------------------------------*
	.dwpsn	file "../ff.c",line 1212,column 9,is_stmt,isa 1
;----------------------------------------------------------------------
; 1212 | clst = get_fat(dp->fs, dp->clust);        /* Get next cluster */       
;----------------------------------------------------------------------
        LDR       A1, [SP, #0]          ; [DPU_3_PIPE] |1212| 
        LDR       A2, [SP, #0]          ; [DPU_3_PIPE] |1212| 
        LDR       A1, [A1, #0]          ; [DPU_3_PIPE] |1212| 
        LDR       A2, [A2, #12]         ; [DPU_3_PIPE] |1212| 
$C$DW$161	.dwtag  DW_TAG_TI_branch
	.dwattr $C$DW$161, DW_AT_low_pc(0x00)
	.dwattr $C$DW$161, DW_AT_name("get_fat")
	.dwattr $C$DW$161, DW_AT_TI_call

        BL        get_fat               ; [DPU_3_PIPE] |1212| 
        ; CALL OCCURS {get_fat }         ; [] |1212| 
        STR       A1, [SP, #8]          ; [DPU_3_PIPE] |1212| 
	.dwpsn	file "../ff.c",line 1213,column 9,is_stmt,isa 1
;----------------------------------------------------------------------
; 1213 | if (clst <= 1) return FR_INT_ERR;                                      
;----------------------------------------------------------------------
        LDR       A1, [SP, #8]          ; [DPU_3_PIPE] |1213| 
        CMP       A1, #1                ; [DPU_3_PIPE] |1213| 
        BHI       ||$C$L81||            ; [DPU_3_PIPE] |1213| 
        ; BRANCHCC OCCURS {||$C$L81||}   ; [] |1213| 
;* --------------------------------------------------------------------------*
	.dwpsn	file "../ff.c",line 1213,column 24,is_stmt,isa 1
        MOVS      A1, #2                ; [DPU_3_PIPE] |1213| 
        B         ||$C$L93||            ; [DPU_3_PIPE] |1213| 
        ; BRANCH OCCURS {||$C$L93||}     ; [] |1213| 
;* --------------------------------------------------------------------------*
||$C$L81||:    
	.dwpsn	file "../ff.c",line 1214,column 9,is_stmt,isa 1
;----------------------------------------------------------------------
; 1214 | if (clst == 0xFFFFFFFF) return FR_DISK_ERR;                            
;----------------------------------------------------------------------
        LDR       A1, [SP, #8]          ; [DPU_3_PIPE] |1214| 
        CMP       A1, #-1               ; [DPU_3_PIPE] |1214| 
        BNE       ||$C$L82||            ; [DPU_3_PIPE] |1214| 
        ; BRANCHCC OCCURS {||$C$L82||}   ; [] |1214| 
;* --------------------------------------------------------------------------*
	.dwpsn	file "../ff.c",line 1214,column 33,is_stmt,isa 1
        MOVS      A1, #1                ; [DPU_3_PIPE] |1214| 
        B         ||$C$L93||            ; [DPU_3_PIPE] |1214| 
        ; BRANCH OCCURS {||$C$L93||}     ; [] |1214| 
;* --------------------------------------------------------------------------*
||$C$L82||:    
	.dwpsn	file "../ff.c",line 1215,column 9,is_stmt,isa 1
;----------------------------------------------------------------------
; 1215 | if (clst >= dp->fs->n_fatent) {          /* If it reached end of dynami
;     | c table, */                                                            
; 1216 | #if !_FS_READONLY                                                      
; 1217 |   UINT c;                                                              
;----------------------------------------------------------------------
        LDR       A1, [SP, #0]          ; [DPU_3_PIPE] |1215| 
        LDR       A1, [A1, #0]          ; [DPU_3_PIPE] |1215| 
        LDR       A2, [SP, #8]          ; [DPU_3_PIPE] |1215| 
        LDR       A1, [A1, #24]         ; [DPU_3_PIPE] |1215| 
        CMP       A1, A2                ; [DPU_3_PIPE] |1215| 
        BHI       ||$C$L91||            ; [DPU_3_PIPE] |1215| 
        ; BRANCHCC OCCURS {||$C$L91||}   ; [] |1215| 
;* --------------------------------------------------------------------------*

$C$DW$162	.dwtag  DW_TAG_lexical_block
	.dwattr $C$DW$162, DW_AT_low_pc(0x00)
	.dwattr $C$DW$162, DW_AT_high_pc(0x00)
$C$DW$163	.dwtag  DW_TAG_variable
	.dwattr $C$DW$163, DW_AT_name("c")
	.dwattr $C$DW$163, DW_AT_TI_symbol_name("c")
	.dwattr $C$DW$163, DW_AT_type(*$C$DW$T$35)
	.dwattr $C$DW$163, DW_AT_location[DW_OP_breg13 16]

	.dwpsn	file "../ff.c",line 1218,column 11,is_stmt,isa 1
;----------------------------------------------------------------------
; 1218 | if (!stretch) return FR_NO_FILE;      /* If do not stretch, report EOT
;     | */                                                                     
;----------------------------------------------------------------------
        LDR       A1, [SP, #4]          ; [DPU_3_PIPE] |1218| 
        CBNZ      A1, ||$C$L83||        ; [] 
        ; BRANCHCC OCCURS {||$C$L83||}   ; [] |1218| 
;* --------------------------------------------------------------------------*
	.dwpsn	file "../ff.c",line 1218,column 25,is_stmt,isa 1
        MOVS      A1, #4                ; [DPU_3_PIPE] |1218| 
        B         ||$C$L93||            ; [DPU_3_PIPE] |1218| 
        ; BRANCH OCCURS {||$C$L93||}     ; [] |1218| 
;* --------------------------------------------------------------------------*
||$C$L83||:    
	.dwpsn	file "../ff.c",line 1219,column 11,is_stmt,isa 1
;----------------------------------------------------------------------
; 1219 | clst = create_chain(dp->fs, dp->clust);    /* Stretch cluster chain */ 
;----------------------------------------------------------------------
        LDR       A1, [SP, #0]          ; [DPU_3_PIPE] |1219| 
        LDR       A2, [SP, #0]          ; [DPU_3_PIPE] |1219| 
        LDR       A1, [A1, #0]          ; [DPU_3_PIPE] |1219| 
        LDR       A2, [A2, #12]         ; [DPU_3_PIPE] |1219| 
$C$DW$164	.dwtag  DW_TAG_TI_branch
	.dwattr $C$DW$164, DW_AT_low_pc(0x00)
	.dwattr $C$DW$164, DW_AT_name("create_chain")
	.dwattr $C$DW$164, DW_AT_TI_call

        BL        create_chain          ; [DPU_3_PIPE] |1219| 
        ; CALL OCCURS {create_chain }    ; [] |1219| 
        STR       A1, [SP, #8]          ; [DPU_3_PIPE] |1219| 
	.dwpsn	file "../ff.c",line 1220,column 11,is_stmt,isa 1
;----------------------------------------------------------------------
; 1220 | if (clst == 0) return FR_DENIED;      /* No free cluster */            
;----------------------------------------------------------------------
        LDR       A1, [SP, #8]          ; [DPU_3_PIPE] |1220| 
        CBNZ      A1, ||$C$L84||        ; [] 
        ; BRANCHCC OCCURS {||$C$L84||}   ; [] |1220| 
;* --------------------------------------------------------------------------*
	.dwpsn	file "../ff.c",line 1220,column 26,is_stmt,isa 1
        MOVS      A1, #7                ; [DPU_3_PIPE] |1220| 
        B         ||$C$L93||            ; [DPU_3_PIPE] |1220| 
        ; BRANCH OCCURS {||$C$L93||}     ; [] |1220| 
;* --------------------------------------------------------------------------*
||$C$L84||:    
	.dwpsn	file "../ff.c",line 1221,column 11,is_stmt,isa 1
;----------------------------------------------------------------------
; 1221 | if (clst == 1) return FR_INT_ERR;                                      
;----------------------------------------------------------------------
        LDR       A1, [SP, #8]          ; [DPU_3_PIPE] |1221| 
        CMP       A1, #1                ; [DPU_3_PIPE] |1221| 
        BNE       ||$C$L85||            ; [DPU_3_PIPE] |1221| 
        ; BRANCHCC OCCURS {||$C$L85||}   ; [] |1221| 
;* --------------------------------------------------------------------------*
	.dwpsn	file "../ff.c",line 1221,column 26,is_stmt,isa 1
        MOVS      A1, #2                ; [DPU_3_PIPE] |1221| 
        B         ||$C$L93||            ; [DPU_3_PIPE] |1221| 
        ; BRANCH OCCURS {||$C$L93||}     ; [] |1221| 
;* --------------------------------------------------------------------------*
||$C$L85||:    
	.dwpsn	file "../ff.c",line 1222,column 11,is_stmt,isa 1
;----------------------------------------------------------------------
; 1222 | if (clst == 0xFFFFFFFF) return FR_DISK_ERR;                            
;----------------------------------------------------------------------
        LDR       A1, [SP, #8]          ; [DPU_3_PIPE] |1222| 
        CMP       A1, #-1               ; [DPU_3_PIPE] |1222| 
        BNE       ||$C$L86||            ; [DPU_3_PIPE] |1222| 
        ; BRANCHCC OCCURS {||$C$L86||}   ; [] |1222| 
;* --------------------------------------------------------------------------*
	.dwpsn	file "../ff.c",line 1222,column 35,is_stmt,isa 1
        MOVS      A1, #1                ; [DPU_3_PIPE] |1222| 
        B         ||$C$L93||            ; [DPU_3_PIPE] |1222| 
        ; BRANCH OCCURS {||$C$L93||}     ; [] |1222| 
;* --------------------------------------------------------------------------*
||$C$L86||:    
	.dwpsn	file "../ff.c",line 1224,column 11,is_stmt,isa 1
;----------------------------------------------------------------------
; 1224 | if (sync_window(dp->fs)) return FR_DISK_ERR;/* Flush disk access window
;     |  */                                                                    
;----------------------------------------------------------------------
        LDR       A1, [SP, #0]          ; [DPU_3_PIPE] |1224| 
        LDR       A1, [A1, #0]          ; [DPU_3_PIPE] |1224| 
$C$DW$165	.dwtag  DW_TAG_TI_branch
	.dwattr $C$DW$165, DW_AT_low_pc(0x00)
	.dwattr $C$DW$165, DW_AT_name("sync_window")
	.dwattr $C$DW$165, DW_AT_TI_call

        BL        sync_window           ; [DPU_3_PIPE] |1224| 
        ; CALL OCCURS {sync_window }     ; [] |1224| 
        CBZ       A1, ||$C$L87||        ; [] 
        ; BRANCHCC OCCURS {||$C$L87||}   ; [] |1224| 
;* --------------------------------------------------------------------------*
	.dwpsn	file "../ff.c",line 1224,column 36,is_stmt,isa 1
        MOVS      A1, #1                ; [DPU_3_PIPE] |1224| 
        B         ||$C$L93||            ; [DPU_3_PIPE] |1224| 
        ; BRANCH OCCURS {||$C$L93||}     ; [] |1224| 
;* --------------------------------------------------------------------------*
||$C$L87||:    
	.dwpsn	file "../ff.c",line 1225,column 11,is_stmt,isa 1
;----------------------------------------------------------------------
; 1225 | mem_set(dp->fs->win, 0, SS(dp->fs));    /* Clear window buffer */      
;----------------------------------------------------------------------
        LDR       A1, [SP, #0]          ; [DPU_3_PIPE] |1225| 
        LDR       A1, [A1, #0]          ; [DPU_3_PIPE] |1225| 
        MOVS      A2, #0                ; [DPU_3_PIPE] |1225| 
        MOV       A3, #512              ; [DPU_3_PIPE] |1225| 
        ADDS      A1, A1, #52           ; [DPU_3_PIPE] |1225| 
$C$DW$166	.dwtag  DW_TAG_TI_branch
	.dwattr $C$DW$166, DW_AT_low_pc(0x00)
	.dwattr $C$DW$166, DW_AT_name("mem_set")
	.dwattr $C$DW$166, DW_AT_TI_call

        BL        mem_set               ; [DPU_3_PIPE] |1225| 
        ; CALL OCCURS {mem_set }         ; [] |1225| 
	.dwpsn	file "../ff.c",line 1226,column 11,is_stmt,isa 1
;----------------------------------------------------------------------
; 1226 | dp->fs->winsect = clust2sect(dp->fs, clst);  /* Cluster start sector */
;----------------------------------------------------------------------
        LDR       A1, [SP, #0]          ; [DPU_3_PIPE] |1226| 
        LDR       A2, [SP, #8]          ; [DPU_3_PIPE] |1226| 
        LDR       A1, [A1, #0]          ; [DPU_3_PIPE] |1226| 
$C$DW$167	.dwtag  DW_TAG_TI_branch
	.dwattr $C$DW$167, DW_AT_low_pc(0x00)
	.dwattr $C$DW$167, DW_AT_name("clust2sect")
	.dwattr $C$DW$167, DW_AT_TI_call

        BL        clust2sect            ; [DPU_3_PIPE] |1226| 
        ; CALL OCCURS {clust2sect }      ; [] |1226| 
        LDR       A2, [SP, #0]          ; [DPU_3_PIPE] |1226| 
        LDR       A2, [A2, #0]          ; [DPU_3_PIPE] |1226| 
        STR       A1, [A2, #48]         ; [DPU_3_PIPE] |1226| 
	.dwpsn	file "../ff.c",line 1227,column 16,is_stmt,isa 1
;----------------------------------------------------------------------
; 1227 | for (c = 0; c < dp->fs->csize; c++) {    /* Fill the new cluster with 0
;     |  */                                                                    
;----------------------------------------------------------------------
        MOVS      A1, #0                ; [DPU_3_PIPE] |1227| 
        STR       A1, [SP, #16]         ; [DPU_3_PIPE] |1227| 
        B         ||$C$L90||            ; [DPU_3_PIPE] |1227| 
        ; BRANCH OCCURS {||$C$L90||}     ; [] |1227| 
;* --------------------------------------------------------------------------*
||$C$L88||:    
	.dwpsn	file "../ff.c",line 1228,column 13,is_stmt,isa 1
;----------------------------------------------------------------------
; 1228 | dp->fs->wflag = 1;                                                     
;----------------------------------------------------------------------
        LDR       A1, [SP, #0]          ; [DPU_3_PIPE] |1228| 
        LDR       A1, [A1, #0]          ; [DPU_3_PIPE] |1228| 
        MOVS      A2, #1                ; [DPU_3_PIPE] |1228| 
        STRB      A2, [A1, #4]          ; [DPU_3_PIPE] |1228| 
	.dwpsn	file "../ff.c",line 1229,column 13,is_stmt,isa 1
;----------------------------------------------------------------------
; 1229 | if (sync_window(dp->fs)) return FR_DISK_ERR;                           
;----------------------------------------------------------------------
        LDR       A1, [SP, #0]          ; [DPU_3_PIPE] |1229| 
        LDR       A1, [A1, #0]          ; [DPU_3_PIPE] |1229| 
$C$DW$168	.dwtag  DW_TAG_TI_branch
	.dwattr $C$DW$168, DW_AT_low_pc(0x00)
	.dwattr $C$DW$168, DW_AT_name("sync_window")
	.dwattr $C$DW$168, DW_AT_TI_call

        BL        sync_window           ; [DPU_3_PIPE] |1229| 
        ; CALL OCCURS {sync_window }     ; [] |1229| 
        CBZ       A1, ||$C$L89||        ; [] 
        ; BRANCHCC OCCURS {||$C$L89||}   ; [] |1229| 
;* --------------------------------------------------------------------------*
	.dwpsn	file "../ff.c",line 1229,column 38,is_stmt,isa 1
        MOVS      A1, #1                ; [DPU_3_PIPE] |1229| 
        B         ||$C$L93||            ; [DPU_3_PIPE] |1229| 
        ; BRANCH OCCURS {||$C$L93||}     ; [] |1229| 
;* --------------------------------------------------------------------------*
||$C$L89||:    
	.dwpsn	file "../ff.c",line 1230,column 13,is_stmt,isa 1
;----------------------------------------------------------------------
; 1230 | dp->fs->winsect++;                                                     
;----------------------------------------------------------------------
        LDR       A1, [SP, #0]          ; [DPU_3_PIPE] |1230| 
        LDR       A2, [A1, #0]          ; [DPU_3_PIPE] |1230| 
        LDR       A1, [A2, #48]         ; [DPU_3_PIPE] |1230| 
        ADDS      A1, A1, #1            ; [DPU_3_PIPE] |1230| 
        STR       A1, [A2, #48]         ; [DPU_3_PIPE] |1230| 
	.dwpsn	file "../ff.c",line 1227,column 42,is_stmt,isa 1
        LDR       A1, [SP, #16]         ; [DPU_3_PIPE] |1227| 
        ADDS      A1, A1, #1            ; [DPU_3_PIPE] |1227| 
        STR       A1, [SP, #16]         ; [DPU_3_PIPE] |1227| 
;* --------------------------------------------------------------------------*
;*   BEGIN LOOP ||$C$L90||
;* --------------------------------------------------------------------------*
||$C$L90||:    
	.dwpsn	file "../ff.c",line 1227,column 23,is_stmt,isa 1
        LDR       A1, [SP, #0]          ; [DPU_3_PIPE] |1227| 
        LDR       A1, [A1, #0]          ; [DPU_3_PIPE] |1227| 
        LDR       A2, [SP, #16]         ; [DPU_3_PIPE] |1227| 
        LDRB      A1, [A1, #2]          ; [DPU_3_PIPE] |1227| 
        CMP       A1, A2                ; [DPU_3_PIPE] |1227| 
        BHI       ||$C$L88||            ; [DPU_3_PIPE] |1227| 
        ; BRANCHCC OCCURS {||$C$L88||}   ; [] |1227| 
;* --------------------------------------------------------------------------*
	.dwpsn	file "../ff.c",line 1232,column 11,is_stmt,isa 1
;----------------------------------------------------------------------
; 1232 | dp->fs->winsect -= c;            /* Rewind window offset */            
; 1233 | #else                                                                  
; 1234 | if (!stretch) return FR_NO_FILE;      /* If do not stretch, report EOT
;     | (this is to suppress warning) */                                       
; 1235 | return FR_NO_FILE;              /* Report EOT */                       
; 1236 | #endif                                                                 
;----------------------------------------------------------------------
        LDR       A1, [SP, #0]          ; [DPU_3_PIPE] |1232| 
        LDR       A2, [A1, #0]          ; [DPU_3_PIPE] |1232| 
        LDR       A3, [SP, #16]         ; [DPU_3_PIPE] |1232| 
        LDR       A1, [A2, #48]         ; [DPU_3_PIPE] |1232| 
        SUBS      A1, A1, A3            ; [DPU_3_PIPE] |1232| 
        STR       A1, [A2, #48]         ; [DPU_3_PIPE] |1232| 
	.dwendtag $C$DW$162

;* --------------------------------------------------------------------------*
||$C$L91||:    
	.dwpsn	file "../ff.c",line 1238,column 9,is_stmt,isa 1
;----------------------------------------------------------------------
; 1238 | dp->clust = clst;        /* Initialize data for new cluster */         
;----------------------------------------------------------------------
        LDR       A1, [SP, #8]          ; [DPU_3_PIPE] |1238| 
        LDR       A2, [SP, #0]          ; [DPU_3_PIPE] |1238| 
        STR       A1, [A2, #12]         ; [DPU_3_PIPE] |1238| 
	.dwpsn	file "../ff.c",line 1239,column 9,is_stmt,isa 1
;----------------------------------------------------------------------
; 1239 | dp->sect = clust2sect(dp->fs, clst);                                   
;----------------------------------------------------------------------
        LDR       A1, [SP, #0]          ; [DPU_3_PIPE] |1239| 
        LDR       A2, [SP, #8]          ; [DPU_3_PIPE] |1239| 
        LDR       A1, [A1, #0]          ; [DPU_3_PIPE] |1239| 
$C$DW$169	.dwtag  DW_TAG_TI_branch
	.dwattr $C$DW$169, DW_AT_low_pc(0x00)
	.dwattr $C$DW$169, DW_AT_name("clust2sect")
	.dwattr $C$DW$169, DW_AT_TI_call

        BL        clust2sect            ; [DPU_3_PIPE] |1239| 
        ; CALL OCCURS {clust2sect }      ; [] |1239| 
        LDR       A2, [SP, #0]          ; [DPU_3_PIPE] |1239| 
        STR       A1, [A2, #16]         ; [DPU_3_PIPE] |1239| 
;* --------------------------------------------------------------------------*
||$C$L92||:    
	.dwpsn	file "../ff.c",line 1244,column 3,is_stmt,isa 1
;----------------------------------------------------------------------
; 1244 | dp->index = (WORD)i;  /* Current index */                              
;----------------------------------------------------------------------
        LDRH      A1, [SP, #12]         ; [DPU_3_PIPE] |1244| 
        LDR       A2, [SP, #0]          ; [DPU_3_PIPE] |1244| 
        STRH      A1, [A2, #6]          ; [DPU_3_PIPE] |1244| 
	.dwpsn	file "../ff.c",line 1245,column 3,is_stmt,isa 1
;----------------------------------------------------------------------
; 1245 | dp->dir = dp->fs->win + (i % (SS(dp->fs) / SZ_DIR)) * SZ_DIR;  /* Curre
;     | nt entry in the window */                                              
;----------------------------------------------------------------------
        LDR       A1, [SP, #0]          ; [DPU_3_PIPE] |1245| 
        LDR       A2, [SP, #12]         ; [DPU_3_PIPE] |1245| 
        LDR       A3, [SP, #0]          ; [DPU_3_PIPE] |1245| 
        LDR       A1, [A1, #0]          ; [DPU_3_PIPE] |1245| 
        AND       A2, A2, #15           ; [DPU_3_PIPE] |1245| 
        ADD       A1, A1, A2, LSL #5    ; [DPU_3_PIPE] |1245| 
        ADDS      A1, A1, #52           ; [DPU_3_PIPE] |1245| 
        STR       A1, [A3, #20]         ; [DPU_3_PIPE] |1245| 
	.dwpsn	file "../ff.c",line 1247,column 3,is_stmt,isa 1
;----------------------------------------------------------------------
; 1247 | return FR_OK;                                                          
;----------------------------------------------------------------------
        MOVS      A1, #0                ; [DPU_3_PIPE] |1247| 
;* --------------------------------------------------------------------------*
||$C$L93||:    
	.dwpsn	file "../ff.c",line 1248,column 1,is_stmt,isa 1
        ADD       SP, SP, #20           ; [DPU_3_PIPE] 
	.dwcfi	cfa_offset, 4
$C$DW$170	.dwtag  DW_TAG_TI_branch
	.dwattr $C$DW$170, DW_AT_low_pc(0x00)
	.dwattr $C$DW$170, DW_AT_TI_return

        POP       {PC}                  ; [DPU_3_PIPE] 
	.dwcfi	cfa_offset, 0
        ; BRANCH OCCURS                  ; [] 
	.dwattr $C$DW$154, DW_AT_TI_end_file("../ff.c")
	.dwattr $C$DW$154, DW_AT_TI_end_line(0x4e0)
	.dwattr $C$DW$154, DW_AT_TI_end_column(0x01)
	.dwendentry
	.dwendtag $C$DW$154

	.sect	".text"
	.clink
	.thumbfunc dir_alloc
	.thumb

$C$DW$171	.dwtag  DW_TAG_subprogram
	.dwattr $C$DW$171, DW_AT_name("dir_alloc")
	.dwattr $C$DW$171, DW_AT_low_pc(dir_alloc)
	.dwattr $C$DW$171, DW_AT_high_pc(0x00)
	.dwattr $C$DW$171, DW_AT_TI_symbol_name("dir_alloc")
	.dwattr $C$DW$171, DW_AT_type(*$C$DW$T$45)
	.dwattr $C$DW$171, DW_AT_TI_begin_file("../ff.c")
	.dwattr $C$DW$171, DW_AT_TI_begin_line(0x4eb)
	.dwattr $C$DW$171, DW_AT_TI_begin_column(0x09)
	.dwattr $C$DW$171, DW_AT_decl_file("../ff.c")
	.dwattr $C$DW$171, DW_AT_decl_line(0x4eb)
	.dwattr $C$DW$171, DW_AT_decl_column(0x09)
	.dwattr $C$DW$171, DW_AT_TI_max_frame_size(0x18)
	.dwpsn	file "../ff.c",line 1263,column 1,is_stmt,address dir_alloc,isa 1

	.dwfde $C$DW$CIE, dir_alloc
$C$DW$172	.dwtag  DW_TAG_formal_parameter
	.dwattr $C$DW$172, DW_AT_name("dp")
	.dwattr $C$DW$172, DW_AT_TI_symbol_name("dp")
	.dwattr $C$DW$172, DW_AT_type(*$C$DW$T$53)
	.dwattr $C$DW$172, DW_AT_location[DW_OP_reg0]

$C$DW$173	.dwtag  DW_TAG_formal_parameter
	.dwattr $C$DW$173, DW_AT_name("nent")
	.dwattr $C$DW$173, DW_AT_TI_symbol_name("nent")
	.dwattr $C$DW$173, DW_AT_type(*$C$DW$T$35)
	.dwattr $C$DW$173, DW_AT_location[DW_OP_reg1]

;----------------------------------------------------------------------
; 1259 | FRESULT dir_alloc (                                                    
; 1260 | DIR* dp,  /* Pointer to the directory object */                        
; 1261 | UINT nent  /* Number of contiguous entries to allocate (1-21) */       
; 1262 | )                                                                      
;----------------------------------------------------------------------

;*****************************************************************************
;* FUNCTION NAME: dir_alloc                                                  *
;*                                                                           *
;*   Regs Modified     : A1,A2,A3,A4,V9,SP,LR,SR,D0,D0_hi,D1,D1_hi,D2,D2_hi, *
;*                           D3,D3_hi,D4,D4_hi,D5,D5_hi,D6,D6_hi,D7,D7_hi,   *
;*                           FPEXC,FPSCR                                     *
;*   Regs Used         : A1,A2,A3,A4,V9,SP,LR,SR,D0,D0_hi,D1,D1_hi,D2,D2_hi, *
;*                           D3,D3_hi,D4,D4_hi,D5,D5_hi,D6,D6_hi,D7,D7_hi,   *
;*                           FPEXC,FPSCR                                     *
;*   Local Frame Size  : 0 Args + 16 Auto + 4 Save = 20 byte                 *
;*****************************************************************************
dir_alloc:
;* --------------------------------------------------------------------------*
	.dwcfi	cfa_offset, 0
        PUSH      {LR}                  ; [DPU_3_PIPE] 
	.dwcfi	cfa_offset, 4
	.dwcfi	save_reg_to_mem, 14, -4
        SUB       SP, SP, #20           ; [DPU_3_PIPE] 
	.dwcfi	cfa_offset, 24
$C$DW$174	.dwtag  DW_TAG_variable
	.dwattr $C$DW$174, DW_AT_name("dp")
	.dwattr $C$DW$174, DW_AT_TI_symbol_name("dp")
	.dwattr $C$DW$174, DW_AT_type(*$C$DW$T$53)
	.dwattr $C$DW$174, DW_AT_location[DW_OP_breg13 0]

$C$DW$175	.dwtag  DW_TAG_variable
	.dwattr $C$DW$175, DW_AT_name("nent")
	.dwattr $C$DW$175, DW_AT_TI_symbol_name("nent")
	.dwattr $C$DW$175, DW_AT_type(*$C$DW$T$35)
	.dwattr $C$DW$175, DW_AT_location[DW_OP_breg13 4]

$C$DW$176	.dwtag  DW_TAG_variable
	.dwattr $C$DW$176, DW_AT_name("n")
	.dwattr $C$DW$176, DW_AT_TI_symbol_name("n")
	.dwattr $C$DW$176, DW_AT_type(*$C$DW$T$35)
	.dwattr $C$DW$176, DW_AT_location[DW_OP_breg13 8]

$C$DW$177	.dwtag  DW_TAG_variable
	.dwattr $C$DW$177, DW_AT_name("res")
	.dwattr $C$DW$177, DW_AT_TI_symbol_name("res")
	.dwattr $C$DW$177, DW_AT_type(*$C$DW$T$45)
	.dwattr $C$DW$177, DW_AT_location[DW_OP_breg13 12]

;----------------------------------------------------------------------
; 1264 | FRESULT res;                                                           
; 1265 | UINT n;                                                                
;----------------------------------------------------------------------
        STR       A2, [SP, #4]          ; [DPU_3_PIPE] |1263| 
        STR       A1, [SP, #0]          ; [DPU_3_PIPE] |1263| 
	.dwpsn	file "../ff.c",line 1268,column 3,is_stmt,isa 1
;----------------------------------------------------------------------
; 1268 | res = dir_sdi(dp, 0);                                                  
;----------------------------------------------------------------------
        LDR       A1, [SP, #0]          ; [DPU_3_PIPE] |1268| 
        MOVS      A2, #0                ; [DPU_3_PIPE] |1268| 
$C$DW$178	.dwtag  DW_TAG_TI_branch
	.dwattr $C$DW$178, DW_AT_low_pc(0x00)
	.dwattr $C$DW$178, DW_AT_name("dir_sdi")
	.dwattr $C$DW$178, DW_AT_TI_call

        BL        dir_sdi               ; [DPU_3_PIPE] |1268| 
        ; CALL OCCURS {dir_sdi }         ; [] |1268| 
        STRB      A1, [SP, #12]         ; [DPU_3_PIPE] |1268| 
	.dwpsn	file "../ff.c",line 1269,column 3,is_stmt,isa 1
;----------------------------------------------------------------------
; 1269 | if (res == FR_OK) {                                                    
;----------------------------------------------------------------------
        LDRB      A1, [SP, #12]         ; [DPU_3_PIPE] |1269| 
        CMP       A1, #0                ; [DPU_3_PIPE] |1269| 
        BNE       ||$C$L98||            ; [DPU_3_PIPE] |1269| 
        ; BRANCHCC OCCURS {||$C$L98||}   ; [] |1269| 
;* --------------------------------------------------------------------------*
	.dwpsn	file "../ff.c",line 1270,column 5,is_stmt,isa 1
;----------------------------------------------------------------------
; 1270 | n = 0;                                                                 
; 1271 | do {                                                                   
;----------------------------------------------------------------------
        MOVS      A1, #0                ; [DPU_3_PIPE] |1270| 
        STR       A1, [SP, #8]          ; [DPU_3_PIPE] |1270| 
;* --------------------------------------------------------------------------*
;*   BEGIN LOOP ||$C$L94||
;*
;*   Loop source line                : 1271
;*   Loop closing brace source line  : 1280
;*   Known Minimum Trip Count        : 1
;*   Known Maximum Trip Count        : 4294967295
;*   Known Max Trip Count Factor     : 1
;* --------------------------------------------------------------------------*
||$C$L94||:    
	.dwpsn	file "../ff.c",line 1272,column 7,is_stmt,isa 1
;----------------------------------------------------------------------
; 1272 | res = move_window(dp->fs, dp->sect);                                   
;----------------------------------------------------------------------
        LDR       A1, [SP, #0]          ; [DPU_3_PIPE] |1272| 
        LDR       A2, [SP, #0]          ; [DPU_3_PIPE] |1272| 
        LDR       A1, [A1, #0]          ; [DPU_3_PIPE] |1272| 
        LDR       A2, [A2, #16]         ; [DPU_3_PIPE] |1272| 
$C$DW$179	.dwtag  DW_TAG_TI_branch
	.dwattr $C$DW$179, DW_AT_low_pc(0x00)
	.dwattr $C$DW$179, DW_AT_name("move_window")
	.dwattr $C$DW$179, DW_AT_TI_call

        BL        move_window           ; [DPU_3_PIPE] |1272| 
        ; CALL OCCURS {move_window }     ; [] |1272| 
        STRB      A1, [SP, #12]         ; [DPU_3_PIPE] |1272| 
	.dwpsn	file "../ff.c",line 1273,column 7,is_stmt,isa 1
;----------------------------------------------------------------------
; 1273 | if (res != FR_OK) break;                                               
;----------------------------------------------------------------------
        LDRB      A1, [SP, #12]         ; [DPU_3_PIPE] |1273| 
        CBNZ      A1, ||$C$L98||        ; [] 
        ; BRANCHCC OCCURS {||$C$L98||}   ; [] |1273| 
;* --------------------------------------------------------------------------*
	.dwpsn	file "../ff.c",line 1273,column 25,is_stmt,isa 1
	.dwpsn	file "../ff.c",line 1274,column 7,is_stmt,isa 1
;----------------------------------------------------------------------
; 1274 | if (dp->dir[0] == DDE || dp->dir[0] == 0) {  /* Is it a free entry? */ 
;----------------------------------------------------------------------
        LDR       A1, [SP, #0]          ; [DPU_3_PIPE] |1274| 
        LDR       A1, [A1, #20]         ; [DPU_3_PIPE] |1274| 
        LDRB      A1, [A1, #0]          ; [DPU_3_PIPE] |1274| 
        CMP       A1, #229              ; [DPU_3_PIPE] |1274| 
        BEQ       ||$C$L95||            ; [DPU_3_PIPE] |1274| 
        ; BRANCHCC OCCURS {||$C$L95||}   ; [] |1274| 
;* --------------------------------------------------------------------------*
        LDR       A1, [SP, #0]          ; [DPU_3_PIPE] |1274| 
        LDR       A1, [A1, #20]         ; [DPU_3_PIPE] |1274| 
        LDRB      A1, [A1, #0]          ; [DPU_3_PIPE] |1274| 
        CBNZ      A1, ||$C$L96||        ; [] 
        ; BRANCHCC OCCURS {||$C$L96||}   ; [] |1274| 
;* --------------------------------------------------------------------------*
||$C$L95||:    
	.dwpsn	file "../ff.c",line 1275,column 9,is_stmt,isa 1
;----------------------------------------------------------------------
; 1275 | if (++n == nent) break;  /* A block of contiguous free entries is found
;     |  */                                                                    
;----------------------------------------------------------------------
        LDR       A1, [SP, #8]          ; [DPU_3_PIPE] |1275| 
        LDR       A2, [SP, #4]          ; [DPU_3_PIPE] |1275| 
        ADDS      A1, A1, #1            ; [DPU_3_PIPE] |1275| 
        STR       A1, [SP, #8]          ; [DPU_3_PIPE] |1275| 
        CMP       A2, A1                ; [DPU_3_PIPE] |1275| 
        BEQ       ||$C$L98||            ; [DPU_3_PIPE] |1275| 
        ; BRANCHCC OCCURS {||$C$L98||}   ; [] |1275| 
;* --------------------------------------------------------------------------*
	.dwpsn	file "../ff.c",line 1275,column 26,is_stmt,isa 1
	.dwpsn	file "../ff.c",line 1276,column 7,is_stmt,isa 1
;----------------------------------------------------------------------
; 1276 | } else {                                                               
;----------------------------------------------------------------------
        B         ||$C$L97||            ; [DPU_3_PIPE] |1276| 
        ; BRANCH OCCURS {||$C$L97||}     ; [] |1276| 
;* --------------------------------------------------------------------------*
||$C$L96||:    
	.dwpsn	file "../ff.c",line 1277,column 9,is_stmt,isa 1
;----------------------------------------------------------------------
; 1277 | n = 0;          /* Not a blank entry. Restart to search */             
;----------------------------------------------------------------------
        MOVS      A1, #0                ; [DPU_3_PIPE] |1277| 
        STR       A1, [SP, #8]          ; [DPU_3_PIPE] |1277| 
;* --------------------------------------------------------------------------*
||$C$L97||:    
	.dwpsn	file "../ff.c",line 1279,column 7,is_stmt,isa 1
;----------------------------------------------------------------------
; 1279 | res = dir_next(dp, 1);    /* Next entry with table stretch enabled */  
;----------------------------------------------------------------------
        LDR       A1, [SP, #0]          ; [DPU_3_PIPE] |1279| 
        MOVS      A2, #1                ; [DPU_3_PIPE] |1279| 
$C$DW$180	.dwtag  DW_TAG_TI_branch
	.dwattr $C$DW$180, DW_AT_low_pc(0x00)
	.dwattr $C$DW$180, DW_AT_name("dir_next")
	.dwattr $C$DW$180, DW_AT_TI_call

        BL        dir_next              ; [DPU_3_PIPE] |1279| 
        ; CALL OCCURS {dir_next }        ; [] |1279| 
        STRB      A1, [SP, #12]         ; [DPU_3_PIPE] |1279| 
	.dwpsn	file "../ff.c",line 1280,column 14,is_stmt,isa 1
;----------------------------------------------------------------------
; 1280 | } while (res == FR_OK);                                                
;----------------------------------------------------------------------
        LDRB      A1, [SP, #12]         ; [DPU_3_PIPE] |1280| 
        CMP       A1, #0                ; [DPU_3_PIPE] |1280| 
        BEQ       ||$C$L94||            ; [DPU_3_PIPE] |1280| 
        ; BRANCHCC OCCURS {||$C$L94||}   ; [] |1280| 
;* --------------------------------------------------------------------------*
||$C$L98||:    
	.dwpsn	file "../ff.c",line 1282,column 3,is_stmt,isa 1
;----------------------------------------------------------------------
; 1282 | if (res == FR_NO_FILE) res = FR_DENIED;  /* No directory entry to alloc
;     | ate */                                                                 
;----------------------------------------------------------------------
        LDRB      A1, [SP, #12]         ; [DPU_3_PIPE] |1282| 
        CMP       A1, #4                ; [DPU_3_PIPE] |1282| 
        BNE       ||$C$L99||            ; [DPU_3_PIPE] |1282| 
        ; BRANCHCC OCCURS {||$C$L99||}   ; [] |1282| 
;* --------------------------------------------------------------------------*
	.dwpsn	file "../ff.c",line 1282,column 26,is_stmt,isa 1
        MOVS      A1, #7                ; [DPU_3_PIPE] |1282| 
        STRB      A1, [SP, #12]         ; [DPU_3_PIPE] |1282| 
;* --------------------------------------------------------------------------*
||$C$L99||:    
	.dwpsn	file "../ff.c",line 1283,column 3,is_stmt,isa 1
;----------------------------------------------------------------------
; 1283 | return res;                                                            
;----------------------------------------------------------------------
        LDRB      A1, [SP, #12]         ; [DPU_3_PIPE] |1283| 
	.dwpsn	file "../ff.c",line 1284,column 1,is_stmt,isa 1
        ADD       SP, SP, #20           ; [DPU_3_PIPE] 
	.dwcfi	cfa_offset, 4
$C$DW$181	.dwtag  DW_TAG_TI_branch
	.dwattr $C$DW$181, DW_AT_low_pc(0x00)
	.dwattr $C$DW$181, DW_AT_TI_return

        POP       {PC}                  ; [DPU_3_PIPE] 
	.dwcfi	cfa_offset, 0
        ; BRANCH OCCURS                  ; [] 
	.dwattr $C$DW$171, DW_AT_TI_end_file("../ff.c")
	.dwattr $C$DW$171, DW_AT_TI_end_line(0x504)
	.dwattr $C$DW$171, DW_AT_TI_end_column(0x01)
	.dwendentry
	.dwendtag $C$DW$171

	.sect	".text"
	.clink
	.thumbfunc ld_clust
	.thumb

$C$DW$182	.dwtag  DW_TAG_subprogram
	.dwattr $C$DW$182, DW_AT_name("ld_clust")
	.dwattr $C$DW$182, DW_AT_low_pc(ld_clust)
	.dwattr $C$DW$182, DW_AT_high_pc(0x00)
	.dwattr $C$DW$182, DW_AT_TI_symbol_name("ld_clust")
	.dwattr $C$DW$182, DW_AT_type(*$C$DW$T$21)
	.dwattr $C$DW$182, DW_AT_TI_begin_file("../ff.c")
	.dwattr $C$DW$182, DW_AT_TI_begin_line(0x50f)
	.dwattr $C$DW$182, DW_AT_TI_begin_column(0x07)
	.dwattr $C$DW$182, DW_AT_decl_file("../ff.c")
	.dwattr $C$DW$182, DW_AT_decl_line(0x50f)
	.dwattr $C$DW$182, DW_AT_decl_column(0x07)
	.dwattr $C$DW$182, DW_AT_TI_max_frame_size(0x10)
	.dwpsn	file "../ff.c",line 1299,column 1,is_stmt,address ld_clust,isa 1

	.dwfde $C$DW$CIE, ld_clust
$C$DW$183	.dwtag  DW_TAG_formal_parameter
	.dwattr $C$DW$183, DW_AT_name("fs")
	.dwattr $C$DW$183, DW_AT_TI_symbol_name("fs")
	.dwattr $C$DW$183, DW_AT_type(*$C$DW$T$25)
	.dwattr $C$DW$183, DW_AT_location[DW_OP_reg0]

$C$DW$184	.dwtag  DW_TAG_formal_parameter
	.dwattr $C$DW$184, DW_AT_name("dir")
	.dwattr $C$DW$184, DW_AT_TI_symbol_name("dir")
	.dwattr $C$DW$184, DW_AT_type(*$C$DW$T$26)
	.dwattr $C$DW$184, DW_AT_location[DW_OP_reg1]

;----------------------------------------------------------------------
; 1295 | DWORD ld_clust (                                                       
; 1296 | FATFS* fs,  /* Pointer to the fs object */                             
; 1297 | BYTE* dir  /* Pointer to the directory entry */                        
; 1298 | )                                                                      
;----------------------------------------------------------------------

;*****************************************************************************
;* FUNCTION NAME: ld_clust                                                   *
;*                                                                           *
;*   Regs Modified     : A1,A2,A3,SP,SR                                      *
;*   Regs Used         : A1,A2,A3,SP,LR,SR                                   *
;*   Local Frame Size  : 0 Args + 12 Auto + 0 Save = 12 byte                 *
;*****************************************************************************
ld_clust:
;* --------------------------------------------------------------------------*
	.dwcfi	cfa_offset, 0
        SUB       SP, SP, #16           ; [DPU_3_PIPE] 
	.dwcfi	cfa_offset, 16
$C$DW$185	.dwtag  DW_TAG_variable
	.dwattr $C$DW$185, DW_AT_name("fs")
	.dwattr $C$DW$185, DW_AT_TI_symbol_name("fs")
	.dwattr $C$DW$185, DW_AT_type(*$C$DW$T$25)
	.dwattr $C$DW$185, DW_AT_location[DW_OP_breg13 0]

$C$DW$186	.dwtag  DW_TAG_variable
	.dwattr $C$DW$186, DW_AT_name("dir")
	.dwattr $C$DW$186, DW_AT_TI_symbol_name("dir")
	.dwattr $C$DW$186, DW_AT_type(*$C$DW$T$26)
	.dwattr $C$DW$186, DW_AT_location[DW_OP_breg13 4]

$C$DW$187	.dwtag  DW_TAG_variable
	.dwattr $C$DW$187, DW_AT_name("cl")
	.dwattr $C$DW$187, DW_AT_TI_symbol_name("cl")
	.dwattr $C$DW$187, DW_AT_type(*$C$DW$T$21)
	.dwattr $C$DW$187, DW_AT_location[DW_OP_breg13 8]

;----------------------------------------------------------------------
; 1300 | DWORD cl;                                                              
;----------------------------------------------------------------------
        STR       A2, [SP, #4]          ; [DPU_3_PIPE] |1299| 
        STR       A1, [SP, #0]          ; [DPU_3_PIPE] |1299| 
	.dwpsn	file "../ff.c",line 1302,column 3,is_stmt,isa 1
;----------------------------------------------------------------------
; 1302 | cl = LD_WORD(dir+DIR_FstClusLO);                                       
;----------------------------------------------------------------------
        LDR       A2, [SP, #4]          ; [DPU_3_PIPE] |1302| 
        LDR       A1, [SP, #4]          ; [DPU_3_PIPE] |1302| 
        LDRB      A2, [A2, #27]         ; [DPU_3_PIPE] |1302| 
        LDRB      A1, [A1, #26]         ; [DPU_3_PIPE] |1302| 
        ORR       A1, A1, A2, LSL #8    ; [DPU_3_PIPE] |1302| 
        UXTH      A1, A1                ; [DPU_3_PIPE] |1302| 
        STR       A1, [SP, #8]          ; [DPU_3_PIPE] |1302| 
	.dwpsn	file "../ff.c",line 1303,column 3,is_stmt,isa 1
;----------------------------------------------------------------------
; 1303 | if (fs->fs_type == FS_FAT32)                                           
;----------------------------------------------------------------------
        LDR       A1, [SP, #0]          ; [DPU_3_PIPE] |1303| 
        LDRB      A1, [A1, #0]          ; [DPU_3_PIPE] |1303| 
        CMP       A1, #3                ; [DPU_3_PIPE] |1303| 
        BNE       ||$C$L100||           ; [DPU_3_PIPE] |1303| 
        ; BRANCHCC OCCURS {||$C$L100||}  ; [] |1303| 
;* --------------------------------------------------------------------------*
	.dwpsn	file "../ff.c",line 1304,column 5,is_stmt,isa 1
;----------------------------------------------------------------------
; 1304 | cl |= (DWORD)LD_WORD(dir+DIR_FstClusHI) << 16;                         
;----------------------------------------------------------------------
        LDR       A2, [SP, #4]          ; [DPU_3_PIPE] |1304| 
        LDR       A1, [SP, #4]          ; [DPU_3_PIPE] |1304| 
        LDRB      A3, [A2, #21]         ; [DPU_3_PIPE] |1304| 
        LDRB      A1, [A1, #20]         ; [DPU_3_PIPE] |1304| 
        LDR       A2, [SP, #8]          ; [DPU_3_PIPE] |1304| 
        ORR       A1, A1, A3, LSL #8    ; [DPU_3_PIPE] |1304| 
        UXTH      A1, A1                ; [DPU_3_PIPE] |1304| 
        ORR       A2, A2, A1, LSL #16   ; [DPU_3_PIPE] |1304| 
        STR       A2, [SP, #8]          ; [DPU_3_PIPE] |1304| 
;* --------------------------------------------------------------------------*
||$C$L100||:    
	.dwpsn	file "../ff.c",line 1306,column 3,is_stmt,isa 1
;----------------------------------------------------------------------
; 1306 | return cl;                                                             
;----------------------------------------------------------------------
        LDR       A1, [SP, #8]          ; [DPU_3_PIPE] |1306| 
	.dwpsn	file "../ff.c",line 1307,column 1,is_stmt,isa 1
        ADD       SP, SP, #16           ; [DPU_3_PIPE] 
	.dwcfi	cfa_offset, 0
$C$DW$188	.dwtag  DW_TAG_TI_branch
	.dwattr $C$DW$188, DW_AT_low_pc(0x00)
	.dwattr $C$DW$188, DW_AT_TI_return

        BX        LR                    ; [DPU_3_PIPE] 
        ; BRANCH OCCURS                  ; [] 
	.dwattr $C$DW$182, DW_AT_TI_end_file("../ff.c")
	.dwattr $C$DW$182, DW_AT_TI_end_line(0x51b)
	.dwattr $C$DW$182, DW_AT_TI_end_column(0x01)
	.dwendentry
	.dwendtag $C$DW$182

	.sect	".text"
	.clink
	.thumbfunc st_clust
	.thumb

$C$DW$189	.dwtag  DW_TAG_subprogram
	.dwattr $C$DW$189, DW_AT_name("st_clust")
	.dwattr $C$DW$189, DW_AT_low_pc(st_clust)
	.dwattr $C$DW$189, DW_AT_high_pc(0x00)
	.dwattr $C$DW$189, DW_AT_TI_symbol_name("st_clust")
	.dwattr $C$DW$189, DW_AT_TI_begin_file("../ff.c")
	.dwattr $C$DW$189, DW_AT_TI_begin_line(0x520)
	.dwattr $C$DW$189, DW_AT_TI_begin_column(0x06)
	.dwattr $C$DW$189, DW_AT_decl_file("../ff.c")
	.dwattr $C$DW$189, DW_AT_decl_line(0x520)
	.dwattr $C$DW$189, DW_AT_decl_column(0x06)
	.dwattr $C$DW$189, DW_AT_TI_max_frame_size(0x08)
	.dwpsn	file "../ff.c",line 1316,column 1,is_stmt,address st_clust,isa 1

	.dwfde $C$DW$CIE, st_clust
$C$DW$190	.dwtag  DW_TAG_formal_parameter
	.dwattr $C$DW$190, DW_AT_name("dir")
	.dwattr $C$DW$190, DW_AT_TI_symbol_name("dir")
	.dwattr $C$DW$190, DW_AT_type(*$C$DW$T$26)
	.dwattr $C$DW$190, DW_AT_location[DW_OP_reg0]

$C$DW$191	.dwtag  DW_TAG_formal_parameter
	.dwattr $C$DW$191, DW_AT_name("cl")
	.dwattr $C$DW$191, DW_AT_TI_symbol_name("cl")
	.dwattr $C$DW$191, DW_AT_type(*$C$DW$T$21)
	.dwattr $C$DW$191, DW_AT_location[DW_OP_reg1]

;----------------------------------------------------------------------
; 1312 | void st_clust (                                                        
; 1313 | BYTE* dir,  /* Pointer to the directory entry */                       
; 1314 | DWORD cl  /* Value to be set */                                        
; 1315 | )                                                                      
;----------------------------------------------------------------------

;*****************************************************************************
