TI ARM Assembler PC v16.9.6 Sun Dec 02 13:28:41 2018

Tools Copyright (c) 1996-2017 Texas Instruments Incorporated
ff.asm                                                               PAGE    1

       1                    ;******************************************************************************
       2                    ;* TI ARM C/C++ Codegen                                        PC v16.9.6.LTS *
       3                    ;* Date/Time created: Sun Dec 02 13:28:37 2018                                *
       4                    ;******************************************************************************
       5                            .compiler_opts --abi=eabi --arm_vmrs_si_workaround=off --code_state=16 --diag_wrap=off --embed
       6 00000000                   .thumb
       7                    
       8                    $C$DW$CU        .dwtag  DW_TAG_compile_unit
       9                            .dwattr $C$DW$CU, DW_AT_name("../ff.c")
      10                            .dwattr $C$DW$CU, DW_AT_producer("TI TI ARM C/C++ Codegen PC v16.9.6.LTS Copyright (c) 1996-20
      11                            .dwattr $C$DW$CU, DW_AT_TI_version(0x01)
      12                            .dwattr $C$DW$CU, DW_AT_comp_dir("C:\Users\brian\Documents\EE445L\Lab11\Test\Debug")
      13                    
      14                    $C$DW$1 .dwtag  DW_TAG_subprogram
      15                            .dwattr $C$DW$1, DW_AT_name("disk_initialize")
      16                            .dwattr $C$DW$1, DW_AT_TI_symbol_name("disk_initialize")
      17                            .dwattr $C$DW$1, DW_AT_type(*$C$DW$T$109)
      18                            .dwattr $C$DW$1, DW_AT_declaration
      19                            .dwattr $C$DW$1, DW_AT_external
      20                            .dwattr $C$DW$1, DW_AT_decl_file("..\diskio.h")
      21                            .dwattr $C$DW$1, DW_AT_decl_line(0x2a)
      22                            .dwattr $C$DW$1, DW_AT_decl_column(0x09)
      23                    $C$DW$2 .dwtag  DW_TAG_formal_parameter
      24                            .dwattr $C$DW$2, DW_AT_type(*$C$DW$T$19)
      25                    
      26                            .dwendtag $C$DW$1
      27                    
      28                    
      29                    $C$DW$3 .dwtag  DW_TAG_subprogram
      30                            .dwattr $C$DW$3, DW_AT_name("disk_status")
      31                            .dwattr $C$DW$3, DW_AT_TI_symbol_name("disk_status")
      32                            .dwattr $C$DW$3, DW_AT_type(*$C$DW$T$109)
      33                            .dwattr $C$DW$3, DW_AT_declaration
      34                            .dwattr $C$DW$3, DW_AT_external
      35                            .dwattr $C$DW$3, DW_AT_decl_file("..\diskio.h")
      36                            .dwattr $C$DW$3, DW_AT_decl_line(0x31)
      37                            .dwattr $C$DW$3, DW_AT_decl_column(0x09)
      38                    $C$DW$4 .dwtag  DW_TAG_formal_parameter
      39                            .dwattr $C$DW$4, DW_AT_type(*$C$DW$T$19)
      40                    
      41                            .dwendtag $C$DW$3
      42                    
      43                    
      44                    $C$DW$5 .dwtag  DW_TAG_subprogram
      45                            .dwattr $C$DW$5, DW_AT_name("disk_read")
      46                            .dwattr $C$DW$5, DW_AT_TI_symbol_name("disk_read")
      47                            .dwattr $C$DW$5, DW_AT_type(*$C$DW$T$34)
      48                            .dwattr $C$DW$5, DW_AT_declaration
      49                            .dwattr $C$DW$5, DW_AT_external
      50                            .dwattr $C$DW$5, DW_AT_decl_file("..\diskio.h")
      51                            .dwattr $C$DW$5, DW_AT_decl_line(0x3b)
      52                            .dwattr $C$DW$5, DW_AT_decl_column(0x09)
      53                    $C$DW$6 .dwtag  DW_TAG_formal_parameter
      54                            .dwattr $C$DW$6, DW_AT_type(*$C$DW$T$19)
      55                    
TI ARM Assembler PC v16.9.6 Sun Dec 02 13:28:41 2018

Tools Copyright (c) 1996-2017 Texas Instruments Incorporated
ff.asm                                                               PAGE    2

      56                    $C$DW$7 .dwtag  DW_TAG_formal_parameter
      57                            .dwattr $C$DW$7, DW_AT_type(*$C$DW$T$26)
      58                    
      59                    $C$DW$8 .dwtag  DW_TAG_formal_parameter
      60                            .dwattr $C$DW$8, DW_AT_type(*$C$DW$T$21)
      61                    
      62                    $C$DW$9 .dwtag  DW_TAG_formal_parameter
      63                            .dwattr $C$DW$9, DW_AT_type(*$C$DW$T$35)
      64                    
      65                            .dwendtag $C$DW$5
      66                    
      67                    
      68                    $C$DW$10        .dwtag  DW_TAG_subprogram
      69                            .dwattr $C$DW$10, DW_AT_name("disk_write")
      70                            .dwattr $C$DW$10, DW_AT_TI_symbol_name("disk_write")
      71                            .dwattr $C$DW$10, DW_AT_type(*$C$DW$T$34)
      72                            .dwattr $C$DW$10, DW_AT_declaration
      73                            .dwattr $C$DW$10, DW_AT_external
      74                            .dwattr $C$DW$10, DW_AT_decl_file("..\diskio.h")
      75                            .dwattr $C$DW$10, DW_AT_decl_line(0x47)
      76                            .dwattr $C$DW$10, DW_AT_decl_column(0x09)
      77                    $C$DW$11        .dwtag  DW_TAG_formal_parameter
      78                            .dwattr $C$DW$11, DW_AT_type(*$C$DW$T$19)
      79                    
      80                    $C$DW$12        .dwtag  DW_TAG_formal_parameter
      81                            .dwattr $C$DW$12, DW_AT_type(*$C$DW$T$39)
      82                    
      83                    $C$DW$13        .dwtag  DW_TAG_formal_parameter
      84                            .dwattr $C$DW$13, DW_AT_type(*$C$DW$T$21)
      85                    
      86                    $C$DW$14        .dwtag  DW_TAG_formal_parameter
      87                            .dwattr $C$DW$14, DW_AT_type(*$C$DW$T$35)
      88                    
      89                            .dwendtag $C$DW$10
      90                    
      91                    
      92                    $C$DW$15        .dwtag  DW_TAG_subprogram
      93                            .dwattr $C$DW$15, DW_AT_name("disk_ioctl")
      94                            .dwattr $C$DW$15, DW_AT_TI_symbol_name("disk_ioctl")
      95                            .dwattr $C$DW$15, DW_AT_type(*$C$DW$T$34)
      96                            .dwattr $C$DW$15, DW_AT_declaration
      97                            .dwattr $C$DW$15, DW_AT_external
      98                            .dwattr $C$DW$15, DW_AT_decl_file("..\diskio.h")
      99                            .dwattr $C$DW$15, DW_AT_decl_line(0x51)
     100                            .dwattr $C$DW$15, DW_AT_decl_column(0x09)
     101                    $C$DW$16        .dwtag  DW_TAG_formal_parameter
     102                            .dwattr $C$DW$16, DW_AT_type(*$C$DW$T$19)
     103                    
     104                    $C$DW$17        .dwtag  DW_TAG_formal_parameter
     105                            .dwattr $C$DW$17, DW_AT_type(*$C$DW$T$19)
     106                    
     107                    $C$DW$18        .dwtag  DW_TAG_formal_parameter
     108                            .dwattr $C$DW$18, DW_AT_type(*$C$DW$T$3)
     109                    
     110                            .dwendtag $C$DW$15
TI ARM Assembler PC v16.9.6 Sun Dec 02 13:28:41 2018

Tools Copyright (c) 1996-2017 Texas Instruments Incorporated
ff.asm                                                               PAGE    3

     111                    
     112 00000000           FatFs:  .usect  ".bss:FatFs",4,4
     113                            .clink ".bss:FatFs"
     114                    $C$DW$19        .dwtag  DW_TAG_variable
     115                            .dwattr $C$DW$19, DW_AT_name("FatFs")
     116                            .dwattr $C$DW$19, DW_AT_TI_symbol_name("FatFs")
     117                            .dwattr $C$DW$19, DW_AT_type(*$C$DW$T$100)
     118                            .dwattr $C$DW$19, DW_AT_location[DW_OP_addr FatFs]
     119                            .dwattr $C$DW$19, DW_AT_decl_file("../ff.c")
     120                            .dwattr $C$DW$19, DW_AT_decl_line(0x1fe)
     121                            .dwattr $C$DW$19, DW_AT_decl_column(0x0f)
     122                    
     123 00000000                   .bss    Fsid,2,2
     124                    $C$DW$20        .dwtag  DW_TAG_variable
     125                            .dwattr $C$DW$20, DW_AT_name("Fsid")
     126                            .dwattr $C$DW$20, DW_AT_TI_symbol_name("Fsid")
     127                            .dwattr $C$DW$20, DW_AT_type(*$C$DW$T$20)
     128                            .dwattr $C$DW$20, DW_AT_location[DW_OP_addr Fsid]
     129                            .dwattr $C$DW$20, DW_AT_decl_file("../ff.c")
     130                            .dwattr $C$DW$20, DW_AT_decl_line(0x1ff)
     131                            .dwattr $C$DW$20, DW_AT_decl_column(0x0d)
     132                    
     133 00000000                   .sect   ".const:vst$1"
     134                            .clink
     135                            .align  2
     136                            .elfsym vst$1,SYM_SIZE(24)
     137 00000000           vst$1:
     138 00000000 00000400          .bits   1024,16                 ; vst$1[0] @ 0
     139 00000000 02000400          .bits   512,16                  ; vst$1[1] @ 16
     140 00000004 00000100          .bits   256,16                  ; vst$1[2] @ 32
     141 00000004 00800100          .bits   128,16                  ; vst$1[3] @ 48
     142 00000008 00000040          .bits   64,16                   ; vst$1[4] @ 64
     143 00000008 00200040          .bits   32,16                   ; vst$1[5] @ 80
     144 0000000c 00000010          .bits   16,16                   ; vst$1[6] @ 96
     145 0000000c 00080010          .bits   8,16                    ; vst$1[7] @ 112
     146 00000010 00000004          .bits   4,16                    ; vst$1[8] @ 128
     147 00000010 00020004          .bits   2,16                    ; vst$1[9] @ 144
     148 00000014 00000000          .bits   0,16                    ; vst$1[10] @ 160
     149                    
     150 00000000                   .sect   ".const:cst$2"
     151                            .clink
     152                            .align  2
     153                            .elfsym cst$2,SYM_SIZE(24)
     154 00000000           cst$2:
     155 00000000 00008000          .bits   32768,16                        ; cst$2[0] @ 0
     156 00000000 40008000          .bits   16384,16                        ; cst$2[1] @ 16
     157 00000004 00002000          .bits   8192,16                 ; cst$2[2] @ 32
     158 00000004 10002000          .bits   4096,16                 ; cst$2[3] @ 48
     159 00000008 00000800          .bits   2048,16                 ; cst$2[4] @ 64
     160 00000008 40000800          .bits   16384,16                        ; cst$2[5] @ 80
     161 0000000c 00002000          .bits   8192,16                 ; cst$2[6] @ 96
     162 0000000c 10002000          .bits   4096,16                 ; cst$2[7] @ 112
     163 00000010 00000800          .bits   2048,16                 ; cst$2[8] @ 128
     164 00000010 04000800          .bits   1024,16                 ; cst$2[9] @ 144
     165 00000014 00000200          .bits   512,16                  ; cst$2[10] @ 160
TI ARM Assembler PC v16.9.6 Sun Dec 02 13:28:41 2018

Tools Copyright (c) 1996-2017 Texas Instruments Incorporated
ff.asm                                                               PAGE    4

     166                    
     167                    ;       C:\ti\ccsv7\tools\compiler\ti-cgt-arm_16.9.6.LTS\bin\armacpia.exe -@C:\\Users\\brian\\AppData\
     168 00000000                   .sect   ".text"
     169                            .clink
     170                            .thumbfunc mem_cpy
     171 00000000                   .thumb
     172                    
     173                    $C$DW$21        .dwtag  DW_TAG_subprogram
     174                            .dwattr $C$DW$21, DW_AT_name("mem_cpy")
     175                            .dwattr $C$DW$21, DW_AT_low_pc(mem_cpy)
     176                            .dwattr $C$DW$21, DW_AT_high_pc(0x00)
     177                            .dwattr $C$DW$21, DW_AT_TI_symbol_name("mem_cpy")
     178                            .dwattr $C$DW$21, DW_AT_TI_begin_file("../ff.c")
     179                            .dwattr $C$DW$21, DW_AT_TI_begin_line(0x239)
     180                            .dwattr $C$DW$21, DW_AT_TI_begin_column(0x06)
     181                            .dwattr $C$DW$21, DW_AT_decl_file("../ff.c")
     182                            .dwattr $C$DW$21, DW_AT_decl_line(0x239)
     183                            .dwattr $C$DW$21, DW_AT_decl_column(0x06)
     184                            .dwattr $C$DW$21, DW_AT_TI_max_frame_size(0x18)
     185                            .dwpsn  file "../ff.c",line 569,column 53,is_stmt,address mem_cpy,isa 1
     186                    
     187                            .dwfde $C$DW$CIE, mem_cpy
     188                    $C$DW$22        .dwtag  DW_TAG_formal_parameter
     189                            .dwattr $C$DW$22, DW_AT_name("dst")
     190                            .dwattr $C$DW$22, DW_AT_TI_symbol_name("dst")
     191                            .dwattr $C$DW$22, DW_AT_type(*$C$DW$T$3)
     192                            .dwattr $C$DW$22, DW_AT_location[DW_OP_reg0]
     193                    
     194                    $C$DW$23        .dwtag  DW_TAG_formal_parameter
     195                            .dwattr $C$DW$23, DW_AT_name("src")
     196                            .dwattr $C$DW$23, DW_AT_TI_symbol_name("src")
     197                            .dwattr $C$DW$23, DW_AT_type(*$C$DW$T$79)
     198                            .dwattr $C$DW$23, DW_AT_location[DW_OP_reg1]
     199                    
     200                    $C$DW$24        .dwtag  DW_TAG_formal_parameter
     201                            .dwattr $C$DW$24, DW_AT_name("cnt")
     202                            .dwattr $C$DW$24, DW_AT_TI_symbol_name("cnt")
     203                            .dwattr $C$DW$24, DW_AT_type(*$C$DW$T$35)
     204                            .dwattr $C$DW$24, DW_AT_location[DW_OP_reg2]
     205                    
     206                    
     207                    ;*****************************************************************************
     208                    ;* FUNCTION NAME: mem_cpy                                                    *
     209                    ;*                                                                           *
     210                    ;*   Regs Modified     : A1,A2,A3,SP,SR                                      *
     211                    ;*   Regs Used         : A1,A2,A3,SP,LR,SR                                   *
     212                    ;*   Local Frame Size  : 0 Args + 20 Auto + 0 Save = 20 byte                 *
     213                    ;*****************************************************************************
     214 00000000           mem_cpy:
     215                    ;* --------------------------------------------------------------------------*
     216                            .dwcfi  cfa_offset, 0
     217 00000000 0D18F1AD          SUB       SP, SP, #24           ; [DPU_3_PIPE]  ; [KEEP 32-BIT INS]
     218                            .dwcfi  cfa_offset, 24
     219                    $C$DW$25        .dwtag  DW_TAG_variable
     220                            .dwattr $C$DW$25, DW_AT_name("dst")
TI ARM Assembler PC v16.9.6 Sun Dec 02 13:28:41 2018

Tools Copyright (c) 1996-2017 Texas Instruments Incorporated
ff.asm                                                               PAGE    5

     221                            .dwattr $C$DW$25, DW_AT_TI_symbol_name("dst")
     222                            .dwattr $C$DW$25, DW_AT_type(*$C$DW$T$3)
     223                            .dwattr $C$DW$25, DW_AT_location[DW_OP_breg13 0]
     224                    
     225                    $C$DW$26        .dwtag  DW_TAG_variable
     226                            .dwattr $C$DW$26, DW_AT_name("src")
     227                            .dwattr $C$DW$26, DW_AT_TI_symbol_name("src")
     228                            .dwattr $C$DW$26, DW_AT_type(*$C$DW$T$79)
     229                            .dwattr $C$DW$26, DW_AT_location[DW_OP_breg13 4]
     230                    
     231                    $C$DW$27        .dwtag  DW_TAG_variable
     232                            .dwattr $C$DW$27, DW_AT_name("cnt")
     233                            .dwattr $C$DW$27, DW_AT_TI_symbol_name("cnt")
     234                            .dwattr $C$DW$27, DW_AT_type(*$C$DW$T$35)
     235                            .dwattr $C$DW$27, DW_AT_location[DW_OP_breg13 8]
     236                    
     237                    $C$DW$28        .dwtag  DW_TAG_variable
     238                            .dwattr $C$DW$28, DW_AT_name("d")
     239                            .dwattr $C$DW$28, DW_AT_TI_symbol_name("d")
     240                            .dwattr $C$DW$28, DW_AT_type(*$C$DW$T$26)
     241                            .dwattr $C$DW$28, DW_AT_location[DW_OP_breg13 12]
     242                    
     243                    $C$DW$29        .dwtag  DW_TAG_variable
     244                            .dwattr $C$DW$29, DW_AT_name("s")
     245                            .dwattr $C$DW$29, DW_AT_TI_symbol_name("s")
     246                            .dwattr $C$DW$29, DW_AT_type(*$C$DW$T$39)
     247                            .dwattr $C$DW$29, DW_AT_location[DW_OP_breg13 16]
     248                    
     249                    ;----------------------------------------------------------------------
     250                    ; 569 | void mem_cpy (void* dst, const void* src, UINT cnt) {                  
     251                    ;----------------------------------------------------------------------
     252 00000004 9202              STR       A3, [SP, #8]          ; [DPU_3_PIPE] |569|  ; [ORIG 16-BIT INS]
     253 00000006 9101              STR       A2, [SP, #4]          ; [DPU_3_PIPE] |569|  ; [ORIG 16-BIT INS]
     254 00000008 9000              STR       A1, [SP, #0]          ; [DPU_3_PIPE] |569|  ; [ORIG 16-BIT INS]
     255                            .dwpsn  file "../ff.c",line 570,column 11,is_stmt,isa 1
     256                    ;----------------------------------------------------------------------
     257                    ; 570 | BYTE *d = (BYTE*)dst;                                                  
     258                    ;----------------------------------------------------------------------
     259 0000000a 9800              LDR       A1, [SP, #0]          ; [DPU_3_PIPE] |570|  ; [ORIG 16-BIT INS]
     260 0000000c 9003              STR       A1, [SP, #12]         ; [DPU_3_PIPE] |570|  ; [ORIG 16-BIT INS]
     261                            .dwpsn  file "../ff.c",line 571,column 17,is_stmt,isa 1
     262                    ;----------------------------------------------------------------------
     263                    ; 571 | const BYTE *s = (const BYTE*)src;                                      
     264                    ; 573 | #if _WORD_ACCESS == 1                                                  
     265                    ; 574 | while (cnt >= sizeof (int)) {                                          
     266                    ; 575 |   *(int*)d = *(int*)s;                                                 
     267                    ; 576 |   d += sizeof (int); s += sizeof (int);                                
     268                    ; 577 |   cnt -= sizeof (int);                                                 
     269                    ; 579 | #endif                                                                 
     270                    ;----------------------------------------------------------------------
     271 0000000e 9801              LDR       A1, [SP, #4]          ; [DPU_3_PIPE] |571|  ; [ORIG 16-BIT INS]
     272 00000010 9004              STR       A1, [SP, #16]         ; [DPU_3_PIPE] |571|  ; [ORIG 16-BIT INS]
     273                            .dwpsn  file "../ff.c",line 580,column 3,is_stmt,isa 1
     274                    ;----------------------------------------------------------------------
     275                    ; 580 | while (cnt--)                                                          
TI ARM Assembler PC v16.9.6 Sun Dec 02 13:28:41 2018

Tools Copyright (c) 1996-2017 Texas Instruments Incorporated
ff.asm                                                               PAGE    6

     276                    ;----------------------------------------------------------------------
     277 00000012 9802              LDR       A1, [SP, #8]          ; [DPU_3_PIPE] |580|  ; [ORIG 16-BIT INS]
     278 00000014 1E41              SUBS      A2, A1, #1            ; [DPU_3_PIPE] |580|  ; [ORIG 16-BIT INS]
     279 00000016 9102              STR       A2, [SP, #8]          ; [DPU_3_PIPE] |580|  ; [ORIG 16-BIT INS]
     280 00000018 B168              CBZ       A1, ||$C$L2||         ; []  ; [ORIG 16-BIT INS]
     281                            ; BRANCHCC OCCURS {||$C$L2||}    ; [] |580| 
     282                    ;* --------------------------------------------------------------------------*
     283                    ;*   BEGIN LOOP ||$C$L1||
     284                    ;*
     285                    ;*   Loop source line                : 580
     286                    ;*   Loop closing brace source line  : 581
     287                    ;*   Known Minimum Trip Count        : 1
     288                    ;*   Known Maximum Trip Count        : 4294967295
     289                    ;*   Known Max Trip Count Factor     : 1
     290                    ;* --------------------------------------------------------------------------*
     291 0000001a           ||$C$L1||:    
     292                            .dwpsn  file "../ff.c",line 581,column 5,is_stmt,isa 1
     293                    ;----------------------------------------------------------------------
     294                    ; 581 | *d++ = *s++;                                                           
     295                    ;----------------------------------------------------------------------
     296 0000001a 9904              LDR       A2, [SP, #16]         ; [DPU_3_PIPE] |581|  ; [ORIG 16-BIT INS]
     297 0000001c 9803              LDR       A1, [SP, #12]         ; [DPU_3_PIPE] |581|  ; [ORIG 16-BIT INS]
     298 0000001e 2B01F811          LDRB      A3, [A2], #1          ; [DPU_3_PIPE] |581|  ; [KEEP 32-BIT INS]
     299 00000022 9104              STR       A2, [SP, #16]         ; [DPU_3_PIPE] |581|  ; [ORIG 16-BIT INS]
     300 00000024 1C41              ADDS      A2, A1, #1            ; [DPU_3_PIPE] |581|  ; [ORIG 16-BIT INS]
     301 00000026 9103              STR       A2, [SP, #12]         ; [DPU_3_PIPE] |581|  ; [ORIG 16-BIT INS]
     302 00000028 7002              STRB      A3, [A1, #0]          ; [DPU_3_PIPE] |581|  ; [ORIG 16-BIT INS]
     303                            .dwpsn  file "../ff.c",line 580,column 3,is_stmt,isa 1
     304 0000002a 9802              LDR       A1, [SP, #8]          ; [DPU_3_PIPE] |580|  ; [ORIG 16-BIT INS]
     305 0000002c 2800              CMP       A1, #0                ; [DPU_3_PIPE] |580|  ; [ORIG 16-BIT INS]
     306 0000002e 0101F1A0          SUB       A2, A1, #1            ; [DPU_3_PIPE] |580|  ; [KEEP 32-BIT INS]
     307 00000032 9102              STR       A2, [SP, #8]          ; [DPU_3_PIPE] |580|  ; [ORIG 16-BIT INS]
     308 00000034 D1F1              BNE       ||$C$L1||             ; [DPU_3_PIPE] |580|  ; [ORIG 16-BIT INS]
     309                            ; BRANCHCC OCCURS {||$C$L1||}    ; [] |580| 
     310                    ;* --------------------------------------------------------------------------*
     311                            .dwpsn  file "../ff.c",line 582,column 1,is_stmt,isa 1
     312                    ;* --------------------------------------------------------------------------*
     313 00000036           ||$C$L2||:    
     314 00000036 B006              ADD       SP, SP, #24           ; [DPU_3_PIPE]  ; [ORIG 16-BIT INS]
     315                            .dwcfi  cfa_offset, 0
     316                    $C$DW$30        .dwtag  DW_TAG_TI_branch
     317                            .dwattr $C$DW$30, DW_AT_low_pc(0x00)
     318                            .dwattr $C$DW$30, DW_AT_TI_return
     319                    
     320 00000038 4770              BX        LR                    ; [DPU_3_PIPE]  ; [ORIG 16-BIT INS]
     321                            ; BRANCH OCCURS                  ; [] 
     322                            .dwattr $C$DW$21, DW_AT_TI_end_file("../ff.c")
     323                            .dwattr $C$DW$21, DW_AT_TI_end_line(0x246)
     324                            .dwattr $C$DW$21, DW_AT_TI_end_column(0x01)
     325                            .dwendentry
     326                            .dwendtag $C$DW$21
     327                    
     328 0000003a                   .sect   ".text"
     329                            .clink
     330                            .thumbfunc mem_set
TI ARM Assembler PC v16.9.6 Sun Dec 02 13:28:41 2018

Tools Copyright (c) 1996-2017 Texas Instruments Incorporated
ff.asm                                                               PAGE    7

     331 0000003a                   .thumb
     332                    
     333                    $C$DW$31        .dwtag  DW_TAG_subprogram
     334                            .dwattr $C$DW$31, DW_AT_name("mem_set")
     335                            .dwattr $C$DW$31, DW_AT_low_pc(mem_set)
     336                            .dwattr $C$DW$31, DW_AT_high_pc(0x00)
     337                            .dwattr $C$DW$31, DW_AT_TI_symbol_name("mem_set")
     338                            .dwattr $C$DW$31, DW_AT_TI_begin_file("../ff.c")
     339                            .dwattr $C$DW$31, DW_AT_TI_begin_line(0x24a)
     340                            .dwattr $C$DW$31, DW_AT_TI_begin_column(0x06)
     341                            .dwattr $C$DW$31, DW_AT_decl_file("../ff.c")
     342                            .dwattr $C$DW$31, DW_AT_decl_line(0x24a)
     343                            .dwattr $C$DW$31, DW_AT_decl_column(0x06)
     344                            .dwattr $C$DW$31, DW_AT_TI_max_frame_size(0x10)
     345                            .dwpsn  file "../ff.c",line 586,column 45,is_stmt,address mem_set,isa 1
     346                    
     347                            .dwfde $C$DW$CIE, mem_set
     348                    $C$DW$32        .dwtag  DW_TAG_formal_parameter
     349                            .dwattr $C$DW$32, DW_AT_name("dst")
     350                            .dwattr $C$DW$32, DW_AT_TI_symbol_name("dst")
     351                            .dwattr $C$DW$32, DW_AT_type(*$C$DW$T$3)
     352                            .dwattr $C$DW$32, DW_AT_location[DW_OP_reg0]
     353                    
     354                    $C$DW$33        .dwtag  DW_TAG_formal_parameter
     355                            .dwattr $C$DW$33, DW_AT_name("val")
     356                            .dwattr $C$DW$33, DW_AT_TI_symbol_name("val")
     357                            .dwattr $C$DW$33, DW_AT_type(*$C$DW$T$10)
     358                            .dwattr $C$DW$33, DW_AT_location[DW_OP_reg1]
     359                    
     360                    $C$DW$34        .dwtag  DW_TAG_formal_parameter
     361                            .dwattr $C$DW$34, DW_AT_name("cnt")
     362                            .dwattr $C$DW$34, DW_AT_TI_symbol_name("cnt")
     363                            .dwattr $C$DW$34, DW_AT_type(*$C$DW$T$35)
     364                            .dwattr $C$DW$34, DW_AT_location[DW_OP_reg2]
     365                    
     366                    
     367                    ;*****************************************************************************
     368                    ;* FUNCTION NAME: mem_set                                                    *
     369                    ;*                                                                           *
     370                    ;*   Regs Modified     : A1,A2,SP,SR                                         *
     371                    ;*   Regs Used         : A1,A2,A3,SP,LR,SR                                   *
     372                    ;*   Local Frame Size  : 0 Args + 16 Auto + 0 Save = 16 byte                 *
     373                    ;*****************************************************************************
     374 0000003a           mem_set:
     375                    ;* --------------------------------------------------------------------------*
     376                            .dwcfi  cfa_offset, 0
     377 0000003a 0D10F1AD          SUB       SP, SP, #16           ; [DPU_3_PIPE]  ; [KEEP 32-BIT INS]
     378                            .dwcfi  cfa_offset, 16
     379                    $C$DW$35        .dwtag  DW_TAG_variable
     380                            .dwattr $C$DW$35, DW_AT_name("dst")
     381                            .dwattr $C$DW$35, DW_AT_TI_symbol_name("dst")
     382                            .dwattr $C$DW$35, DW_AT_type(*$C$DW$T$3)
     383                            .dwattr $C$DW$35, DW_AT_location[DW_OP_breg13 0]
     384                    
     385                    $C$DW$36        .dwtag  DW_TAG_variable
TI ARM Assembler PC v16.9.6 Sun Dec 02 13:28:41 2018

Tools Copyright (c) 1996-2017 Texas Instruments Incorporated
ff.asm                                                               PAGE    8

     386                            .dwattr $C$DW$36, DW_AT_name("val")
     387                            .dwattr $C$DW$36, DW_AT_TI_symbol_name("val")
     388                            .dwattr $C$DW$36, DW_AT_type(*$C$DW$T$10)
     389                            .dwattr $C$DW$36, DW_AT_location[DW_OP_breg13 4]
     390                    
     391                    $C$DW$37        .dwtag  DW_TAG_variable
     392                            .dwattr $C$DW$37, DW_AT_name("cnt")
     393                            .dwattr $C$DW$37, DW_AT_TI_symbol_name("cnt")
     394                            .dwattr $C$DW$37, DW_AT_type(*$C$DW$T$35)
     395                            .dwattr $C$DW$37, DW_AT_location[DW_OP_breg13 8]
     396                    
     397                    $C$DW$38        .dwtag  DW_TAG_variable
     398                            .dwattr $C$DW$38, DW_AT_name("d")
     399                            .dwattr $C$DW$38, DW_AT_TI_symbol_name("d")
     400                            .dwattr $C$DW$38, DW_AT_type(*$C$DW$T$26)
     401                            .dwattr $C$DW$38, DW_AT_location[DW_OP_breg13 12]
     402                    
     403                    ;----------------------------------------------------------------------
     404                    ; 586 | void mem_set (void* dst, int val, UINT cnt) {                          
     405                    ;----------------------------------------------------------------------
     406 0000003e 9202              STR       A3, [SP, #8]          ; [DPU_3_PIPE] |586|  ; [ORIG 16-BIT INS]
     407 00000040 9101              STR       A2, [SP, #4]          ; [DPU_3_PIPE] |586|  ; [ORIG 16-BIT INS]
     408 00000042 9000              STR       A1, [SP, #0]          ; [DPU_3_PIPE] |586|  ; [ORIG 16-BIT INS]
     409                            .dwpsn  file "../ff.c",line 587,column 11,is_stmt,isa 1
     410                    ;----------------------------------------------------------------------
     411                    ; 587 | BYTE *d = (BYTE*)dst;                                                  
     412                    ;----------------------------------------------------------------------
     413 00000044 9800              LDR       A1, [SP, #0]          ; [DPU_3_PIPE] |587|  ; [ORIG 16-BIT INS]
     414 00000046 9003              STR       A1, [SP, #12]         ; [DPU_3_PIPE] |587|  ; [ORIG 16-BIT INS]
     415                            .dwpsn  file "../ff.c",line 589,column 3,is_stmt,isa 1
     416                    ;----------------------------------------------------------------------
     417                    ; 589 | while (cnt--)                                                          
     418                    ;----------------------------------------------------------------------
     419 00000048 9802              LDR       A1, [SP, #8]          ; [DPU_3_PIPE] |589|  ; [ORIG 16-BIT INS]
     420 0000004a 1E41              SUBS      A2, A1, #1            ; [DPU_3_PIPE] |589|  ; [ORIG 16-BIT INS]
     421 0000004c 9102              STR       A2, [SP, #8]          ; [DPU_3_PIPE] |589|  ; [ORIG 16-BIT INS]
     422 0000004e B158              CBZ       A1, ||$C$L4||         ; []  ; [ORIG 16-BIT INS]
     423                            ; BRANCHCC OCCURS {||$C$L4||}    ; [] |589| 
     424                    ;* --------------------------------------------------------------------------*
     425                    ;*   BEGIN LOOP ||$C$L3||
     426                    ;*
     427                    ;*   Loop source line                : 589
     428                    ;*   Loop closing brace source line  : 590
     429                    ;*   Known Minimum Trip Count        : 1
     430                    ;*   Known Maximum Trip Count        : 4294967295
     431                    ;*   Known Max Trip Count Factor     : 1
     432                    ;* --------------------------------------------------------------------------*
     433 00000050           ||$C$L3||:    
     434                            .dwpsn  file "../ff.c",line 590,column 5,is_stmt,isa 1
     435                    ;----------------------------------------------------------------------
     436                    ; 590 | *d++ = (BYTE)val;                                                      
     437                    ;----------------------------------------------------------------------
     438 00000050 9803              LDR       A1, [SP, #12]         ; [DPU_3_PIPE] |590|  ; [ORIG 16-BIT INS]
     439 00000052 1C41              ADDS      A2, A1, #1            ; [DPU_3_PIPE] |590|  ; [ORIG 16-BIT INS]
     440 00000054 9103              STR       A2, [SP, #12]         ; [DPU_3_PIPE] |590|  ; [ORIG 16-BIT INS]
TI ARM Assembler PC v16.9.6 Sun Dec 02 13:28:41 2018

Tools Copyright (c) 1996-2017 Texas Instruments Incorporated
ff.asm                                                               PAGE    9

     441 00000056 1004F89D          LDRB      A2, [SP, #4]          ; [DPU_3_PIPE] |590|  ; [KEEP 32-BIT INS]
     442 0000005a 7001              STRB      A2, [A1, #0]          ; [DPU_3_PIPE] |590|  ; [ORIG 16-BIT INS]
     443                            .dwpsn  file "../ff.c",line 589,column 3,is_stmt,isa 1
     444 0000005c 9802              LDR       A1, [SP, #8]          ; [DPU_3_PIPE] |589|  ; [ORIG 16-BIT INS]
     445 0000005e 2800              CMP       A1, #0                ; [DPU_3_PIPE] |589|  ; [ORIG 16-BIT INS]
     446 00000060 0101F1A0          SUB       A2, A1, #1            ; [DPU_3_PIPE] |589|  ; [KEEP 32-BIT INS]
     447 00000064 9102              STR       A2, [SP, #8]          ; [DPU_3_PIPE] |589|  ; [ORIG 16-BIT INS]
     448 00000066 D1F3              BNE       ||$C$L3||             ; [DPU_3_PIPE] |589|  ; [ORIG 16-BIT INS]
     449                            ; BRANCHCC OCCURS {||$C$L3||}    ; [] |589| 
     450                    ;* --------------------------------------------------------------------------*
     451                            .dwpsn  file "../ff.c",line 591,column 1,is_stmt,isa 1
     452                    ;* --------------------------------------------------------------------------*
     453 00000068           ||$C$L4||:    
     454 00000068 B004              ADD       SP, SP, #16           ; [DPU_3_PIPE]  ; [ORIG 16-BIT INS]
     455                            .dwcfi  cfa_offset, 0
     456                    $C$DW$39        .dwtag  DW_TAG_TI_branch
     457                            .dwattr $C$DW$39, DW_AT_low_pc(0x00)
     458                            .dwattr $C$DW$39, DW_AT_TI_return
     459                    
     460 0000006a 4770              BX        LR                    ; [DPU_3_PIPE]  ; [ORIG 16-BIT INS]
     461                            ; BRANCH OCCURS                  ; [] 
     462                            .dwattr $C$DW$31, DW_AT_TI_end_file("../ff.c")
     463                            .dwattr $C$DW$31, DW_AT_TI_end_line(0x24f)
     464                            .dwattr $C$DW$31, DW_AT_TI_end_column(0x01)
     465                            .dwendentry
     466                            .dwendtag $C$DW$31
     467                    
     468 0000006c                   .sect   ".text"
     469                            .clink
     470                            .thumbfunc mem_cmp
     471 0000006c                   .thumb
     472                    
     473                    $C$DW$40        .dwtag  DW_TAG_subprogram
     474                            .dwattr $C$DW$40, DW_AT_name("mem_cmp")
     475                            .dwattr $C$DW$40, DW_AT_low_pc(mem_cmp)
     476                            .dwattr $C$DW$40, DW_AT_high_pc(0x00)
     477                            .dwattr $C$DW$40, DW_AT_TI_symbol_name("mem_cmp")
     478                            .dwattr $C$DW$40, DW_AT_type(*$C$DW$T$10)
     479                            .dwattr $C$DW$40, DW_AT_TI_begin_file("../ff.c")
     480                            .dwattr $C$DW$40, DW_AT_TI_begin_line(0x253)
     481                            .dwattr $C$DW$40, DW_AT_TI_begin_column(0x05)
     482                            .dwattr $C$DW$40, DW_AT_decl_file("../ff.c")
     483                            .dwattr $C$DW$40, DW_AT_decl_line(0x253)
     484                            .dwattr $C$DW$40, DW_AT_decl_column(0x05)
     485                            .dwattr $C$DW$40, DW_AT_TI_max_frame_size(0x18)
     486                            .dwpsn  file "../ff.c",line 595,column 58,is_stmt,address mem_cmp,isa 1
     487                    
     488                            .dwfde $C$DW$CIE, mem_cmp
     489                    $C$DW$41        .dwtag  DW_TAG_formal_parameter
     490                            .dwattr $C$DW$41, DW_AT_name("dst")
     491                            .dwattr $C$DW$41, DW_AT_TI_symbol_name("dst")
     492                            .dwattr $C$DW$41, DW_AT_type(*$C$DW$T$79)
     493                            .dwattr $C$DW$41, DW_AT_location[DW_OP_reg0]
     494                    
     495                    $C$DW$42        .dwtag  DW_TAG_formal_parameter
TI ARM Assembler PC v16.9.6 Sun Dec 02 13:28:41 2018

Tools Copyright (c) 1996-2017 Texas Instruments Incorporated
ff.asm                                                               PAGE   10

     496                            .dwattr $C$DW$42, DW_AT_name("src")
     497                            .dwattr $C$DW$42, DW_AT_TI_symbol_name("src")
     498                            .dwattr $C$DW$42, DW_AT_type(*$C$DW$T$79)
     499                            .dwattr $C$DW$42, DW_AT_location[DW_OP_reg1]
     500                    
     501                    $C$DW$43        .dwtag  DW_TAG_formal_parameter
     502                            .dwattr $C$DW$43, DW_AT_name("cnt")
     503                            .dwattr $C$DW$43, DW_AT_TI_symbol_name("cnt")
     504                            .dwattr $C$DW$43, DW_AT_type(*$C$DW$T$35)
     505                            .dwattr $C$DW$43, DW_AT_location[DW_OP_reg2]
     506                    
     507                    
     508                    ;*****************************************************************************
     509                    ;* FUNCTION NAME: mem_cmp                                                    *
     510                    ;*                                                                           *
     511                    ;*   Regs Modified     : A1,A2,A3,SP,SR                                      *
     512                    ;*   Regs Used         : A1,A2,A3,SP,LR,SR                                   *
     513                    ;*   Local Frame Size  : 0 Args + 24 Auto + 0 Save = 24 byte                 *
     514                    ;*****************************************************************************
     515 0000006c           mem_cmp:
     516                    ;* --------------------------------------------------------------------------*
     517                            .dwcfi  cfa_offset, 0
     518 0000006c 0D18F1AD          SUB       SP, SP, #24           ; [DPU_3_PIPE]  ; [KEEP 32-BIT INS]
     519                            .dwcfi  cfa_offset, 24
     520                    $C$DW$44        .dwtag  DW_TAG_variable
     521                            .dwattr $C$DW$44, DW_AT_name("dst")
     522                            .dwattr $C$DW$44, DW_AT_TI_symbol_name("dst")
     523                            .dwattr $C$DW$44, DW_AT_type(*$C$DW$T$79)
     524                            .dwattr $C$DW$44, DW_AT_location[DW_OP_breg13 0]
     525                    
     526                    $C$DW$45        .dwtag  DW_TAG_variable
     527                            .dwattr $C$DW$45, DW_AT_name("src")
     528                            .dwattr $C$DW$45, DW_AT_TI_symbol_name("src")
     529                            .dwattr $C$DW$45, DW_AT_type(*$C$DW$T$79)
     530                            .dwattr $C$DW$45, DW_AT_location[DW_OP_breg13 4]
     531                    
     532                    $C$DW$46        .dwtag  DW_TAG_variable
     533                            .dwattr $C$DW$46, DW_AT_name("cnt")
     534                            .dwattr $C$DW$46, DW_AT_TI_symbol_name("cnt")
     535                            .dwattr $C$DW$46, DW_AT_type(*$C$DW$T$35)
     536                            .dwattr $C$DW$46, DW_AT_location[DW_OP_breg13 8]
     537                    
     538                    $C$DW$47        .dwtag  DW_TAG_variable
     539                            .dwattr $C$DW$47, DW_AT_name("d")
     540                            .dwattr $C$DW$47, DW_AT_TI_symbol_name("d")
     541                            .dwattr $C$DW$47, DW_AT_type(*$C$DW$T$39)
     542                            .dwattr $C$DW$47, DW_AT_location[DW_OP_breg13 12]
     543                    
     544                    $C$DW$48        .dwtag  DW_TAG_variable
     545                            .dwattr $C$DW$48, DW_AT_name("s")
     546                            .dwattr $C$DW$48, DW_AT_TI_symbol_name("s")
     547                            .dwattr $C$DW$48, DW_AT_type(*$C$DW$T$39)
     548                            .dwattr $C$DW$48, DW_AT_location[DW_OP_breg13 16]
     549                    
     550                    $C$DW$49        .dwtag  DW_TAG_variable
TI ARM Assembler PC v16.9.6 Sun Dec 02 13:28:41 2018

Tools Copyright (c) 1996-2017 Texas Instruments Incorporated
ff.asm                                                               PAGE   11

     551                            .dwattr $C$DW$49, DW_AT_name("r")
     552                            .dwattr $C$DW$49, DW_AT_TI_symbol_name("r")
     553                            .dwattr $C$DW$49, DW_AT_type(*$C$DW$T$10)
     554                            .dwattr $C$DW$49, DW_AT_location[DW_OP_breg13 20]
     555                    
     556                    ;----------------------------------------------------------------------
     557                    ; 595 | int mem_cmp (const void* dst, const void* src, UINT cnt) {             
     558                    ;----------------------------------------------------------------------
     559 00000070 9202              STR       A3, [SP, #8]          ; [DPU_3_PIPE] |595|  ; [ORIG 16-BIT INS]
     560 00000072 9101              STR       A2, [SP, #4]          ; [DPU_3_PIPE] |595|  ; [ORIG 16-BIT INS]
     561 00000074 9000              STR       A1, [SP, #0]          ; [DPU_3_PIPE] |595|  ; [ORIG 16-BIT INS]
     562                            .dwpsn  file "../ff.c",line 596,column 17,is_stmt,isa 1
     563                    ;----------------------------------------------------------------------
     564                    ; 596 | const BYTE *d = (const BYTE *)dst, *s = (const BYTE *)src;             
     565                    ;----------------------------------------------------------------------
     566 00000076 9800              LDR       A1, [SP, #0]          ; [DPU_3_PIPE] |596|  ; [ORIG 16-BIT INS]
     567 00000078 9003              STR       A1, [SP, #12]         ; [DPU_3_PIPE] |596|  ; [ORIG 16-BIT INS]
     568                            .dwpsn  file "../ff.c",line 596,column 41,is_stmt,isa 1
     569 0000007a 9801              LDR       A1, [SP, #4]          ; [DPU_3_PIPE] |596|  ; [ORIG 16-BIT INS]
     570 0000007c 9004              STR       A1, [SP, #16]         ; [DPU_3_PIPE] |596|  ; [ORIG 16-BIT INS]
     571                            .dwpsn  file "../ff.c",line 597,column 9,is_stmt,isa 1
     572                    ;----------------------------------------------------------------------
     573                    ; 597 | int r = 0;                                                             
     574                    ;----------------------------------------------------------------------
     575 0000007e 2000              MOVS      A1, #0                ; [DPU_3_PIPE] |597|  ; [ORIG 16-BIT INS]
     576 00000080 9005              STR       A1, [SP, #20]         ; [DPU_3_PIPE] |597|  ; [ORIG 16-BIT INS]
     577                            .dwpsn  file "../ff.c",line 599,column 3,is_stmt,isa 1
     578                    ;----------------------------------------------------------------------
     579                    ; 599 | while (cnt-- && (r = *d++ - *s++) == 0) ;                              
     580                    ;----------------------------------------------------------------------
     581                    ;* --------------------------------------------------------------------------*
     582                    ;*   BEGIN LOOP ||$C$L5||
     583                    ;*
     584                    ;*   Loop source line                : 599
     585                    ;*   Loop closing brace source line  : 599
     586                    ;*   Known Minimum Trip Count        : 1
     587                    ;*   Known Maximum Trip Count        : 4294967295
     588                    ;*   Known Max Trip Count Factor     : 1
     589                    ;* --------------------------------------------------------------------------*
     590 00000082           ||$C$L5||:    
     591                            .dwpsn  file "../ff.c",line 599,column 10,is_stmt,isa 1
     592 00000082 9802              LDR       A1, [SP, #8]          ; [DPU_3_PIPE] |599|  ; [ORIG 16-BIT INS]
     593 00000084 1E41              SUBS      A2, A1, #1            ; [DPU_3_PIPE] |599|  ; [ORIG 16-BIT INS]
     594 00000086 9102              STR       A2, [SP, #8]          ; [DPU_3_PIPE] |599|  ; [ORIG 16-BIT INS]
     595 00000088 B150              CBZ       A1, ||$C$L6||         ; []  ; [ORIG 16-BIT INS]
     596                            ; BRANCHCC OCCURS {||$C$L6||}    ; [] |599| 
     597                    ;* --------------------------------------------------------------------------*
     598 0000008a 9804              LDR       A1, [SP, #16]         ; [DPU_3_PIPE] |599|  ; [ORIG 16-BIT INS]
     599 0000008c 9A03              LDR       A3, [SP, #12]         ; [DPU_3_PIPE] |599|  ; [ORIG 16-BIT INS]
     600 0000008e 1B01F810          LDRB      A2, [A1], #1          ; [DPU_3_PIPE] |599|  ; [KEEP 32-BIT INS]
     601 00000092 9004              STR       A1, [SP, #16]         ; [DPU_3_PIPE] |599|  ; [ORIG 16-BIT INS]
     602 00000094 0B01F812          LDRB      A1, [A3], #1          ; [DPU_3_PIPE] |599|  ; [KEEP 32-BIT INS]
     603 00000098 9203              STR       A3, [SP, #12]         ; [DPU_3_PIPE] |599|  ; [ORIG 16-BIT INS]
     604 0000009a 1A40              SUBS      A1, A1, A2            ; [DPU_3_PIPE] |599|  ; [ORIG 16-BIT INS]
     605 0000009c 9005              STR       A1, [SP, #20]         ; [DPU_3_PIPE] |599|  ; [ORIG 16-BIT INS]
TI ARM Assembler PC v16.9.6 Sun Dec 02 13:28:41 2018

Tools Copyright (c) 1996-2017 Texas Instruments Incorporated
ff.asm                                                               PAGE   12

     606 0000009e D0F0              BEQ       ||$C$L5||             ; [DPU_3_PIPE] |599|  ; [ORIG 16-BIT INS]
     607                            ; BRANCHCC OCCURS {||$C$L5||}    ; [] |599| 
     608                    ;* --------------------------------------------------------------------------*
     609 000000a0           ||$C$L6||:    
     610                            .dwpsn  file "../ff.c",line 600,column 3,is_stmt,isa 1
     611                    ;----------------------------------------------------------------------
     612                    ; 600 | return r;                                                              
     613                    ;----------------------------------------------------------------------
     614 000000a0 9805              LDR       A1, [SP, #20]         ; [DPU_3_PIPE] |600|  ; [ORIG 16-BIT INS]
     615                            .dwpsn  file "../ff.c",line 601,column 1,is_stmt,isa 1
     616 000000a2 B006              ADD       SP, SP, #24           ; [DPU_3_PIPE]  ; [ORIG 16-BIT INS]
     617                            .dwcfi  cfa_offset, 0
     618                    $C$DW$50        .dwtag  DW_TAG_TI_branch
     619                            .dwattr $C$DW$50, DW_AT_low_pc(0x00)
     620                            .dwattr $C$DW$50, DW_AT_TI_return
     621                    
     622 000000a4 4770              BX        LR                    ; [DPU_3_PIPE]  ; [ORIG 16-BIT INS]
     623                            ; BRANCH OCCURS                  ; [] 
     624                            .dwattr $C$DW$40, DW_AT_TI_end_file("../ff.c")
     625                            .dwattr $C$DW$40, DW_AT_TI_end_line(0x259)
     626                            .dwattr $C$DW$40, DW_AT_TI_end_column(0x01)
     627                            .dwendentry
     628                            .dwendtag $C$DW$40
     629                    
     630 000000a6                   .sect   ".text"
     631                            .clink
     632                            .thumbfunc chk_chr
     633 000000a6                   .thumb
     634                    
     635                    $C$DW$51        .dwtag  DW_TAG_subprogram
     636                            .dwattr $C$DW$51, DW_AT_name("chk_chr")
     637                            .dwattr $C$DW$51, DW_AT_low_pc(chk_chr)
     638                            .dwattr $C$DW$51, DW_AT_high_pc(0x00)
     639                            .dwattr $C$DW$51, DW_AT_TI_symbol_name("chk_chr")
     640                            .dwattr $C$DW$51, DW_AT_type(*$C$DW$T$10)
     641                            .dwattr $C$DW$51, DW_AT_TI_begin_file("../ff.c")
     642                            .dwattr $C$DW$51, DW_AT_TI_begin_line(0x25d)
     643                            .dwattr $C$DW$51, DW_AT_TI_begin_column(0x05)
     644                            .dwattr $C$DW$51, DW_AT_decl_file("../ff.c")
     645                            .dwattr $C$DW$51, DW_AT_decl_line(0x25d)
     646                            .dwattr $C$DW$51, DW_AT_decl_column(0x05)
     647                            .dwattr $C$DW$51, DW_AT_TI_max_frame_size(0x08)
     648                            .dwpsn  file "../ff.c",line 605,column 40,is_stmt,address chk_chr,isa 1
     649                    
     650                            .dwfde $C$DW$CIE, chk_chr
     651                    $C$DW$52        .dwtag  DW_TAG_formal_parameter
     652                            .dwattr $C$DW$52, DW_AT_name("str")
     653                            .dwattr $C$DW$52, DW_AT_TI_symbol_name("str")
     654                            .dwattr $C$DW$52, DW_AT_type(*$C$DW$T$126)
     655                            .dwattr $C$DW$52, DW_AT_location[DW_OP_reg0]
     656                    
     657                    $C$DW$53        .dwtag  DW_TAG_formal_parameter
     658                            .dwattr $C$DW$53, DW_AT_name("chr")
     659                            .dwattr $C$DW$53, DW_AT_TI_symbol_name("chr")
     660                            .dwattr $C$DW$53, DW_AT_type(*$C$DW$T$10)
TI ARM Assembler PC v16.9.6 Sun Dec 02 13:28:41 2018

Tools Copyright (c) 1996-2017 Texas Instruments Incorporated
ff.asm                                                               PAGE   13

     661                            .dwattr $C$DW$53, DW_AT_location[DW_OP_reg1]
     662                    
     663                    
     664                    ;*****************************************************************************
     665                    ;* FUNCTION NAME: chk_chr                                                    *
     666                    ;*                                                                           *
     667                    ;*   Regs Modified     : A1,A2,SP,SR                                         *
     668                    ;*   Regs Used         : A1,A2,SP,LR,SR                                      *
     669                    ;*   Local Frame Size  : 0 Args + 8 Auto + 0 Save = 8 byte                   *
     670                    ;*****************************************************************************
     671 000000a6           chk_chr:
     672                    ;* --------------------------------------------------------------------------*
     673                            .dwcfi  cfa_offset, 0
     674 000000a6 0D08F1AD          SUB       SP, SP, #8            ; [DPU_3_PIPE]  ; [KEEP 32-BIT INS]
     675                            .dwcfi  cfa_offset, 8
     676                    $C$DW$54        .dwtag  DW_TAG_variable
     677                            .dwattr $C$DW$54, DW_AT_name("str")
     678                            .dwattr $C$DW$54, DW_AT_TI_symbol_name("str")
     679                            .dwattr $C$DW$54, DW_AT_type(*$C$DW$T$126)
     680                            .dwattr $C$DW$54, DW_AT_location[DW_OP_breg13 0]
     681                    
     682                    $C$DW$55        .dwtag  DW_TAG_variable
     683                            .dwattr $C$DW$55, DW_AT_name("chr")
     684                            .dwattr $C$DW$55, DW_AT_TI_symbol_name("chr")
     685                            .dwattr $C$DW$55, DW_AT_type(*$C$DW$T$10)
     686                            .dwattr $C$DW$55, DW_AT_location[DW_OP_breg13 4]
     687                    
     688                    ;----------------------------------------------------------------------
     689                    ; 605 | int chk_chr (const char* str, int chr) {                               
     690                    ;----------------------------------------------------------------------
     691 000000aa 9101              STR       A2, [SP, #4]          ; [DPU_3_PIPE] |605|  ; [ORIG 16-BIT INS]
     692 000000ac 9000              STR       A1, [SP, #0]          ; [DPU_3_PIPE] |605|  ; [ORIG 16-BIT INS]
     693                            .dwpsn  file "../ff.c",line 606,column 3,is_stmt,isa 1
     694                    ;----------------------------------------------------------------------
     695                    ; 606 | while (*str && *str != chr) str++;                                     
     696                    ;----------------------------------------------------------------------
     697 000000ae E002              B         ||$C$L8||             ; [DPU_3_PIPE] |606|  ; [ORIG 16-BIT INS]
     698                            ; BRANCH OCCURS {||$C$L8||}      ; [] |606| 
     699                    ;* --------------------------------------------------------------------------*
     700 000000b0           ||$C$L7||:    
     701                            .dwpsn  file "../ff.c",line 606,column 31,is_stmt,isa 1
     702 000000b0 9800              LDR       A1, [SP, #0]          ; [DPU_3_PIPE] |606|  ; [ORIG 16-BIT INS]
     703 000000b2 1C40              ADDS      A1, A1, #1            ; [DPU_3_PIPE] |606|  ; [ORIG 16-BIT INS]
     704 000000b4 9000              STR       A1, [SP, #0]          ; [DPU_3_PIPE] |606|  ; [ORIG 16-BIT INS]
     705                    ;* --------------------------------------------------------------------------*
     706                    ;*   BEGIN LOOP ||$C$L8||
     707                    ;* --------------------------------------------------------------------------*
     708 000000b6           ||$C$L8||:    
     709                            .dwpsn  file "../ff.c",line 606,column 10,is_stmt,isa 1
     710 000000b6 9800              LDR       A1, [SP, #0]          ; [DPU_3_PIPE] |606|  ; [ORIG 16-BIT INS]
     711 000000b8 7800              LDRB      A1, [A1, #0]          ; [DPU_3_PIPE] |606|  ; [ORIG 16-BIT INS]
     712 000000ba B120              CBZ       A1, ||$C$L9||         ; []  ; [ORIG 16-BIT INS]
     713                            ; BRANCHCC OCCURS {||$C$L9||}    ; [] |606| 
     714                    ;* --------------------------------------------------------------------------*
     715 000000bc 9900              LDR       A2, [SP, #0]          ; [DPU_3_PIPE] |606|  ; [ORIG 16-BIT INS]
TI ARM Assembler PC v16.9.6 Sun Dec 02 13:28:41 2018

Tools Copyright (c) 1996-2017 Texas Instruments Incorporated
ff.asm                                                               PAGE   14

     716 000000be 9801              LDR       A1, [SP, #4]          ; [DPU_3_PIPE] |606|  ; [ORIG 16-BIT INS]
     717 000000c0 7809              LDRB      A2, [A2, #0]          ; [DPU_3_PIPE] |606|  ; [ORIG 16-BIT INS]
     718 000000c2 4288              CMP       A1, A2                ; [DPU_3_PIPE] |606|  ; [ORIG 16-BIT INS]
     719 000000c4 D1F4              BNE       ||$C$L7||             ; [DPU_3_PIPE] |606|  ; [ORIG 16-BIT INS]
     720                            ; BRANCHCC OCCURS {||$C$L7||}    ; [] |606| 
     721                    ;* --------------------------------------------------------------------------*
     722 000000c6           ||$C$L9||:    
     723                            .dwpsn  file "../ff.c",line 607,column 3,is_stmt,isa 1
     724                    ;----------------------------------------------------------------------
     725                    ; 607 | return *str;                                                           
     726                    ;----------------------------------------------------------------------
     727 000000c6 9800              LDR       A1, [SP, #0]          ; [DPU_3_PIPE] |607|  ; [ORIG 16-BIT INS]
     728 000000c8 7800              LDRB      A1, [A1, #0]          ; [DPU_3_PIPE] |607|  ; [ORIG 16-BIT INS]
     729                            .dwpsn  file "../ff.c",line 608,column 1,is_stmt,isa 1
     730 000000ca B002              ADD       SP, SP, #8            ; [DPU_3_PIPE]  ; [ORIG 16-BIT INS]
     731                            .dwcfi  cfa_offset, 0
     732                    $C$DW$56        .dwtag  DW_TAG_TI_branch
     733                            .dwattr $C$DW$56, DW_AT_low_pc(0x00)
     734                            .dwattr $C$DW$56, DW_AT_TI_return
     735                    
     736 000000cc 4770              BX        LR                    ; [DPU_3_PIPE]  ; [ORIG 16-BIT INS]
     737                            ; BRANCH OCCURS                  ; [] 
     738                            .dwattr $C$DW$51, DW_AT_TI_end_file("../ff.c")
     739                            .dwattr $C$DW$51, DW_AT_TI_end_line(0x260)
     740                            .dwattr $C$DW$51, DW_AT_TI_end_column(0x01)
     741                            .dwendentry
     742                            .dwendtag $C$DW$51
     743                    
     744 000000ce                   .sect   ".text"
     745                            .clink
     746                            .thumbfunc sync_window
     747 000000ce                   .thumb
     748                    
     749                    $C$DW$57        .dwtag  DW_TAG_subprogram
     750                            .dwattr $C$DW$57, DW_AT_name("sync_window")
     751                            .dwattr $C$DW$57, DW_AT_low_pc(sync_window)
     752                            .dwattr $C$DW$57, DW_AT_high_pc(0x00)
     753                            .dwattr $C$DW$57, DW_AT_TI_symbol_name("sync_window")
     754                            .dwattr $C$DW$57, DW_AT_type(*$C$DW$T$45)
     755                            .dwattr $C$DW$57, DW_AT_TI_begin_file("../ff.c")
     756                            .dwattr $C$DW$57, DW_AT_TI_begin_line(0x2fa)
     757                            .dwattr $C$DW$57, DW_AT_TI_begin_column(0x09)
     758                            .dwattr $C$DW$57, DW_AT_decl_file("../ff.c")
     759                            .dwattr $C$DW$57, DW_AT_decl_line(0x2fa)
     760                            .dwattr $C$DW$57, DW_AT_decl_column(0x09)
     761                            .dwattr $C$DW$57, DW_AT_TI_max_frame_size(0x18)
     762                            .dwpsn  file "../ff.c",line 765,column 1,is_stmt,address sync_window,isa 1
     763                    
     764                            .dwfde $C$DW$CIE, sync_window
     765                    $C$DW$58        .dwtag  DW_TAG_formal_parameter
     766                            .dwattr $C$DW$58, DW_AT_name("fs")
     767                            .dwattr $C$DW$58, DW_AT_TI_symbol_name("fs")
     768                            .dwattr $C$DW$58, DW_AT_type(*$C$DW$T$25)
     769                            .dwattr $C$DW$58, DW_AT_location[DW_OP_reg0]
     770                    
TI ARM Assembler PC v16.9.6 Sun Dec 02 13:28:41 2018

Tools Copyright (c) 1996-2017 Texas Instruments Incorporated
ff.asm                                                               PAGE   15

     771                    ;----------------------------------------------------------------------
     772                    ; 762 | FRESULT sync_window (                                                  
     773                    ; 763 | FATFS* fs    /* File system object */                                  
     774                    ; 764 | )                                                                      
     775                    ;----------------------------------------------------------------------
     776                    
     777                    ;*****************************************************************************
     778                    ;* FUNCTION NAME: sync_window                                                *
     779                    ;*                                                                           *
     780                    ;*   Regs Modified     : A1,A2,A3,A4,V9,SP,LR,SR,D0,D0_hi,D1,D1_hi,D2,D2_hi, *
     781                    ;*                           D3,D3_hi,D4,D4_hi,D5,D5_hi,D6,D6_hi,D7,D7_hi,   *
     782                    ;*                           FPEXC,FPSCR                                     *
     783                    ;*   Regs Used         : A1,A2,A3,A4,V9,SP,LR,SR,D0,D0_hi,D1,D1_hi,D2,D2_hi, *
     784                    ;*                           D3,D3_hi,D4,D4_hi,D5,D5_hi,D6,D6_hi,D7,D7_hi,   *
     785                    ;*                           FPEXC,FPSCR                                     *
     786                    ;*   Local Frame Size  : 0 Args + 16 Auto + 4 Save = 20 byte                 *
     787                    ;*****************************************************************************
     788 000000ce           sync_window:
     789                    ;* --------------------------------------------------------------------------*
     790                            .dwcfi  cfa_offset, 0
     791 000000ce B500              PUSH      {LR}                  ; [DPU_3_PIPE]  ; [ORIG 16-BIT INS]
     792                            .dwcfi  cfa_offset, 4
     793                            .dwcfi  save_reg_to_mem, 14, -4
     794 000000d0 0D14F1AD          SUB       SP, SP, #20           ; [DPU_3_PIPE]  ; [KEEP 32-BIT INS]
     795                            .dwcfi  cfa_offset, 24
     796                    $C$DW$59        .dwtag  DW_TAG_variable
     797                            .dwattr $C$DW$59, DW_AT_name("fs")
     798                            .dwattr $C$DW$59, DW_AT_TI_symbol_name("fs")
     799                            .dwattr $C$DW$59, DW_AT_type(*$C$DW$T$25)
     800                            .dwattr $C$DW$59, DW_AT_location[DW_OP_breg13 0]
     801                    
     802                    $C$DW$60        .dwtag  DW_TAG_variable
     803                            .dwattr $C$DW$60, DW_AT_name("wsect")
     804                            .dwattr $C$DW$60, DW_AT_TI_symbol_name("wsect")
     805                            .dwattr $C$DW$60, DW_AT_type(*$C$DW$T$21)
     806                            .dwattr $C$DW$60, DW_AT_location[DW_OP_breg13 4]
     807                    
     808                    $C$DW$61        .dwtag  DW_TAG_variable
     809                            .dwattr $C$DW$61, DW_AT_name("nf")
     810                            .dwattr $C$DW$61, DW_AT_TI_symbol_name("nf")
     811                            .dwattr $C$DW$61, DW_AT_type(*$C$DW$T$35)
     812                            .dwattr $C$DW$61, DW_AT_location[DW_OP_breg13 8]
     813                    
     814                    $C$DW$62        .dwtag  DW_TAG_variable
     815                            .dwattr $C$DW$62, DW_AT_name("res")
     816                            .dwattr $C$DW$62, DW_AT_TI_symbol_name("res")
     817                            .dwattr $C$DW$62, DW_AT_type(*$C$DW$T$45)
     818                            .dwattr $C$DW$62, DW_AT_location[DW_OP_breg13 12]
     819                    
     820                    ;----------------------------------------------------------------------
     821                    ; 766 | DWORD wsect;                                                           
     822                    ; 767 | UINT nf;                                                               
     823                    ;----------------------------------------------------------------------
     824 000000d4 9000              STR       A1, [SP, #0]          ; [DPU_3_PIPE] |765|  ; [ORIG 16-BIT INS]
     825                            .dwpsn  file "../ff.c",line 768,column 15,is_stmt,isa 1
TI ARM Assembler PC v16.9.6 Sun Dec 02 13:28:41 2018

Tools Copyright (c) 1996-2017 Texas Instruments Incorporated
ff.asm                                                               PAGE   16

     826                    ;----------------------------------------------------------------------
     827                    ; 768 | FRESULT res = FR_OK;                                                   
     828                    ;----------------------------------------------------------------------
     829 000000d6 2000              MOVS      A1, #0                ; [DPU_3_PIPE] |768|  ; [ORIG 16-BIT INS]
     830 000000d8 000CF88D          STRB      A1, [SP, #12]         ; [DPU_3_PIPE] |768|  ; [KEEP 32-BIT INS]
     831                            .dwpsn  file "../ff.c",line 771,column 3,is_stmt,isa 1
     832                    ;----------------------------------------------------------------------
     833                    ; 771 | if (fs->wflag) {  /* Write back the sector if it is dirty */           
     834                    ;----------------------------------------------------------------------
     835 000000dc 9800              LDR       A1, [SP, #0]          ; [DPU_3_PIPE] |771|  ; [ORIG 16-BIT INS]
     836 000000de 7900              LDRB      A1, [A1, #4]          ; [DPU_3_PIPE] |771|  ; [ORIG 16-BIT INS]
     837 000000e0 2800              CMP       A1, #0                ; [DPU_3_PIPE] |771|  ; [ORIG 16-BIT INS]
     838 000000e2 D033              BEQ       ||$C$L12||            ; [DPU_3_PIPE] |771|  ; [ORIG 16-BIT INS]
     839                            ; BRANCHCC OCCURS {||$C$L12||}   ; [] |771| 
     840                    ;* --------------------------------------------------------------------------*
     841                            .dwpsn  file "../ff.c",line 772,column 5,is_stmt,isa 1
     842                    ;----------------------------------------------------------------------
     843                    ; 772 | wsect = fs->winsect;  /* Current sector number */                      
     844                    ;----------------------------------------------------------------------
     845 000000e4 9800              LDR       A1, [SP, #0]          ; [DPU_3_PIPE] |772|  ; [ORIG 16-BIT INS]
     846 000000e6 6B00              LDR       A1, [A1, #48]         ; [DPU_3_PIPE] |772|  ; [ORIG 16-BIT INS]
     847 000000e8 9001              STR       A1, [SP, #4]          ; [DPU_3_PIPE] |772|  ; [ORIG 16-BIT INS]
     848                            .dwpsn  file "../ff.c",line 773,column 5,is_stmt,isa 1
     849                    ;----------------------------------------------------------------------
     850                    ; 773 | if (disk_write(fs->drv, fs->win, wsect, 1) != RES_OK) {                
     851                    ;----------------------------------------------------------------------
     852 000000ea 9900              LDR       A2, [SP, #0]          ; [DPU_3_PIPE] |773|  ; [ORIG 16-BIT INS]
     853 000000ec 9800              LDR       A1, [SP, #0]          ; [DPU_3_PIPE] |773|  ; [ORIG 16-BIT INS]
     854 000000ee 9A01              LDR       A3, [SP, #4]          ; [DPU_3_PIPE] |773|  ; [ORIG 16-BIT INS]
     855 000000f0 7840              LDRB      A1, [A1, #1]          ; [DPU_3_PIPE] |773|  ; [ORIG 16-BIT INS]
     856 000000f2 2301              MOVS      A4, #1                ; [DPU_3_PIPE] |773|  ; [ORIG 16-BIT INS]
     857 000000f4 3134              ADDS      A2, A2, #52           ; [DPU_3_PIPE] |773|  ; [ORIG 16-BIT INS]
     858                    $C$DW$63        .dwtag  DW_TAG_TI_branch
     859                            .dwattr $C$DW$63, DW_AT_low_pc(0x00)
     860                            .dwattr $C$DW$63, DW_AT_name("disk_write")
     861                            .dwattr $C$DW$63, DW_AT_TI_call
     862                    
     863 000000f6 FFFEF7FF!         BL        disk_write            ; [DPU_3_PIPE] |773|  ; [KEEP 32-BIT INS]
     864                            ; CALL OCCURS {disk_write }      ; [] |773| 
     865 000000fa B118              CBZ       A1, ||$C$L10||        ; []  ; [ORIG 16-BIT INS]
     866                            ; BRANCHCC OCCURS {||$C$L10||}   ; [] |773| 
     867                    ;* --------------------------------------------------------------------------*
     868                            .dwpsn  file "../ff.c",line 774,column 7,is_stmt,isa 1
     869                    ;----------------------------------------------------------------------
     870                    ; 774 | res = FR_DISK_ERR;                                                     
     871                    ;----------------------------------------------------------------------
     872 000000fc 2001              MOVS      A1, #1                ; [DPU_3_PIPE] |774|  ; [ORIG 16-BIT INS]
     873 000000fe 000CF88D          STRB      A1, [SP, #12]         ; [DPU_3_PIPE] |774|  ; [KEEP 32-BIT INS]
     874                            .dwpsn  file "../ff.c",line 775,column 5,is_stmt,isa 1
     875                    ;----------------------------------------------------------------------
     876                    ; 775 | } else {                                                               
     877                    ;----------------------------------------------------------------------
     878 00000102 E023              B         ||$C$L12||            ; [DPU_3_PIPE] |775|  ; [ORIG 16-BIT INS]
     879                            ; BRANCH OCCURS {||$C$L12||}     ; [] |775| 
     880                    ;* --------------------------------------------------------------------------*
TI ARM Assembler PC v16.9.6 Sun Dec 02 13:28:41 2018

Tools Copyright (c) 1996-2017 Texas Instruments Incorporated
ff.asm                                                               PAGE   17

     881 00000104           ||$C$L10||:    
     882                            .dwpsn  file "../ff.c",line 776,column 7,is_stmt,isa 1
     883                    ;----------------------------------------------------------------------
     884                    ; 776 | fs->wflag = 0;                                                         
     885                    ;----------------------------------------------------------------------
     886 00000104 9800              LDR       A1, [SP, #0]          ; [DPU_3_PIPE] |776|  ; [ORIG 16-BIT INS]
     887 00000106 2100              MOVS      A2, #0                ; [DPU_3_PIPE] |776|  ; [ORIG 16-BIT INS]
     888 00000108 7101              STRB      A2, [A1, #4]          ; [DPU_3_PIPE] |776|  ; [ORIG 16-BIT INS]
     889                            .dwpsn  file "../ff.c",line 777,column 7,is_stmt,isa 1
     890                    ;----------------------------------------------------------------------
     891                    ; 777 | if (wsect - fs->fatbase < fs->fsize) {    /* Is it in the FAT area? */ 
     892                    ;----------------------------------------------------------------------
     893 0000010a 9A00              LDR       A3, [SP, #0]          ; [DPU_3_PIPE] |777|  ; [ORIG 16-BIT INS]
     894 0000010c 9900              LDR       A2, [SP, #0]          ; [DPU_3_PIPE] |777|  ; [ORIG 16-BIT INS]
     895 0000010e 9801              LDR       A1, [SP, #4]          ; [DPU_3_PIPE] |777|  ; [ORIG 16-BIT INS]
     896 00000110 6A52              LDR       A3, [A3, #36]         ; [DPU_3_PIPE] |777|  ; [ORIG 16-BIT INS]
     897 00000112 69C9              LDR       A2, [A2, #28]         ; [DPU_3_PIPE] |777|  ; [ORIG 16-BIT INS]
     898 00000114 1A80              SUBS      A1, A1, A3            ; [DPU_3_PIPE] |777|  ; [ORIG 16-BIT INS]
     899 00000116 4281              CMP       A2, A1                ; [DPU_3_PIPE] |777|  ; [ORIG 16-BIT INS]
     900 00000118 D918              BLS       ||$C$L12||            ; [DPU_3_PIPE] |777|  ; [ORIG 16-BIT INS]
     901                            ; BRANCHCC OCCURS {||$C$L12||}   ; [] |777| 
     902                    ;* --------------------------------------------------------------------------*
     903                            .dwpsn  file "../ff.c",line 778,column 14,is_stmt,isa 1
     904                    ;----------------------------------------------------------------------
     905                    ; 778 | for (nf = fs->n_fats; nf >= 2; nf--) {  /* Reflect the change to all FA
     906                    ;     | T copies */                                                            
     907                    ;----------------------------------------------------------------------
     908 0000011a 9800              LDR       A1, [SP, #0]          ; [DPU_3_PIPE] |778|  ; [ORIG 16-BIT INS]
     909 0000011c 78C0              LDRB      A1, [A1, #3]          ; [DPU_3_PIPE] |778|  ; [ORIG 16-BIT INS]
     910 0000011e 9002              STR       A1, [SP, #8]          ; [DPU_3_PIPE] |778|  ; [ORIG 16-BIT INS]
     911                            .dwpsn  file "../ff.c",line 778,column 31,is_stmt,isa 1
     912 00000120 9802              LDR       A1, [SP, #8]          ; [DPU_3_PIPE] |778|  ; [ORIG 16-BIT INS]
     913 00000122 2802              CMP       A1, #2                ; [DPU_3_PIPE] |778|  ; [ORIG 16-BIT INS]
     914 00000124 D312              BCC       ||$C$L12||            ; [DPU_3_PIPE] |778|  ; [ORIG 16-BIT INS]
     915                            ; BRANCHCC OCCURS {||$C$L12||}   ; [] |778| 
     916                    ;* --------------------------------------------------------------------------*
     917                    ;*   BEGIN LOOP ||$C$L11||
     918                    ;*
     919                    ;*   Loop source line                : 778
     920                    ;*   Loop closing brace source line  : 781
     921                    ;*   Known Minimum Trip Count        : 1
     922                    ;*   Known Maximum Trip Count        : 4294967295
     923                    ;*   Known Max Trip Count Factor     : 1
     924                    ;* --------------------------------------------------------------------------*
     925 00000126           ||$C$L11||:    
     926                            .dwpsn  file "../ff.c",line 779,column 11,is_stmt,isa 1
     927                    ;----------------------------------------------------------------------
     928                    ; 779 | wsect += fs->fsize;                                                    
     929                    ;----------------------------------------------------------------------
     930 00000126 9900              LDR       A2, [SP, #0]          ; [DPU_3_PIPE] |779|  ; [ORIG 16-BIT INS]
     931 00000128 9801              LDR       A1, [SP, #4]          ; [DPU_3_PIPE] |779|  ; [ORIG 16-BIT INS]
     932 0000012a 69C9              LDR       A2, [A2, #28]         ; [DPU_3_PIPE] |779|  ; [ORIG 16-BIT INS]
     933 0000012c 1840              ADDS      A1, A1, A2            ; [DPU_3_PIPE] |779|  ; [ORIG 16-BIT INS]
     934 0000012e 9001              STR       A1, [SP, #4]          ; [DPU_3_PIPE] |779|  ; [ORIG 16-BIT INS]
     935                            .dwpsn  file "../ff.c",line 780,column 11,is_stmt,isa 1
TI ARM Assembler PC v16.9.6 Sun Dec 02 13:28:41 2018

Tools Copyright (c) 1996-2017 Texas Instruments Incorporated
ff.asm                                                               PAGE   18

     936                    ;----------------------------------------------------------------------
     937                    ; 780 | disk_write(fs->drv, fs->win, wsect, 1);                                
     938                    ;----------------------------------------------------------------------
     939 00000130 9800              LDR       A1, [SP, #0]          ; [DPU_3_PIPE] |780|  ; [ORIG 16-BIT INS]
     940 00000132 9900              LDR       A2, [SP, #0]          ; [DPU_3_PIPE] |780|  ; [ORIG 16-BIT INS]
     941 00000134 9A01              LDR       A3, [SP, #4]          ; [DPU_3_PIPE] |780|  ; [ORIG 16-BIT INS]
     942 00000136 7840              LDRB      A1, [A1, #1]          ; [DPU_3_PIPE] |780|  ; [ORIG 16-BIT INS]
     943 00000138 2301              MOVS      A4, #1                ; [DPU_3_PIPE] |780|  ; [ORIG 16-BIT INS]
     944 0000013a 3134              ADDS      A2, A2, #52           ; [DPU_3_PIPE] |780|  ; [ORIG 16-BIT INS]
     945                    $C$DW$64        .dwtag  DW_TAG_TI_branch
     946                            .dwattr $C$DW$64, DW_AT_low_pc(0x00)
     947                            .dwattr $C$DW$64, DW_AT_name("disk_write")
     948                            .dwattr $C$DW$64, DW_AT_TI_call
     949                    
     950 0000013c FFFEF7FF!         BL        disk_write            ; [DPU_3_PIPE] |780|  ; [KEEP 32-BIT INS]
     951                            ; CALL OCCURS {disk_write }      ; [] |780| 
     952                            .dwpsn  file "../ff.c",line 778,column 40,is_stmt,isa 1
     953 00000140 9802              LDR       A1, [SP, #8]          ; [DPU_3_PIPE] |778|  ; [ORIG 16-BIT INS]
     954 00000142 1E40              SUBS      A1, A1, #1            ; [DPU_3_PIPE] |778|  ; [ORIG 16-BIT INS]
     955 00000144 9002              STR       A1, [SP, #8]          ; [DPU_3_PIPE] |778|  ; [ORIG 16-BIT INS]
     956                            .dwpsn  file "../ff.c",line 778,column 31,is_stmt,isa 1
     957 00000146 9802              LDR       A1, [SP, #8]          ; [DPU_3_PIPE] |778|  ; [ORIG 16-BIT INS]
     958 00000148 2802              CMP       A1, #2                ; [DPU_3_PIPE] |778|  ; [ORIG 16-BIT INS]
     959 0000014a D2EC              BCS       ||$C$L11||            ; [DPU_3_PIPE] |778|  ; [ORIG 16-BIT INS]
     960                            ; BRANCHCC OCCURS {||$C$L11||}   ; [] |778| 
     961                    ;* --------------------------------------------------------------------------*
     962 0000014c           ||$C$L12||:    
     963                            .dwpsn  file "../ff.c",line 785,column 3,is_stmt,isa 1
     964                    ;----------------------------------------------------------------------
     965                    ; 785 | return res;                                                            
     966                    ;----------------------------------------------------------------------
     967 0000014c 000CF89D          LDRB      A1, [SP, #12]         ; [DPU_3_PIPE] |785|  ; [KEEP 32-BIT INS]
     968                            .dwpsn  file "../ff.c",line 786,column 1,is_stmt,isa 1
     969 00000150 B005              ADD       SP, SP, #20           ; [DPU_3_PIPE]  ; [ORIG 16-BIT INS]
     970                            .dwcfi  cfa_offset, 4
     971                    $C$DW$65        .dwtag  DW_TAG_TI_branch
     972                            .dwattr $C$DW$65, DW_AT_low_pc(0x00)
     973                            .dwattr $C$DW$65, DW_AT_TI_return
     974                    
     975 00000152 BD00              POP       {PC}                  ; [DPU_3_PIPE]  ; [ORIG 16-BIT INS]
     976                            .dwcfi  cfa_offset, 0
     977                            ; BRANCH OCCURS                  ; [] 
     978                            .dwattr $C$DW$57, DW_AT_TI_end_file("../ff.c")
     979                            .dwattr $C$DW$57, DW_AT_TI_end_line(0x312)
     980                            .dwattr $C$DW$57, DW_AT_TI_end_column(0x01)
     981                            .dwendentry
     982                            .dwendtag $C$DW$57
     983                    
     984 00000154                   .sect   ".text"
     985                            .clink
     986                            .thumbfunc move_window
     987 00000154                   .thumb
     988                    
     989                    $C$DW$66        .dwtag  DW_TAG_subprogram
     990                            .dwattr $C$DW$66, DW_AT_name("move_window")
TI ARM Assembler PC v16.9.6 Sun Dec 02 13:28:41 2018

Tools Copyright (c) 1996-2017 Texas Instruments Incorporated
ff.asm                                                               PAGE   19

     991                            .dwattr $C$DW$66, DW_AT_low_pc(move_window)
     992                            .dwattr $C$DW$66, DW_AT_high_pc(0x00)
     993                            .dwattr $C$DW$66, DW_AT_TI_symbol_name("move_window")
     994                            .dwattr $C$DW$66, DW_AT_type(*$C$DW$T$45)
     995                            .dwattr $C$DW$66, DW_AT_TI_begin_file("../ff.c")
     996                            .dwattr $C$DW$66, DW_AT_TI_begin_line(0x317)
     997                            .dwattr $C$DW$66, DW_AT_TI_begin_column(0x09)
     998                            .dwattr $C$DW$66, DW_AT_decl_file("../ff.c")
     999                            .dwattr $C$DW$66, DW_AT_decl_line(0x317)
    1000                            .dwattr $C$DW$66, DW_AT_decl_column(0x09)
    1001                            .dwattr $C$DW$66, DW_AT_TI_max_frame_size(0x10)
    1002                            .dwpsn  file "../ff.c",line 795,column 1,is_stmt,address move_window,isa 1
    1003                    
    1004                            .dwfde $C$DW$CIE, move_window
    1005                    $C$DW$67        .dwtag  DW_TAG_formal_parameter
    1006                            .dwattr $C$DW$67, DW_AT_name("fs")
    1007                            .dwattr $C$DW$67, DW_AT_TI_symbol_name("fs")
    1008                            .dwattr $C$DW$67, DW_AT_type(*$C$DW$T$25)
    1009                            .dwattr $C$DW$67, DW_AT_location[DW_OP_reg0]
    1010                    
    1011                    $C$DW$68        .dwtag  DW_TAG_formal_parameter
    1012                            .dwattr $C$DW$68, DW_AT_name("sector")
    1013                            .dwattr $C$DW$68, DW_AT_TI_symbol_name("sector")
    1014                            .dwattr $C$DW$68, DW_AT_type(*$C$DW$T$21)
    1015                            .dwattr $C$DW$68, DW_AT_location[DW_OP_reg1]
    1016                    
    1017                    ;----------------------------------------------------------------------
    1018                    ; 791 | FRESULT move_window (                                                  
    1019                    ; 792 | FATFS* fs,    /* File system object */                                 
    1020                    ; 793 | DWORD sector  /* Sector number to make appearance in the fs->win[] */  
    1021                    ; 794 | )                                                                      
    1022                    ;----------------------------------------------------------------------
    1023                    
    1024                    ;*****************************************************************************
    1025                    ;* FUNCTION NAME: move_window                                                *
    1026                    ;*                                                                           *
    1027                    ;*   Regs Modified     : A1,A2,A3,A4,V9,SP,LR,SR,D0,D0_hi,D1,D1_hi,D2,D2_hi, *
    1028                    ;*                           D3,D3_hi,D4,D4_hi,D5,D5_hi,D6,D6_hi,D7,D7_hi,   *
    1029                    ;*                           FPEXC,FPSCR                                     *
    1030                    ;*   Regs Used         : A1,A2,A3,A4,V9,SP,LR,SR,D0,D0_hi,D1,D1_hi,D2,D2_hi, *
    1031                    ;*                           D3,D3_hi,D4,D4_hi,D5,D5_hi,D6,D6_hi,D7,D7_hi,   *
    1032                    ;*                           FPEXC,FPSCR                                     *
    1033                    ;*   Local Frame Size  : 0 Args + 12 Auto + 4 Save = 16 byte                 *
    1034                    ;*****************************************************************************
    1035 00000154           move_window:
    1036                    ;* --------------------------------------------------------------------------*
    1037                            .dwcfi  cfa_offset, 0
    1038 00000154 B50E              PUSH      {A2, A3, A4, LR}      ; [DPU_3_PIPE]  ; [ORIG 16-BIT INS]
    1039                            .dwcfi  cfa_offset, 16
    1040                            .dwcfi  save_reg_to_mem, 14, -4
    1041                            .dwcfi  save_reg_to_mem, 3, -8
    1042                            .dwcfi  save_reg_to_mem, 2, -12
    1043                            .dwcfi  save_reg_to_mem, 1, -16
    1044                    $C$DW$69        .dwtag  DW_TAG_variable
    1045                            .dwattr $C$DW$69, DW_AT_name("fs")
TI ARM Assembler PC v16.9.6 Sun Dec 02 13:28:41 2018

Tools Copyright (c) 1996-2017 Texas Instruments Incorporated
ff.asm                                                               PAGE   20

    1046                            .dwattr $C$DW$69, DW_AT_TI_symbol_name("fs")
    1047                            .dwattr $C$DW$69, DW_AT_type(*$C$DW$T$25)
    1048                            .dwattr $C$DW$69, DW_AT_location[DW_OP_breg13 0]
    1049                    
    1050                    $C$DW$70        .dwtag  DW_TAG_variable
    1051                            .dwattr $C$DW$70, DW_AT_name("sector")
    1052                            .dwattr $C$DW$70, DW_AT_TI_symbol_name("sector")
    1053                            .dwattr $C$DW$70, DW_AT_type(*$C$DW$T$21)
    1054                            .dwattr $C$DW$70, DW_AT_location[DW_OP_breg13 4]
    1055                    
    1056                    $C$DW$71        .dwtag  DW_TAG_variable
    1057                            .dwattr $C$DW$71, DW_AT_name("res")
    1058                            .dwattr $C$DW$71, DW_AT_TI_symbol_name("res")
    1059                            .dwattr $C$DW$71, DW_AT_type(*$C$DW$T$45)
    1060                            .dwattr $C$DW$71, DW_AT_location[DW_OP_breg13 8]
    1061                    
    1062 00000156 9101              STR       A2, [SP, #4]          ; [DPU_3_PIPE] |795|  ; [ORIG 16-BIT INS]
    1063 00000158 9000              STR       A1, [SP, #0]          ; [DPU_3_PIPE] |795|  ; [ORIG 16-BIT INS]
    1064                            .dwpsn  file "../ff.c",line 796,column 15,is_stmt,isa 1
    1065                    ;----------------------------------------------------------------------
    1066                    ; 796 | FRESULT res = FR_OK;                                                   
    1067                    ;----------------------------------------------------------------------
    1068 0000015a 2000              MOVS      A1, #0                ; [DPU_3_PIPE] |796|  ; [ORIG 16-BIT INS]
    1069 0000015c 0008F88D          STRB      A1, [SP, #8]          ; [DPU_3_PIPE] |796|  ; [KEEP 32-BIT INS]
    1070                            .dwpsn  file "../ff.c",line 799,column 3,is_stmt,isa 1
    1071                    ;----------------------------------------------------------------------
    1072                    ; 799 | if (sector != fs->winsect) {  /* Window offset changed? */             
    1073                    ; 800 | #if !_FS_READONLY                                                      
    1074                    ;----------------------------------------------------------------------
    1075 00000160 9800              LDR       A1, [SP, #0]          ; [DPU_3_PIPE] |799|  ; [ORIG 16-BIT INS]
    1076 00000162 9901              LDR       A2, [SP, #4]          ; [DPU_3_PIPE] |799|  ; [ORIG 16-BIT INS]
    1077 00000164 6B00              LDR       A1, [A1, #48]         ; [DPU_3_PIPE] |799|  ; [ORIG 16-BIT INS]
    1078 00000166 4288              CMP       A1, A2                ; [DPU_3_PIPE] |799|  ; [ORIG 16-BIT INS]
    1079 00000168 D019              BEQ       ||$C$L14||            ; [DPU_3_PIPE] |799|  ; [ORIG 16-BIT INS]
    1080                            ; BRANCHCC OCCURS {||$C$L14||}   ; [] |799| 
    1081                    ;* --------------------------------------------------------------------------*
    1082                            .dwpsn  file "../ff.c",line 801,column 5,is_stmt,isa 1
    1083                    ;----------------------------------------------------------------------
    1084                    ; 801 | res = sync_window(fs);    /* Write-back changes */                     
    1085                    ; 802 | #endif                                                                 
    1086                    ;----------------------------------------------------------------------
    1087 0000016a 9800              LDR       A1, [SP, #0]          ; [DPU_3_PIPE] |801|  ; [ORIG 16-BIT INS]
    1088                    $C$DW$72        .dwtag  DW_TAG_TI_branch
    1089                            .dwattr $C$DW$72, DW_AT_low_pc(0x00)
    1090                            .dwattr $C$DW$72, DW_AT_name("sync_window")
    1091                            .dwattr $C$DW$72, DW_AT_TI_call
    1092                    
    1093 0000016c FFFEF7FF!         BL        sync_window           ; [DPU_3_PIPE] |801|  ; [KEEP 32-BIT INS]
    1094                            ; CALL OCCURS {sync_window }     ; [] |801| 
    1095 00000170 0008F88D          STRB      A1, [SP, #8]          ; [DPU_3_PIPE] |801|  ; [KEEP 32-BIT INS]
    1096                            .dwpsn  file "../ff.c",line 803,column 5,is_stmt,isa 1
    1097                    ;----------------------------------------------------------------------
    1098                    ; 803 | if (res == FR_OK) {      /* Fill sector window with new data */        
    1099                    ;----------------------------------------------------------------------
    1100 00000174 0008F89D          LDRB      A1, [SP, #8]          ; [DPU_3_PIPE] |803|  ; [KEEP 32-BIT INS]
TI ARM Assembler PC v16.9.6 Sun Dec 02 13:28:41 2018

Tools Copyright (c) 1996-2017 Texas Instruments Incorporated
ff.asm                                                               PAGE   21

    1101 00000178 B988              CBNZ      A1, ||$C$L14||        ; []  ; [ORIG 16-BIT INS]
    1102                            ; BRANCHCC OCCURS {||$C$L14||}   ; [] |803| 
    1103                    ;* --------------------------------------------------------------------------*
    1104                            .dwpsn  file "../ff.c",line 804,column 7,is_stmt,isa 1
    1105                    ;----------------------------------------------------------------------
    1106                    ; 804 | if (disk_read(fs->drv, fs->win, sector, 1) != RES_OK) {                
    1107                    ;----------------------------------------------------------------------
    1108 0000017a 9800              LDR       A1, [SP, #0]          ; [DPU_3_PIPE] |804|  ; [ORIG 16-BIT INS]
    1109 0000017c 9900              LDR       A2, [SP, #0]          ; [DPU_3_PIPE] |804|  ; [ORIG 16-BIT INS]
    1110 0000017e 9A01              LDR       A3, [SP, #4]          ; [DPU_3_PIPE] |804|  ; [ORIG 16-BIT INS]
    1111 00000180 7840              LDRB      A1, [A1, #1]          ; [DPU_3_PIPE] |804|  ; [ORIG 16-BIT INS]
    1112 00000182 2301              MOVS      A4, #1                ; [DPU_3_PIPE] |804|  ; [ORIG 16-BIT INS]
    1113 00000184 3134              ADDS      A2, A2, #52           ; [DPU_3_PIPE] |804|  ; [ORIG 16-BIT INS]
    1114                    $C$DW$73        .dwtag  DW_TAG_TI_branch
    1115                            .dwattr $C$DW$73, DW_AT_low_pc(0x00)
    1116                            .dwattr $C$DW$73, DW_AT_name("disk_read")
    1117                            .dwattr $C$DW$73, DW_AT_TI_call
    1118                    
    1119 00000186 FFFEF7FF!         BL        disk_read             ; [DPU_3_PIPE] |804|  ; [KEEP 32-BIT INS]
    1120                            ; CALL OCCURS {disk_read }       ; [] |804| 
    1121 0000018a B128              CBZ       A1, ||$C$L13||        ; []  ; [ORIG 16-BIT INS]
    1122                            ; BRANCHCC OCCURS {||$C$L13||}   ; [] |804| 
    1123                    ;* --------------------------------------------------------------------------*
    1124                            .dwpsn  file "../ff.c",line 805,column 9,is_stmt,isa 1
    1125                    ;----------------------------------------------------------------------
    1126                    ; 805 | sector = 0xFFFFFFFF;  /* Invalidate window if data is not reliable */  
    1127                    ;----------------------------------------------------------------------
    1128 0000018c 30FFF04F          MOV       A1, #-1               ; [DPU_3_PIPE] |805|  ; [KEEP 32-BIT INS]
    1129 00000190 9001              STR       A1, [SP, #4]          ; [DPU_3_PIPE] |805|  ; [ORIG 16-BIT INS]
    1130                            .dwpsn  file "../ff.c",line 806,column 9,is_stmt,isa 1
    1131                    ;----------------------------------------------------------------------
    1132                    ; 806 | res = FR_DISK_ERR;                                                     
    1133                    ;----------------------------------------------------------------------
    1134 00000192 2001              MOVS      A1, #1                ; [DPU_3_PIPE] |806|  ; [ORIG 16-BIT INS]
    1135 00000194 0008F88D          STRB      A1, [SP, #8]          ; [DPU_3_PIPE] |806|  ; [KEEP 32-BIT INS]
    1136                    ;* --------------------------------------------------------------------------*
    1137 00000198           ||$C$L13||:    
    1138                            .dwpsn  file "../ff.c",line 808,column 7,is_stmt,isa 1
    1139                    ;----------------------------------------------------------------------
    1140                    ; 808 | fs->winsect = sector;                                                  
    1141                    ;----------------------------------------------------------------------
    1142 00000198 9801              LDR       A1, [SP, #4]          ; [DPU_3_PIPE] |808|  ; [ORIG 16-BIT INS]
    1143 0000019a 9900              LDR       A2, [SP, #0]          ; [DPU_3_PIPE] |808|  ; [ORIG 16-BIT INS]
    1144 0000019c 6308              STR       A1, [A2, #48]         ; [DPU_3_PIPE] |808|  ; [ORIG 16-BIT INS]
    1145                    ;* --------------------------------------------------------------------------*
    1146 0000019e           ||$C$L14||:    
    1147                            .dwpsn  file "../ff.c",line 811,column 3,is_stmt,isa 1
    1148                    ;----------------------------------------------------------------------
    1149                    ; 811 | return res;                                                            
    1150                    ;----------------------------------------------------------------------
    1151 0000019e 0008F89D          LDRB      A1, [SP, #8]          ; [DPU_3_PIPE] |811|  ; [KEEP 32-BIT INS]
    1152                            .dwpsn  file "../ff.c",line 812,column 1,is_stmt,isa 1
    1153                    $C$DW$74        .dwtag  DW_TAG_TI_branch
    1154                            .dwattr $C$DW$74, DW_AT_low_pc(0x00)
    1155                            .dwattr $C$DW$74, DW_AT_TI_return
TI ARM Assembler PC v16.9.6 Sun Dec 02 13:28:41 2018

Tools Copyright (c) 1996-2017 Texas Instruments Incorporated
ff.asm                                                               PAGE   22

    1156                    
    1157 000001a2 BD0E              POP       {A2, A3, A4, PC}      ; [DPU_3_PIPE]  ; [ORIG 16-BIT INS]
    1158                            .dwcfi  cfa_offset, 0
    1159                            .dwcfi  restore_reg, 3
    1160                            .dwcfi  restore_reg, 2
    1161                            .dwcfi  restore_reg, 1
    1162                            ; BRANCH OCCURS                  ; [] 
    1163                            .dwattr $C$DW$66, DW_AT_TI_end_file("../ff.c")
    1164                            .dwattr $C$DW$66, DW_AT_TI_end_line(0x32c)
    1165                            .dwattr $C$DW$66, DW_AT_TI_end_column(0x01)
    1166                            .dwendentry
    1167                            .dwendtag $C$DW$66
    1168                    
    1169 000001a4                   .sect   ".text"
    1170                            .clink
    1171                            .thumbfunc sync_fs
    1172 000001a4                   .thumb
    1173                    
    1174                    $C$DW$75        .dwtag  DW_TAG_subprogram
    1175                            .dwattr $C$DW$75, DW_AT_name("sync_fs")
    1176                            .dwattr $C$DW$75, DW_AT_low_pc(sync_fs)
    1177                            .dwattr $C$DW$75, DW_AT_high_pc(0x00)
    1178                            .dwattr $C$DW$75, DW_AT_TI_symbol_name("sync_fs")
    1179                            .dwattr $C$DW$75, DW_AT_type(*$C$DW$T$45)
    1180                            .dwattr $C$DW$75, DW_AT_TI_begin_file("../ff.c")
    1181                            .dwattr $C$DW$75, DW_AT_TI_begin_line(0x336)
    1182                            .dwattr $C$DW$75, DW_AT_TI_begin_column(0x09)
    1183                            .dwattr $C$DW$75, DW_AT_decl_file("../ff.c")
    1184                            .dwattr $C$DW$75, DW_AT_decl_line(0x336)
    1185                            .dwattr $C$DW$75, DW_AT_decl_column(0x09)
    1186                            .dwattr $C$DW$75, DW_AT_TI_max_frame_size(0x10)
    1187                            .dwpsn  file "../ff.c",line 825,column 1,is_stmt,address sync_fs,isa 1
    1188                    
    1189                            .dwfde $C$DW$CIE, sync_fs
    1190                    $C$DW$76        .dwtag  DW_TAG_formal_parameter
    1191                            .dwattr $C$DW$76, DW_AT_name("fs")
    1192                            .dwattr $C$DW$76, DW_AT_TI_symbol_name("fs")
    1193                            .dwattr $C$DW$76, DW_AT_type(*$C$DW$T$25)
    1194                            .dwattr $C$DW$76, DW_AT_location[DW_OP_reg0]
    1195                    
    1196                    ;----------------------------------------------------------------------
    1197                    ; 822 | FRESULT sync_fs (  /* FR_OK: successful, FR_DISK_ERR: failed */        
    1198                    ; 823 | FATFS* fs    /* File system object */                                  
    1199                    ; 824 | )                                                                      
    1200                    ;----------------------------------------------------------------------
    1201                    
    1202                    ;*****************************************************************************
    1203                    ;* FUNCTION NAME: sync_fs                                                    *
    1204                    ;*                                                                           *
    1205                    ;*   Regs Modified     : A1,A2,A3,A4,V9,SP,LR,SR,D0,D0_hi,D1,D1_hi,D2,D2_hi, *
    1206                    ;*                           D3,D3_hi,D4,D4_hi,D5,D5_hi,D6,D6_hi,D7,D7_hi,   *
    1207                    ;*                           FPEXC,FPSCR                                     *
    1208                    ;*   Regs Used         : A1,A2,A3,A4,V9,SP,LR,SR,D0,D0_hi,D1,D1_hi,D2,D2_hi, *
    1209                    ;*                           D3,D3_hi,D4,D4_hi,D5,D5_hi,D6,D6_hi,D7,D7_hi,   *
    1210                    ;*                           FPEXC,FPSCR                                     *
TI ARM Assembler PC v16.9.6 Sun Dec 02 13:28:41 2018

Tools Copyright (c) 1996-2017 Texas Instruments Incorporated
ff.asm                                                               PAGE   23

    1211                    ;*   Local Frame Size  : 0 Args + 8 Auto + 4 Save = 12 byte                  *
    1212                    ;*****************************************************************************
    1213 000001a4           sync_fs:
    1214                    ;* --------------------------------------------------------------------------*
    1215                            .dwcfi  cfa_offset, 0
    1216 000001a4 B50E              PUSH      {A2, A3, A4, LR}      ; [DPU_3_PIPE]  ; [ORIG 16-BIT INS]
    1217                            .dwcfi  cfa_offset, 16
    1218                            .dwcfi  save_reg_to_mem, 14, -4
    1219                            .dwcfi  save_reg_to_mem, 3, -8
    1220                            .dwcfi  save_reg_to_mem, 2, -12
    1221                            .dwcfi  save_reg_to_mem, 1, -16
    1222                    $C$DW$77        .dwtag  DW_TAG_variable
    1223                            .dwattr $C$DW$77, DW_AT_name("fs")
    1224                            .dwattr $C$DW$77, DW_AT_TI_symbol_name("fs")
    1225                            .dwattr $C$DW$77, DW_AT_type(*$C$DW$T$25)
    1226                            .dwattr $C$DW$77, DW_AT_location[DW_OP_breg13 0]
    1227                    
    1228                    $C$DW$78        .dwtag  DW_TAG_variable
    1229                            .dwattr $C$DW$78, DW_AT_name("res")
    1230                            .dwattr $C$DW$78, DW_AT_TI_symbol_name("res")
    1231                            .dwattr $C$DW$78, DW_AT_type(*$C$DW$T$45)
    1232                            .dwattr $C$DW$78, DW_AT_location[DW_OP_breg13 4]
    1233                    
    1234                    ;----------------------------------------------------------------------
    1235                    ; 826 | FRESULT res;                                                           
    1236                    ;----------------------------------------------------------------------
    1237 000001a6 9000              STR       A1, [SP, #0]          ; [DPU_3_PIPE] |825|  ; [ORIG 16-BIT INS]
    1238                            .dwpsn  file "../ff.c",line 829,column 3,is_stmt,isa 1
    1239                    ;----------------------------------------------------------------------
    1240                    ; 829 | res = sync_window(fs);                                                 
    1241                    ;----------------------------------------------------------------------
    1242 000001a8 9800              LDR       A1, [SP, #0]          ; [DPU_3_PIPE] |829|  ; [ORIG 16-BIT INS]
    1243                    $C$DW$79        .dwtag  DW_TAG_TI_branch
    1244                            .dwattr $C$DW$79, DW_AT_low_pc(0x00)
    1245                            .dwattr $C$DW$79, DW_AT_name("sync_window")
    1246                            .dwattr $C$DW$79, DW_AT_TI_call
    1247                    
    1248 000001aa FFFEF7FF!         BL        sync_window           ; [DPU_3_PIPE] |829|  ; [KEEP 32-BIT INS]
    1249                            ; CALL OCCURS {sync_window }     ; [] |829| 
    1250 000001ae 0004F88D          STRB      A1, [SP, #4]          ; [DPU_3_PIPE] |829|  ; [KEEP 32-BIT INS]
    1251                            .dwpsn  file "../ff.c",line 830,column 3,is_stmt,isa 1
    1252                    ;----------------------------------------------------------------------
    1253                    ; 830 | if (res == FR_OK) {                                                    
    1254                    ;----------------------------------------------------------------------
    1255 000001b2 0004F89D          LDRB      A1, [SP, #4]          ; [DPU_3_PIPE] |830|  ; [KEEP 32-BIT INS]
    1256 000001b6 2800              CMP       A1, #0                ; [DPU_3_PIPE] |830|  ; [ORIG 16-BIT INS]
    1257 000001b8 D17B              BNE       ||$C$L16||            ; [DPU_3_PIPE] |830|  ; [ORIG 16-BIT INS]
    1258                            ; BRANCHCC OCCURS {||$C$L16||}   ; [] |830| 
    1259                    ;* --------------------------------------------------------------------------*
    1260                            .dwpsn  file "../ff.c",line 832,column 5,is_stmt,isa 1
    1261                    ;----------------------------------------------------------------------
    1262                    ; 832 | if (fs->fs_type == FS_FAT32 && fs->fsi_flag == 1) {                    
    1263                    ;----------------------------------------------------------------------
    1264 000001ba 9800              LDR       A1, [SP, #0]          ; [DPU_3_PIPE] |832|  ; [ORIG 16-BIT INS]
    1265 000001bc 7800              LDRB      A1, [A1, #0]          ; [DPU_3_PIPE] |832|  ; [ORIG 16-BIT INS]
TI ARM Assembler PC v16.9.6 Sun Dec 02 13:28:41 2018

Tools Copyright (c) 1996-2017 Texas Instruments Incorporated
ff.asm                                                               PAGE   24

    1266 000001be 2803              CMP       A1, #3                ; [DPU_3_PIPE] |832|  ; [ORIG 16-BIT INS]
    1267 000001c0 D16D              BNE       ||$C$L15||            ; [DPU_3_PIPE] |832|  ; [ORIG 16-BIT INS]
    1268                            ; BRANCHCC OCCURS {||$C$L15||}   ; [] |832| 
    1269                    ;* --------------------------------------------------------------------------*
    1270 000001c2 9800              LDR       A1, [SP, #0]          ; [DPU_3_PIPE] |832|  ; [ORIG 16-BIT INS]
    1271 000001c4 7940              LDRB      A1, [A1, #5]          ; [DPU_3_PIPE] |832|  ; [ORIG 16-BIT INS]
    1272 000001c6 2801              CMP       A1, #1                ; [DPU_3_PIPE] |832|  ; [ORIG 16-BIT INS]
    1273 000001c8 D169              BNE       ||$C$L15||            ; [DPU_3_PIPE] |832|  ; [ORIG 16-BIT INS]
    1274                            ; BRANCHCC OCCURS {||$C$L15||}   ; [] |832| 
    1275                    ;* --------------------------------------------------------------------------*
    1276                            .dwpsn  file "../ff.c",line 834,column 7,is_stmt,isa 1
    1277                    ;----------------------------------------------------------------------
    1278                    ; 834 | mem_set(fs->win, 0, SS(fs));                                           
    1279                    ;----------------------------------------------------------------------
    1280 000001ca 9800              LDR       A1, [SP, #0]          ; [DPU_3_PIPE] |834|  ; [ORIG 16-BIT INS]
    1281 000001cc 2100              MOVS      A2, #0                ; [DPU_3_PIPE] |834|  ; [ORIG 16-BIT INS]
    1282 000001ce 7200F44F          MOV       A3, #512              ; [DPU_3_PIPE] |834|  ; [KEEP 32-BIT INS]
    1283 000001d2 3034              ADDS      A1, A1, #52           ; [DPU_3_PIPE] |834|  ; [ORIG 16-BIT INS]
    1284                    $C$DW$80        .dwtag  DW_TAG_TI_branch
    1285                            .dwattr $C$DW$80, DW_AT_low_pc(0x00)
    1286                            .dwattr $C$DW$80, DW_AT_name("mem_set")
    1287                            .dwattr $C$DW$80, DW_AT_TI_call
    1288                    
    1289 000001d4 FFFEF7FF!         BL        mem_set               ; [DPU_3_PIPE] |834|  ; [KEEP 32-BIT INS]
    1290                            ; CALL OCCURS {mem_set }         ; [] |834| 
    1291                            .dwpsn  file "../ff.c",line 835,column 7,is_stmt,isa 1
    1292                    ;----------------------------------------------------------------------
    1293                    ; 835 | ST_WORD(fs->win+BS_55AA, 0xAA55);                                      
    1294                    ;----------------------------------------------------------------------
    1295 000001d8 9900              LDR       A2, [SP, #0]          ; [DPU_3_PIPE] |835|  ; [ORIG 16-BIT INS]
    1296 000001da 2055              MOVS      A1, #85               ; [DPU_3_PIPE] |835|  ; [ORIG 16-BIT INS]
    1297 000001dc 0232F881          STRB      A1, [A2, #562]        ; [DPU_3_PIPE] |835|  ; [KEEP 32-BIT INS]
    1298 000001e0 9900              LDR       A2, [SP, #0]          ; [DPU_3_PIPE] |835|  ; [ORIG 16-BIT INS]
    1299 000001e2 20AA              MOVS      A1, #170              ; [DPU_3_PIPE] |835|  ; [ORIG 16-BIT INS]
    1300 000001e4 0233F881          STRB      A1, [A2, #563]        ; [DPU_3_PIPE] |835|  ; [KEEP 32-BIT INS]
    1301                            .dwpsn  file "../ff.c",line 836,column 7,is_stmt,isa 1
    1302                    ;----------------------------------------------------------------------
    1303                    ; 836 | ST_DWORD(fs->win+FSI_LeadSig, 0x41615252);                             
    1304                    ;----------------------------------------------------------------------
    1305 000001e8 9900              LDR       A2, [SP, #0]          ; [DPU_3_PIPE] |836|  ; [ORIG 16-BIT INS]
    1306 000001ea 2052              MOVS      A1, #82               ; [DPU_3_PIPE] |836|  ; [ORIG 16-BIT INS]
    1307 000001ec 0034F881          STRB      A1, [A2, #52]         ; [DPU_3_PIPE] |836|  ; [KEEP 32-BIT INS]
    1308 000001f0 9900              LDR       A2, [SP, #0]          ; [DPU_3_PIPE] |836|  ; [ORIG 16-BIT INS]
    1309 000001f2 2052              MOVS      A1, #82               ; [DPU_3_PIPE] |836|  ; [ORIG 16-BIT INS]
    1310 000001f4 0035F881          STRB      A1, [A2, #53]         ; [DPU_3_PIPE] |836|  ; [KEEP 32-BIT INS]
    1311 000001f8 9900              LDR       A2, [SP, #0]          ; [DPU_3_PIPE] |836|  ; [ORIG 16-BIT INS]
    1312 000001fa 2061              MOVS      A1, #97               ; [DPU_3_PIPE] |836|  ; [ORIG 16-BIT INS]
    1313 000001fc 0036F881          STRB      A1, [A2, #54]         ; [DPU_3_PIPE] |836|  ; [KEEP 32-BIT INS]
    1314 00000200 9900              LDR       A2, [SP, #0]          ; [DPU_3_PIPE] |836|  ; [ORIG 16-BIT INS]
    1315 00000202 2041              MOVS      A1, #65               ; [DPU_3_PIPE] |836|  ; [ORIG 16-BIT INS]
    1316 00000204 0037F881          STRB      A1, [A2, #55]         ; [DPU_3_PIPE] |836|  ; [KEEP 32-BIT INS]
    1317                            .dwpsn  file "../ff.c",line 837,column 7,is_stmt,isa 1
    1318                    ;----------------------------------------------------------------------
    1319                    ; 837 | ST_DWORD(fs->win+FSI_StrucSig, 0x61417272);                            
    1320                    ;----------------------------------------------------------------------
TI ARM Assembler PC v16.9.6 Sun Dec 02 13:28:41 2018

Tools Copyright (c) 1996-2017 Texas Instruments Incorporated
ff.asm                                                               PAGE   25

    1321 00000208 9900              LDR       A2, [SP, #0]          ; [DPU_3_PIPE] |837|  ; [ORIG 16-BIT INS]
    1322 0000020a 2072              MOVS      A1, #114              ; [DPU_3_PIPE] |837|  ; [ORIG 16-BIT INS]
    1323 0000020c 0218F881          STRB      A1, [A2, #536]        ; [DPU_3_PIPE] |837|  ; [KEEP 32-BIT INS]
    1324 00000210 9900              LDR       A2, [SP, #0]          ; [DPU_3_PIPE] |837|  ; [ORIG 16-BIT INS]
    1325 00000212 2072              MOVS      A1, #114              ; [DPU_3_PIPE] |837|  ; [ORIG 16-BIT INS]
    1326 00000214 0219F881          STRB      A1, [A2, #537]        ; [DPU_3_PIPE] |837|  ; [KEEP 32-BIT INS]
    1327 00000218 9900              LDR       A2, [SP, #0]          ; [DPU_3_PIPE] |837|  ; [ORIG 16-BIT INS]
    1328 0000021a 2041              MOVS      A1, #65               ; [DPU_3_PIPE] |837|  ; [ORIG 16-BIT INS]
    1329 0000021c 021AF881          STRB      A1, [A2, #538]        ; [DPU_3_PIPE] |837|  ; [KEEP 32-BIT INS]
    1330 00000220 9900              LDR       A2, [SP, #0]          ; [DPU_3_PIPE] |837|  ; [ORIG 16-BIT INS]
    1331 00000222 2061              MOVS      A1, #97               ; [DPU_3_PIPE] |837|  ; [ORIG 16-BIT INS]
    1332 00000224 021BF881          STRB      A1, [A2, #539]        ; [DPU_3_PIPE] |837|  ; [KEEP 32-BIT INS]
    1333                            .dwpsn  file "../ff.c",line 838,column 7,is_stmt,isa 1
    1334                    ;----------------------------------------------------------------------
    1335                    ; 838 | ST_DWORD(fs->win+FSI_Free_Count, fs->free_clust);                      
    1336                    ;----------------------------------------------------------------------
    1337 00000228 9800              LDR       A1, [SP, #0]          ; [DPU_3_PIPE] |838|  ; [ORIG 16-BIT INS]
    1338 0000022a 9900              LDR       A2, [SP, #0]          ; [DPU_3_PIPE] |838|  ; [ORIG 16-BIT INS]
    1339 0000022c 7C00              LDRB      A1, [A1, #16]         ; [DPU_3_PIPE] |838|  ; [ORIG 16-BIT INS]
    1340 0000022e 021CF881          STRB      A1, [A2, #540]        ; [DPU_3_PIPE] |838|  ; [KEEP 32-BIT INS]
    1341 00000232 9800              LDR       A1, [SP, #0]          ; [DPU_3_PIPE] |838|  ; [ORIG 16-BIT INS]
    1342 00000234 9900              LDR       A2, [SP, #0]          ; [DPU_3_PIPE] |838|  ; [ORIG 16-BIT INS]
    1343 00000236 8A00              LDRH      A1, [A1, #16]         ; [DPU_3_PIPE] |838|  ; [ORIG 16-BIT INS]
    1344 00000238 1200              ASRS      A1, A1, #8            ; [DPU_3_PIPE] |838|  ; [ORIG 16-BIT INS]
    1345 0000023a 021DF881          STRB      A1, [A2, #541]        ; [DPU_3_PIPE] |838|  ; [KEEP 32-BIT INS]
    1346 0000023e 9800              LDR       A1, [SP, #0]          ; [DPU_3_PIPE] |838|  ; [ORIG 16-BIT INS]
    1347 00000240 9900              LDR       A2, [SP, #0]          ; [DPU_3_PIPE] |838|  ; [ORIG 16-BIT INS]
    1348 00000242 7C80              LDRB      A1, [A1, #18]         ; [DPU_3_PIPE] |838|  ; [ORIG 16-BIT INS]
    1349 00000244 021EF881          STRB      A1, [A2, #542]        ; [DPU_3_PIPE] |838|  ; [KEEP 32-BIT INS]
    1350 00000248 9800              LDR       A1, [SP, #0]          ; [DPU_3_PIPE] |838|  ; [ORIG 16-BIT INS]
    1351 0000024a 9900              LDR       A2, [SP, #0]          ; [DPU_3_PIPE] |838|  ; [ORIG 16-BIT INS]
    1352 0000024c 7CC0              LDRB      A1, [A1, #19]         ; [DPU_3_PIPE] |838|  ; [ORIG 16-BIT INS]
    1353 0000024e 021FF881          STRB      A1, [A2, #543]        ; [DPU_3_PIPE] |838|  ; [KEEP 32-BIT INS]
    1354                            .dwpsn  file "../ff.c",line 839,column 7,is_stmt,isa 1
    1355                    ;----------------------------------------------------------------------
    1356                    ; 839 | ST_DWORD(fs->win+FSI_Nxt_Free, fs->last_clust);                        
    1357                    ;----------------------------------------------------------------------
    1358 00000252 9800              LDR       A1, [SP, #0]          ; [DPU_3_PIPE] |839|  ; [ORIG 16-BIT INS]
    1359 00000254 9900              LDR       A2, [SP, #0]          ; [DPU_3_PIPE] |839|  ; [ORIG 16-BIT INS]
    1360 00000256 7B00              LDRB      A1, [A1, #12]         ; [DPU_3_PIPE] |839|  ; [ORIG 16-BIT INS]
    1361 00000258 0220F881          STRB      A1, [A2, #544]        ; [DPU_3_PIPE] |839|  ; [KEEP 32-BIT INS]
    1362 0000025c 9800              LDR       A1, [SP, #0]          ; [DPU_3_PIPE] |839|  ; [ORIG 16-BIT INS]
    1363 0000025e 9900              LDR       A2, [SP, #0]          ; [DPU_3_PIPE] |839|  ; [ORIG 16-BIT INS]
    1364 00000260 8980              LDRH      A1, [A1, #12]         ; [DPU_3_PIPE] |839|  ; [ORIG 16-BIT INS]
    1365 00000262 1200              ASRS      A1, A1, #8            ; [DPU_3_PIPE] |839|  ; [ORIG 16-BIT INS]
    1366 00000264 0221F881          STRB      A1, [A2, #545]        ; [DPU_3_PIPE] |839|  ; [KEEP 32-BIT INS]
    1367 00000268 9800              LDR       A1, [SP, #0]          ; [DPU_3_PIPE] |839|  ; [ORIG 16-BIT INS]
    1368 0000026a 9900              LDR       A2, [SP, #0]          ; [DPU_3_PIPE] |839|  ; [ORIG 16-BIT INS]
    1369 0000026c 7B80              LDRB      A1, [A1, #14]         ; [DPU_3_PIPE] |839|  ; [ORIG 16-BIT INS]
    1370 0000026e 0222F881          STRB      A1, [A2, #546]        ; [DPU_3_PIPE] |839|  ; [KEEP 32-BIT INS]
    1371 00000272 9800              LDR       A1, [SP, #0]          ; [DPU_3_PIPE] |839|  ; [ORIG 16-BIT INS]
    1372 00000274 9900              LDR       A2, [SP, #0]          ; [DPU_3_PIPE] |839|  ; [ORIG 16-BIT INS]
    1373 00000276 7BC0              LDRB      A1, [A1, #15]         ; [DPU_3_PIPE] |839|  ; [ORIG 16-BIT INS]
    1374 00000278 0223F881          STRB      A1, [A2, #547]        ; [DPU_3_PIPE] |839|  ; [KEEP 32-BIT INS]
    1375                            .dwpsn  file "../ff.c",line 841,column 7,is_stmt,isa 1
TI ARM Assembler PC v16.9.6 Sun Dec 02 13:28:41 2018

Tools Copyright (c) 1996-2017 Texas Instruments Incorporated
ff.asm                                                               PAGE   26

    1376                    ;----------------------------------------------------------------------
    1377                    ; 841 | fs->winsect = fs->volbase + 1;                                         
    1378                    ;----------------------------------------------------------------------
    1379 0000027c 9800              LDR       A1, [SP, #0]          ; [DPU_3_PIPE] |841|  ; [ORIG 16-BIT INS]
    1380 0000027e 9900              LDR       A2, [SP, #0]          ; [DPU_3_PIPE] |841|  ; [ORIG 16-BIT INS]
    1381 00000280 6A00              LDR       A1, [A1, #32]         ; [DPU_3_PIPE] |841|  ; [ORIG 16-BIT INS]
    1382 00000282 1C40              ADDS      A1, A1, #1            ; [DPU_3_PIPE] |841|  ; [ORIG 16-BIT INS]
    1383 00000284 6308              STR       A1, [A2, #48]         ; [DPU_3_PIPE] |841|  ; [ORIG 16-BIT INS]
    1384                            .dwpsn  file "../ff.c",line 842,column 7,is_stmt,isa 1
    1385                    ;----------------------------------------------------------------------
    1386                    ; 842 | disk_write(fs->drv, fs->win, fs->winsect, 1);                          
    1387                    ;----------------------------------------------------------------------
    1388 00000286 9800              LDR       A1, [SP, #0]          ; [DPU_3_PIPE] |842|  ; [ORIG 16-BIT INS]
    1389 00000288 9A00              LDR       A3, [SP, #0]          ; [DPU_3_PIPE] |842|  ; [ORIG 16-BIT INS]
    1390 0000028a 9900              LDR       A2, [SP, #0]          ; [DPU_3_PIPE] |842|  ; [ORIG 16-BIT INS]
    1391 0000028c 7840              LDRB      A1, [A1, #1]          ; [DPU_3_PIPE] |842|  ; [ORIG 16-BIT INS]
    1392 0000028e 6B12              LDR       A3, [A3, #48]         ; [DPU_3_PIPE] |842|  ; [ORIG 16-BIT INS]
    1393 00000290 2301              MOVS      A4, #1                ; [DPU_3_PIPE] |842|  ; [ORIG 16-BIT INS]
    1394 00000292 3134              ADDS      A2, A2, #52           ; [DPU_3_PIPE] |842|  ; [ORIG 16-BIT INS]
    1395                    $C$DW$81        .dwtag  DW_TAG_TI_branch
    1396                            .dwattr $C$DW$81, DW_AT_low_pc(0x00)
    1397                            .dwattr $C$DW$81, DW_AT_name("disk_write")
    1398                            .dwattr $C$DW$81, DW_AT_TI_call
    1399                    
    1400 00000294 FFFEF7FF!         BL        disk_write            ; [DPU_3_PIPE] |842|  ; [KEEP 32-BIT INS]
    1401                            ; CALL OCCURS {disk_write }      ; [] |842| 
    1402                            .dwpsn  file "../ff.c",line 843,column 7,is_stmt,isa 1
    1403                    ;----------------------------------------------------------------------
    1404                    ; 843 | fs->fsi_flag = 0;                                                      
    1405                    ;----------------------------------------------------------------------
    1406 00000298 9800              LDR       A1, [SP, #0]          ; [DPU_3_PIPE] |843|  ; [ORIG 16-BIT INS]
    1407 0000029a 2100              MOVS      A2, #0                ; [DPU_3_PIPE] |843|  ; [ORIG 16-BIT INS]
    1408 0000029c 7141              STRB      A2, [A1, #5]          ; [DPU_3_PIPE] |843|  ; [ORIG 16-BIT INS]
    1409                    ;* --------------------------------------------------------------------------*
    1410 0000029e           ||$C$L15||:    
    1411                            .dwpsn  file "../ff.c",line 846,column 5,is_stmt,isa 1
    1412                    ;----------------------------------------------------------------------
    1413                    ; 846 | if (disk_ioctl(fs->drv, CTRL_SYNC, 0) != RES_OK)                       
    1414                    ;----------------------------------------------------------------------
    1415 0000029e 9800              LDR       A1, [SP, #0]          ; [DPU_3_PIPE] |846|  ; [ORIG 16-BIT INS]
    1416 000002a0 7840              LDRB      A1, [A1, #1]          ; [DPU_3_PIPE] |846|  ; [ORIG 16-BIT INS]
    1417 000002a2 2100              MOVS      A2, #0                ; [DPU_3_PIPE] |846|  ; [ORIG 16-BIT INS]
    1418 000002a4 2200              MOVS      A3, #0                ; [DPU_3_PIPE] |846|  ; [ORIG 16-BIT INS]
    1419                    $C$DW$82        .dwtag  DW_TAG_TI_branch
    1420                            .dwattr $C$DW$82, DW_AT_low_pc(0x00)
    1421                            .dwattr $C$DW$82, DW_AT_name("disk_ioctl")
    1422                            .dwattr $C$DW$82, DW_AT_TI_call
    1423                    
    1424 000002a6 FFFEF7FF!         BL        disk_ioctl            ; [DPU_3_PIPE] |846|  ; [KEEP 32-BIT INS]
    1425                            ; CALL OCCURS {disk_ioctl }      ; [] |846| 
    1426 000002aa B110              CBZ       A1, ||$C$L16||        ; []  ; [ORIG 16-BIT INS]
    1427                            ; BRANCHCC OCCURS {||$C$L16||}   ; [] |846| 
    1428                    ;* --------------------------------------------------------------------------*
    1429                            .dwpsn  file "../ff.c",line 847,column 7,is_stmt,isa 1
    1430                    ;----------------------------------------------------------------------
TI ARM Assembler PC v16.9.6 Sun Dec 02 13:28:41 2018

Tools Copyright (c) 1996-2017 Texas Instruments Incorporated
ff.asm                                                               PAGE   27

    1431                    ; 847 | res = FR_DISK_ERR;                                                     
    1432                    ;----------------------------------------------------------------------
    1433 000002ac 2001              MOVS      A1, #1                ; [DPU_3_PIPE] |847|  ; [ORIG 16-BIT INS]
    1434 000002ae 0004F88D          STRB      A1, [SP, #4]          ; [DPU_3_PIPE] |847|  ; [KEEP 32-BIT INS]
    1435                    ;* --------------------------------------------------------------------------*
    1436 000002b2           ||$C$L16||:    
    1437                            .dwpsn  file "../ff.c",line 850,column 3,is_stmt,isa 1
    1438                    ;----------------------------------------------------------------------
    1439                    ; 850 | return res;                                                            
    1440                    ;----------------------------------------------------------------------
    1441 000002b2 0004F89D          LDRB      A1, [SP, #4]          ; [DPU_3_PIPE] |850|  ; [KEEP 32-BIT INS]
    1442                            .dwpsn  file "../ff.c",line 851,column 1,is_stmt,isa 1
    1443                    $C$DW$83        .dwtag  DW_TAG_TI_branch
    1444                            .dwattr $C$DW$83, DW_AT_low_pc(0x00)
    1445                            .dwattr $C$DW$83, DW_AT_TI_return
    1446                    
    1447 000002b6 BD0E              POP       {A2, A3, A4, PC}      ; [DPU_3_PIPE]  ; [ORIG 16-BIT INS]
    1448                            .dwcfi  cfa_offset, 0
    1449                            .dwcfi  restore_reg, 3
    1450                            .dwcfi  restore_reg, 2
    1451                            .dwcfi  restore_reg, 1
    1452                            ; BRANCH OCCURS                  ; [] 
    1453                            .dwattr $C$DW$75, DW_AT_TI_end_file("../ff.c")
    1454                            .dwattr $C$DW$75, DW_AT_TI_end_line(0x353)
    1455                            .dwattr $C$DW$75, DW_AT_TI_end_column(0x01)
    1456                            .dwendentry
    1457                            .dwendtag $C$DW$75
    1458                    
    1459 000002b8                   .sect   ".text"
    1460                            .clink
    1461                            .thumbfunc clust2sect
    1462 000002b8                   .thumb
    1463                            .global clust2sect
    1464                    
    1465                    $C$DW$84        .dwtag  DW_TAG_subprogram
    1466                            .dwattr $C$DW$84, DW_AT_name("clust2sect")
    1467                            .dwattr $C$DW$84, DW_AT_low_pc(clust2sect)
    1468                            .dwattr $C$DW$84, DW_AT_high_pc(0x00)
    1469                            .dwattr $C$DW$84, DW_AT_TI_symbol_name("clust2sect")
    1470                            .dwattr $C$DW$84, DW_AT_external
    1471                            .dwattr $C$DW$84, DW_AT_type(*$C$DW$T$21)
    1472                            .dwattr $C$DW$84, DW_AT_TI_begin_file("../ff.c")
    1473                            .dwattr $C$DW$84, DW_AT_TI_begin_line(0x35e)
    1474                            .dwattr $C$DW$84, DW_AT_TI_begin_column(0x07)
    1475                            .dwattr $C$DW$84, DW_AT_decl_file("../ff.c")
    1476                            .dwattr $C$DW$84, DW_AT_decl_line(0x35e)
    1477                            .dwattr $C$DW$84, DW_AT_decl_column(0x07)
    1478                            .dwattr $C$DW$84, DW_AT_TI_max_frame_size(0x08)
    1479                            .dwpsn  file "../ff.c",line 866,column 1,is_stmt,address clust2sect,isa 1
    1480                    
    1481                            .dwfde $C$DW$CIE, clust2sect
    1482                    $C$DW$85        .dwtag  DW_TAG_formal_parameter
    1483                            .dwattr $C$DW$85, DW_AT_name("fs")
    1484                            .dwattr $C$DW$85, DW_AT_TI_symbol_name("fs")
    1485                            .dwattr $C$DW$85, DW_AT_type(*$C$DW$T$25)
TI ARM Assembler PC v16.9.6 Sun Dec 02 13:28:41 2018

Tools Copyright (c) 1996-2017 Texas Instruments Incorporated
ff.asm                                                               PAGE   28

    1486                            .dwattr $C$DW$85, DW_AT_location[DW_OP_reg0]
    1487                    
    1488                    $C$DW$86        .dwtag  DW_TAG_formal_parameter
    1489                            .dwattr $C$DW$86, DW_AT_name("clst")
    1490                            .dwattr $C$DW$86, DW_AT_TI_symbol_name("clst")
    1491                            .dwattr $C$DW$86, DW_AT_type(*$C$DW$T$21)
    1492                            .dwattr $C$DW$86, DW_AT_location[DW_OP_reg1]
    1493                    
    1494                    ;----------------------------------------------------------------------
    1495                    ; 862 | DWORD clust2sect (  /* !=0: Sector number, 0: Failed - invalid cluster#
    1496                    ;     |  */                                                                    
    1497                    ; 863 | FATFS* fs,    /* File system object */                                 
    1498                    ; 864 | DWORD clst    /* Cluster# to be converted */                           
    1499                    ; 865 | )                                                                      
    1500                    ;----------------------------------------------------------------------
    1501                    
    1502                    ;*****************************************************************************
    1503                    ;* FUNCTION NAME: clust2sect                                                 *
    1504                    ;*                                                                           *
    1505                    ;*   Regs Modified     : A1,A2,A3,SP,SR                                      *
    1506                    ;*   Regs Used         : A1,A2,A3,SP,LR,SR                                   *
    1507                    ;*   Local Frame Size  : 0 Args + 8 Auto + 0 Save = 8 byte                   *
    1508                    ;*****************************************************************************
    1509 000002b8           clust2sect:
    1510                    ;* --------------------------------------------------------------------------*
    1511                            .dwcfi  cfa_offset, 0
    1512 000002b8 0D08F1AD          SUB       SP, SP, #8            ; [DPU_3_PIPE]  ; [KEEP 32-BIT INS]
    1513                            .dwcfi  cfa_offset, 8
    1514                    $C$DW$87        .dwtag  DW_TAG_variable
    1515                            .dwattr $C$DW$87, DW_AT_name("fs")
    1516                            .dwattr $C$DW$87, DW_AT_TI_symbol_name("fs")
    1517                            .dwattr $C$DW$87, DW_AT_type(*$C$DW$T$25)
    1518                            .dwattr $C$DW$87, DW_AT_location[DW_OP_breg13 0]
    1519                    
    1520                    $C$DW$88        .dwtag  DW_TAG_variable
    1521                            .dwattr $C$DW$88, DW_AT_name("clst")
    1522                            .dwattr $C$DW$88, DW_AT_TI_symbol_name("clst")
    1523                            .dwattr $C$DW$88, DW_AT_type(*$C$DW$T$21)
    1524                            .dwattr $C$DW$88, DW_AT_location[DW_OP_breg13 4]
    1525                    
    1526 000002bc 9101              STR       A2, [SP, #4]          ; [DPU_3_PIPE] |866|  ; [ORIG 16-BIT INS]
    1527 000002be 9000              STR       A1, [SP, #0]          ; [DPU_3_PIPE] |866|  ; [ORIG 16-BIT INS]
    1528                            .dwpsn  file "../ff.c",line 867,column 3,is_stmt,isa 1
    1529                    ;----------------------------------------------------------------------
    1530                    ; 867 | clst -= 2;                                                             
    1531                    ;----------------------------------------------------------------------
    1532 000002c0 9801              LDR       A1, [SP, #4]          ; [DPU_3_PIPE] |867|  ; [ORIG 16-BIT INS]
    1533 000002c2 1E80              SUBS      A1, A1, #2            ; [DPU_3_PIPE] |867|  ; [ORIG 16-BIT INS]
    1534 000002c4 9001              STR       A1, [SP, #4]          ; [DPU_3_PIPE] |867|  ; [ORIG 16-BIT INS]
    1535                            .dwpsn  file "../ff.c",line 868,column 3,is_stmt,isa 1
    1536                    ;----------------------------------------------------------------------
    1537                    ; 868 | if (clst >= fs->n_fatent - 2) return 0;    /* Invalid cluster# */      
    1538                    ;----------------------------------------------------------------------
    1539 000002c6 9800              LDR       A1, [SP, #0]          ; [DPU_3_PIPE] |868|  ; [ORIG 16-BIT INS]
    1540 000002c8 9901              LDR       A2, [SP, #4]          ; [DPU_3_PIPE] |868|  ; [ORIG 16-BIT INS]
TI ARM Assembler PC v16.9.6 Sun Dec 02 13:28:41 2018

Tools Copyright (c) 1996-2017 Texas Instruments Incorporated
ff.asm                                                               PAGE   29

    1541 000002ca 6980              LDR       A1, [A1, #24]         ; [DPU_3_PIPE] |868|  ; [ORIG 16-BIT INS]
    1542 000002cc 1E80              SUBS      A1, A1, #2            ; [DPU_3_PIPE] |868|  ; [ORIG 16-BIT INS]
    1543 000002ce 4288              CMP       A1, A2                ; [DPU_3_PIPE] |868|  ; [ORIG 16-BIT INS]
    1544 000002d0 D801              BHI       ||$C$L17||            ; [DPU_3_PIPE] |868|  ; [ORIG 16-BIT INS]
    1545                            ; BRANCHCC OCCURS {||$C$L17||}   ; [] |868| 
    1546                    ;* --------------------------------------------------------------------------*
    1547                            .dwpsn  file "../ff.c",line 868,column 33,is_stmt,isa 1
    1548 000002d2 2000              MOVS      A1, #0                ; [DPU_3_PIPE] |868|  ; [ORIG 16-BIT INS]
    1549 000002d4 E006              B         ||$C$L18||            ; [DPU_3_PIPE] |868|  ; [ORIG 16-BIT INS]
    1550                            ; BRANCH OCCURS {||$C$L18||}     ; [] |868| 
    1551                    ;* --------------------------------------------------------------------------*
    1552 000002d6           ||$C$L17||:    
    1553                            .dwpsn  file "../ff.c",line 869,column 3,is_stmt,isa 1
    1554                    ;----------------------------------------------------------------------
    1555                    ; 869 | return clst * fs->csize + fs->database;                                
    1556                    ;----------------------------------------------------------------------
    1557 000002d6 9900              LDR       A2, [SP, #0]          ; [DPU_3_PIPE] |869|  ; [ORIG 16-BIT INS]
    1558 000002d8 9800              LDR       A1, [SP, #0]          ; [DPU_3_PIPE] |869|  ; [ORIG 16-BIT INS]
    1559 000002da 9A01              LDR       A3, [SP, #4]          ; [DPU_3_PIPE] |869|  ; [ORIG 16-BIT INS]
    1560 000002dc 7889              LDRB      A2, [A2, #2]          ; [DPU_3_PIPE] |869|  ; [ORIG 16-BIT INS]
    1561 000002de 6AC0              LDR       A1, [A1, #44]         ; [DPU_3_PIPE] |869|  ; [ORIG 16-BIT INS]
    1562 000002e0 0002FB01          MLA       A1, A2, A3, A1        ; [DPU_3_PIPE] |869|  ; [KEEP 32-BIT INS]
    1563                    ;* --------------------------------------------------------------------------*
    1564 000002e4           ||$C$L18||:    
    1565                            .dwpsn  file "../ff.c",line 870,column 1,is_stmt,isa 1
    1566 000002e4 B002              ADD       SP, SP, #8            ; [DPU_3_PIPE]  ; [ORIG 16-BIT INS]
    1567                            .dwcfi  cfa_offset, 0
    1568                    $C$DW$89        .dwtag  DW_TAG_TI_branch
    1569                            .dwattr $C$DW$89, DW_AT_low_pc(0x00)
    1570                            .dwattr $C$DW$89, DW_AT_TI_return
    1571                    
    1572 000002e6 4770              BX        LR                    ; [DPU_3_PIPE]  ; [ORIG 16-BIT INS]
    1573                            ; BRANCH OCCURS                  ; [] 
    1574                            .dwattr $C$DW$84, DW_AT_TI_end_file("../ff.c")
    1575                            .dwattr $C$DW$84, DW_AT_TI_end_line(0x366)
    1576                            .dwattr $C$DW$84, DW_AT_TI_end_column(0x01)
    1577                            .dwendentry
    1578                            .dwendtag $C$DW$84
    1579                    
    1580 000002e8                   .sect   ".text"
    1581                            .clink
    1582                            .thumbfunc get_fat
    1583 000002e8                   .thumb
    1584                            .global get_fat
    1585                    
    1586                    $C$DW$90        .dwtag  DW_TAG_subprogram
    1587                            .dwattr $C$DW$90, DW_AT_name("get_fat")
    1588                            .dwattr $C$DW$90, DW_AT_low_pc(get_fat)
    1589                            .dwattr $C$DW$90, DW_AT_high_pc(0x00)
    1590                            .dwattr $C$DW$90, DW_AT_TI_symbol_name("get_fat")
    1591                            .dwattr $C$DW$90, DW_AT_external
    1592                            .dwattr $C$DW$90, DW_AT_type(*$C$DW$T$21)
    1593                            .dwattr $C$DW$90, DW_AT_TI_begin_file("../ff.c")
    1594                            .dwattr $C$DW$90, DW_AT_TI_begin_line(0x370)
    1595                            .dwattr $C$DW$90, DW_AT_TI_begin_column(0x07)
TI ARM Assembler PC v16.9.6 Sun Dec 02 13:28:41 2018

Tools Copyright (c) 1996-2017 Texas Instruments Incorporated
ff.asm                                                               PAGE   30

    1596                            .dwattr $C$DW$90, DW_AT_decl_file("../ff.c")
    1597                            .dwattr $C$DW$90, DW_AT_decl_line(0x370)
    1598                            .dwattr $C$DW$90, DW_AT_decl_column(0x07)
    1599                            .dwattr $C$DW$90, DW_AT_TI_max_frame_size(0x20)
    1600                            .dwpsn  file "../ff.c",line 884,column 1,is_stmt,address get_fat,isa 1
    1601                    
    1602                            .dwfde $C$DW$CIE, get_fat
    1603                    $C$DW$91        .dwtag  DW_TAG_formal_parameter
    1604                            .dwattr $C$DW$91, DW_AT_name("fs")
    1605                            .dwattr $C$DW$91, DW_AT_TI_symbol_name("fs")
    1606                            .dwattr $C$DW$91, DW_AT_type(*$C$DW$T$25)
    1607                            .dwattr $C$DW$91, DW_AT_location[DW_OP_reg0]
    1608                    
    1609                    $C$DW$92        .dwtag  DW_TAG_formal_parameter
    1610                            .dwattr $C$DW$92, DW_AT_name("clst")
    1611                            .dwattr $C$DW$92, DW_AT_TI_symbol_name("clst")
    1612                            .dwattr $C$DW$92, DW_AT_type(*$C$DW$T$21)
    1613                            .dwattr $C$DW$92, DW_AT_location[DW_OP_reg1]
    1614                    
    1615                    ;----------------------------------------------------------------------
    1616                    ; 880 | DWORD get_fat (  /* 0xFFFFFFFF:Disk error, 1:Internal error, 2..0x0FFFF
    1617                    ;     | FFF:Cluster status */                                                  
    1618                    ; 881 | FATFS* fs,  /* File system object */                                   
    1619                    ; 882 | DWORD clst  /* FAT item index (cluster#) to get the value */           
    1620                    ; 883 | )                                                                      
    1621                    ;----------------------------------------------------------------------
    1622                    
    1623                    ;*****************************************************************************
    1624                    ;* FUNCTION NAME: get_fat                                                    *
    1625                    ;*                                                                           *
    1626                    ;*   Regs Modified     : A1,A2,A3,A4,V9,SP,LR,SR,D0,D0_hi,D1,D1_hi,D2,D2_hi, *
    1627                    ;*                           D3,D3_hi,D4,D4_hi,D5,D5_hi,D6,D6_hi,D7,D7_hi,   *
    1628                    ;*                           FPEXC,FPSCR                                     *
    1629                    ;*   Regs Used         : A1,A2,A3,A4,V9,SP,LR,SR,D0,D0_hi,D1,D1_hi,D2,D2_hi, *
    1630                    ;*                           D3,D3_hi,D4,D4_hi,D5,D5_hi,D6,D6_hi,D7,D7_hi,   *
    1631                    ;*                           FPEXC,FPSCR                                     *
    1632                    ;*   Local Frame Size  : 0 Args + 24 Auto + 4 Save = 28 byte                 *
    1633                    ;*****************************************************************************
    1634 000002e8           get_fat:
    1635                    ;* --------------------------------------------------------------------------*
    1636                            .dwcfi  cfa_offset, 0
    1637 000002e8 B500              PUSH      {LR}                  ; [DPU_3_PIPE]  ; [ORIG 16-BIT INS]
    1638                            .dwcfi  cfa_offset, 4
    1639                            .dwcfi  save_reg_to_mem, 14, -4
    1640 000002ea 0D1CF1AD          SUB       SP, SP, #28           ; [DPU_3_PIPE]  ; [KEEP 32-BIT INS]
    1641                            .dwcfi  cfa_offset, 32
    1642                    $C$DW$93        .dwtag  DW_TAG_variable
    1643                            .dwattr $C$DW$93, DW_AT_name("fs")
    1644                            .dwattr $C$DW$93, DW_AT_TI_symbol_name("fs")
    1645                            .dwattr $C$DW$93, DW_AT_type(*$C$DW$T$25)
    1646                            .dwattr $C$DW$93, DW_AT_location[DW_OP_breg13 0]
    1647                    
    1648                    $C$DW$94        .dwtag  DW_TAG_variable
    1649                            .dwattr $C$DW$94, DW_AT_name("clst")
    1650                            .dwattr $C$DW$94, DW_AT_TI_symbol_name("clst")
TI ARM Assembler PC v16.9.6 Sun Dec 02 13:28:41 2018

Tools Copyright (c) 1996-2017 Texas Instruments Incorporated
ff.asm                                                               PAGE   31

    1651                            .dwattr $C$DW$94, DW_AT_type(*$C$DW$T$21)
    1652                            .dwattr $C$DW$94, DW_AT_location[DW_OP_breg13 4]
    1653                    
    1654                    $C$DW$95        .dwtag  DW_TAG_variable
    1655                            .dwattr $C$DW$95, DW_AT_name("wc")
    1656                            .dwattr $C$DW$95, DW_AT_TI_symbol_name("wc")
    1657                            .dwattr $C$DW$95, DW_AT_type(*$C$DW$T$35)
    1658                            .dwattr $C$DW$95, DW_AT_location[DW_OP_breg13 8]
    1659                    
    1660                    $C$DW$96        .dwtag  DW_TAG_variable
    1661                            .dwattr $C$DW$96, DW_AT_name("bc")
    1662                            .dwattr $C$DW$96, DW_AT_TI_symbol_name("bc")
    1663                            .dwattr $C$DW$96, DW_AT_type(*$C$DW$T$35)
    1664                            .dwattr $C$DW$96, DW_AT_location[DW_OP_breg13 12]
    1665                    
    1666                    $C$DW$97        .dwtag  DW_TAG_variable
    1667                            .dwattr $C$DW$97, DW_AT_name("p")
    1668                            .dwattr $C$DW$97, DW_AT_TI_symbol_name("p")
    1669                            .dwattr $C$DW$97, DW_AT_type(*$C$DW$T$26)
    1670                            .dwattr $C$DW$97, DW_AT_location[DW_OP_breg13 16]
    1671                    
    1672                    $C$DW$98        .dwtag  DW_TAG_variable
    1673                            .dwattr $C$DW$98, DW_AT_name("val")
    1674                            .dwattr $C$DW$98, DW_AT_TI_symbol_name("val")
    1675                            .dwattr $C$DW$98, DW_AT_type(*$C$DW$T$21)
    1676                            .dwattr $C$DW$98, DW_AT_location[DW_OP_breg13 20]
    1677                    
    1678                    ;----------------------------------------------------------------------
    1679                    ; 885 | UINT wc, bc;                                                           
    1680                    ; 886 | BYTE *p;                                                               
    1681                    ; 887 | DWORD val;                                                             
    1682                    ;----------------------------------------------------------------------
    1683 000002ee 9101              STR       A2, [SP, #4]          ; [DPU_3_PIPE] |884|  ; [ORIG 16-BIT INS]
    1684 000002f0 9000              STR       A1, [SP, #0]          ; [DPU_3_PIPE] |884|  ; [ORIG 16-BIT INS]
    1685                            .dwpsn  file "../ff.c",line 890,column 3,is_stmt,isa 1
    1686                    ;----------------------------------------------------------------------
    1687                    ; 890 | if (clst < 2 || clst >= fs->n_fatent) {  /* Check range */             
    1688                    ;----------------------------------------------------------------------
    1689 000002f2 9801              LDR       A1, [SP, #4]          ; [DPU_3_PIPE] |890|  ; [ORIG 16-BIT INS]
    1690 000002f4 2802              CMP       A1, #2                ; [DPU_3_PIPE] |890|  ; [ORIG 16-BIT INS]
    1691 000002f6 D304              BCC       ||$C$L19||            ; [DPU_3_PIPE] |890|  ; [ORIG 16-BIT INS]
    1692                            ; BRANCHCC OCCURS {||$C$L19||}   ; [] |890| 
    1693                    ;* --------------------------------------------------------------------------*
    1694 000002f8 9800              LDR       A1, [SP, #0]          ; [DPU_3_PIPE] |890|  ; [ORIG 16-BIT INS]
    1695 000002fa 9901              LDR       A2, [SP, #4]          ; [DPU_3_PIPE] |890|  ; [ORIG 16-BIT INS]
    1696 000002fc 6980              LDR       A1, [A1, #24]         ; [DPU_3_PIPE] |890|  ; [ORIG 16-BIT INS]
    1697 000002fe 4288              CMP       A1, A2                ; [DPU_3_PIPE] |890|  ; [ORIG 16-BIT INS]
    1698 00000300 D802              BHI       ||$C$L20||            ; [DPU_3_PIPE] |890|  ; [ORIG 16-BIT INS]
    1699                            ; BRANCHCC OCCURS {||$C$L20||}   ; [] |890| 
    1700                    ;* --------------------------------------------------------------------------*
    1701 00000302           ||$C$L19||:    
    1702                            .dwpsn  file "../ff.c",line 891,column 5,is_stmt,isa 1
    1703                    ;----------------------------------------------------------------------
    1704                    ; 891 | val = 1;  /* Internal error */                                         
    1705                    ;----------------------------------------------------------------------
TI ARM Assembler PC v16.9.6 Sun Dec 02 13:28:41 2018

Tools Copyright (c) 1996-2017 Texas Instruments Incorporated
ff.asm                                                               PAGE   32

    1706 00000302 2001              MOVS      A1, #1                ; [DPU_3_PIPE] |891|  ; [ORIG 16-BIT INS]
    1707 00000304 9005              STR       A1, [SP, #20]         ; [DPU_3_PIPE] |891|  ; [ORIG 16-BIT INS]
    1708                            .dwpsn  file "../ff.c",line 893,column 3,is_stmt,isa 1
    1709                    ;----------------------------------------------------------------------
    1710                    ; 893 | } else {                                                               
    1711                    ;----------------------------------------------------------------------
    1712 00000306 E089              B         ||$C$L28||            ; [DPU_3_PIPE] |893|  ; [ORIG 16-BIT INS]
    1713                            ; BRANCH OCCURS {||$C$L28||}     ; [] |893| 
    1714                    ;* --------------------------------------------------------------------------*
    1715 00000308           ||$C$L20||:    
    1716                            .dwpsn  file "../ff.c",line 894,column 5,is_stmt,isa 1
    1717                    ;----------------------------------------------------------------------
    1718                    ; 894 | val = 0xFFFFFFFF;  /* Default value falls on disk error */             
    1719                    ;----------------------------------------------------------------------
    1720 00000308 30FFF04F          MOV       A1, #-1               ; [DPU_3_PIPE] |894|  ; [KEEP 32-BIT INS]
    1721 0000030c 9005              STR       A1, [SP, #20]         ; [DPU_3_PIPE] |894|  ; [ORIG 16-BIT INS]
    1722                            .dwpsn  file "../ff.c",line 896,column 5,is_stmt,isa 1
    1723                    ;----------------------------------------------------------------------
    1724                    ; 896 | switch (fs->fs_type) {                                                 
    1725                    ; 897 | case FS_FAT12 :                                                        
    1726                    ;----------------------------------------------------------------------
    1727 0000030e E07B              B         ||$C$L27||            ; [DPU_3_PIPE] |896|  ; [ORIG 16-BIT INS]
    1728                            ; BRANCH OCCURS {||$C$L27||}     ; [] |896| 
    1729                    ;* --------------------------------------------------------------------------*
    1730 00000310           ||$C$L21||:    
    1731                            .dwpsn  file "../ff.c",line 898,column 7,is_stmt,isa 1
    1732                    ;----------------------------------------------------------------------
    1733                    ; 898 | bc = (UINT)clst; bc += bc / 2;                                         
    1734                    ;----------------------------------------------------------------------
    1735 00000310 9801              LDR       A1, [SP, #4]          ; [DPU_3_PIPE] |898|  ; [ORIG 16-BIT INS]
    1736 00000312 9003              STR       A1, [SP, #12]         ; [DPU_3_PIPE] |898|  ; [ORIG 16-BIT INS]
    1737                            .dwpsn  file "../ff.c",line 898,column 24,is_stmt,isa 1
    1738 00000314 9903              LDR       A2, [SP, #12]         ; [DPU_3_PIPE] |898|  ; [ORIG 16-BIT INS]
    1739 00000316 9803              LDR       A1, [SP, #12]         ; [DPU_3_PIPE] |898|  ; [ORIG 16-BIT INS]
    1740 00000318 0051EB00          ADD       A1, A1, A2, LSR #1    ; [DPU_3_PIPE] |898|  ; [KEEP 32-BIT INS]
    1741 0000031c 9003              STR       A1, [SP, #12]         ; [DPU_3_PIPE] |898|  ; [ORIG 16-BIT INS]
    1742                            .dwpsn  file "../ff.c",line 899,column 7,is_stmt,isa 1
    1743                    ;----------------------------------------------------------------------
    1744                    ; 899 | if (move_window(fs, fs->fatbase + (bc / SS(fs))) != FR_OK) break;      
    1745                    ;----------------------------------------------------------------------
    1746 0000031e 9800              LDR       A1, [SP, #0]          ; [DPU_3_PIPE] |899|  ; [ORIG 16-BIT INS]
    1747 00000320 9A03              LDR       A3, [SP, #12]         ; [DPU_3_PIPE] |899|  ; [ORIG 16-BIT INS]
    1748 00000322 6A41              LDR       A2, [A1, #36]         ; [DPU_3_PIPE] |899|  ; [ORIG 16-BIT INS]
    1749 00000324 9800              LDR       A1, [SP, #0]          ; [DPU_3_PIPE] |899|  ; [ORIG 16-BIT INS]
    1750 00000326 2152EB01          ADD       A2, A2, A3, LSR #9    ; [DPU_3_PIPE] |899|  ; [KEEP 32-BIT INS]
    1751                    $C$DW$99        .dwtag  DW_TAG_TI_branch
    1752                            .dwattr $C$DW$99, DW_AT_low_pc(0x00)
    1753                            .dwattr $C$DW$99, DW_AT_name("move_window")
    1754                            .dwattr $C$DW$99, DW_AT_TI_call
    1755                    
    1756 0000032a FFFEF7FF!         BL        move_window           ; [DPU_3_PIPE] |899|  ; [KEEP 32-BIT INS]
    1757                            ; CALL OCCURS {move_window }     ; [] |899| 
    1758 0000032e 2800              CMP       A1, #0                ; [DPU_3_PIPE] |899|  ; [ORIG 16-BIT INS]
    1759 00000330 D174              BNE       ||$C$L28||            ; [DPU_3_PIPE] |899|  ; [ORIG 16-BIT INS]
    1760                            ; BRANCHCC OCCURS {||$C$L28||}   ; [] |899| 
TI ARM Assembler PC v16.9.6 Sun Dec 02 13:28:41 2018

Tools Copyright (c) 1996-2017 Texas Instruments Incorporated
ff.asm                                                               PAGE   33

    1761                    ;* --------------------------------------------------------------------------*
    1762                            .dwpsn  file "../ff.c",line 899,column 66,is_stmt,isa 1
    1763                            .dwpsn  file "../ff.c",line 900,column 7,is_stmt,isa 1
    1764                    ;----------------------------------------------------------------------
    1765                    ; 900 | wc = fs->win[bc++ % SS(fs)];                                           
    1766                    ;----------------------------------------------------------------------
    1767 00000332 9903              LDR       A2, [SP, #12]         ; [DPU_3_PIPE] |900|  ; [ORIG 16-BIT INS]
    1768 00000334 9800              LDR       A1, [SP, #0]          ; [DPU_3_PIPE] |900|  ; [ORIG 16-BIT INS]
    1769 00000336 1C4A              ADDS      A3, A2, #1            ; [DPU_3_PIPE] |900|  ; [ORIG 16-BIT INS]
    1770 00000338 9203              STR       A3, [SP, #12]         ; [DPU_3_PIPE] |900|  ; [ORIG 16-BIT INS]
    1771 0000033a 0108F3C1          UBFX      A2, A2, #0, #9        ; [DPU_3_PIPE] |900|  ; [KEEP 32-BIT INS]
    1772 0000033e 1840              ADDS      A1, A1, A2            ; [DPU_3_PIPE] |900|  ; [ORIG 16-BIT INS]
    1773 00000340 0034F890          LDRB      A1, [A1, #52]         ; [DPU_3_PIPE] |900|  ; [KEEP 32-BIT INS]
    1774 00000344 9002              STR       A1, [SP, #8]          ; [DPU_3_PIPE] |900|  ; [ORIG 16-BIT INS]
    1775                            .dwpsn  file "../ff.c",line 901,column 7,is_stmt,isa 1
    1776                    ;----------------------------------------------------------------------
    1777                    ; 901 | if (move_window(fs, fs->fatbase + (bc / SS(fs))) != FR_OK) break;      
    1778                    ;----------------------------------------------------------------------
    1779 00000346 9800              LDR       A1, [SP, #0]          ; [DPU_3_PIPE] |901|  ; [ORIG 16-BIT INS]
    1780 00000348 9A03              LDR       A3, [SP, #12]         ; [DPU_3_PIPE] |901|  ; [ORIG 16-BIT INS]
    1781 0000034a 6A41              LDR       A2, [A1, #36]         ; [DPU_3_PIPE] |901|  ; [ORIG 16-BIT INS]
    1782 0000034c 9800              LDR       A1, [SP, #0]          ; [DPU_3_PIPE] |901|  ; [ORIG 16-BIT INS]
    1783 0000034e 2152EB01          ADD       A2, A2, A3, LSR #9    ; [DPU_3_PIPE] |901|  ; [KEEP 32-BIT INS]
    1784                    $C$DW$100       .dwtag  DW_TAG_TI_branch
    1785                            .dwattr $C$DW$100, DW_AT_low_pc(0x00)
    1786                            .dwattr $C$DW$100, DW_AT_name("move_window")
    1787                            .dwattr $C$DW$100, DW_AT_TI_call
    1788                    
    1789 00000352 FFFEF7FF!         BL        move_window           ; [DPU_3_PIPE] |901|  ; [KEEP 32-BIT INS]
    1790                            ; CALL OCCURS {move_window }     ; [] |901| 
    1791 00000356 2800              CMP       A1, #0                ; [DPU_3_PIPE] |901|  ; [ORIG 16-BIT INS]
    1792 00000358 D160              BNE       ||$C$L28||            ; [DPU_3_PIPE] |901|  ; [ORIG 16-BIT INS]
    1793                            ; BRANCHCC OCCURS {||$C$L28||}   ; [] |901| 
    1794                    ;* --------------------------------------------------------------------------*
    1795                            .dwpsn  file "../ff.c",line 901,column 66,is_stmt,isa 1
    1796                            .dwpsn  file "../ff.c",line 902,column 7,is_stmt,isa 1
    1797                    ;----------------------------------------------------------------------
    1798                    ; 902 | wc |= fs->win[bc % SS(fs)] << 8;                                       
    1799                    ;----------------------------------------------------------------------
    1800 0000035a 9903              LDR       A2, [SP, #12]         ; [DPU_3_PIPE] |902|  ; [ORIG 16-BIT INS]
    1801 0000035c 9800              LDR       A1, [SP, #0]          ; [DPU_3_PIPE] |902|  ; [ORIG 16-BIT INS]
    1802 0000035e 215FF36F          BFC       A2, #9, #23           ; [DPU_3_PIPE] |902|  ; [KEEP 32-BIT INS]
    1803 00000362 1840              ADDS      A1, A1, A2            ; [DPU_3_PIPE] |902|  ; [ORIG 16-BIT INS]
    1804 00000364 9902              LDR       A2, [SP, #8]          ; [DPU_3_PIPE] |902|  ; [ORIG 16-BIT INS]
    1805 00000366 0034F890          LDRB      A1, [A1, #52]         ; [DPU_3_PIPE] |902|  ; [KEEP 32-BIT INS]
    1806 0000036a 2100EA41          ORR       A2, A2, A1, LSL #8    ; [DPU_3_PIPE] |902|  ; [KEEP 32-BIT INS]
    1807 0000036e 9102              STR       A2, [SP, #8]          ; [DPU_3_PIPE] |902|  ; [ORIG 16-BIT INS]
    1808                            .dwpsn  file "../ff.c",line 903,column 7,is_stmt,isa 1
    1809                    ;----------------------------------------------------------------------
    1810                    ; 903 | val = clst & 1 ? wc >> 4 : (wc & 0xFFF);                               
    1811                    ;----------------------------------------------------------------------
    1812 00000370 9801              LDR       A1, [SP, #4]          ; [DPU_3_PIPE] |903|  ; [ORIG 16-BIT INS]
    1813 00000372 0840              LSRS      A1, A1, #1            ; [DPU_3_PIPE] |903|  ; [ORIG 16-BIT INS]
    1814 00000374 D302              BCC       ||$C$L22||            ; [DPU_3_PIPE] |903|  ; [ORIG 16-BIT INS]
    1815                            ; BRANCHCC OCCURS {||$C$L22||}   ; [] |903| 
TI ARM Assembler PC v16.9.6 Sun Dec 02 13:28:41 2018

Tools Copyright (c) 1996-2017 Texas Instruments Incorporated
ff.asm                                                               PAGE   34

    1816                    ;* --------------------------------------------------------------------------*
    1817 00000376 9802              LDR       A1, [SP, #8]          ; [DPU_3_PIPE] |903|  ; [ORIG 16-BIT INS]
    1818 00000378 0900              LSRS      A1, A1, #4            ; [DPU_3_PIPE] |903|  ; [ORIG 16-BIT INS]
    1819 0000037a E002              B         ||$C$L23||            ; [DPU_3_PIPE] |903|  ; [ORIG 16-BIT INS]
    1820                            ; BRANCH OCCURS {||$C$L23||}     ; [] |903| 
    1821                    ;* --------------------------------------------------------------------------*
    1822 0000037c           ||$C$L22||:    
    1823 0000037c 9802              LDR       A1, [SP, #8]          ; [DPU_3_PIPE] |903|  ; [ORIG 16-BIT INS]
    1824 0000037e 000BF3C0          UBFX      A1, A1, #0, #12       ; [DPU_3_PIPE] |903|  ; [KEEP 32-BIT INS]
    1825                    ;* --------------------------------------------------------------------------*
    1826 00000382           ||$C$L23||:    
    1827 00000382 9005              STR       A1, [SP, #20]         ; [DPU_3_PIPE] |903|  ; [ORIG 16-BIT INS]
    1828                            .dwpsn  file "../ff.c",line 904,column 7,is_stmt,isa 1
    1829                    ;----------------------------------------------------------------------
    1830                    ; 904 | break;                                                                 
    1831                    ; 906 | case FS_FAT16 :                                                        
    1832                    ;----------------------------------------------------------------------
    1833 00000384 E04A              B         ||$C$L28||            ; [DPU_3_PIPE] |904|  ; [ORIG 16-BIT INS]
    1834                            ; BRANCH OCCURS {||$C$L28||}     ; [] |904| 
    1835                    ;* --------------------------------------------------------------------------*
    1836 00000386           ||$C$L24||:    
    1837                            .dwpsn  file "../ff.c",line 907,column 7,is_stmt,isa 1
    1838                    ;----------------------------------------------------------------------
    1839                    ; 907 | if (move_window(fs, fs->fatbase + (clst / (SS(fs) / 2))) != FR_OK) brea
    1840                    ;     | k;                                                                     
    1841                    ;----------------------------------------------------------------------
    1842 00000386 9800              LDR       A1, [SP, #0]          ; [DPU_3_PIPE] |907|  ; [ORIG 16-BIT INS]
    1843 00000388 9A01              LDR       A3, [SP, #4]          ; [DPU_3_PIPE] |907|  ; [ORIG 16-BIT INS]
    1844 0000038a 6A41              LDR       A2, [A1, #36]         ; [DPU_3_PIPE] |907|  ; [ORIG 16-BIT INS]
    1845 0000038c 9800              LDR       A1, [SP, #0]          ; [DPU_3_PIPE] |907|  ; [ORIG 16-BIT INS]
    1846 0000038e 2112EB01          ADD       A2, A2, A3, LSR #8    ; [DPU_3_PIPE] |907|  ; [KEEP 32-BIT INS]
    1847                    $C$DW$101       .dwtag  DW_TAG_TI_branch
    1848                            .dwattr $C$DW$101, DW_AT_low_pc(0x00)
    1849                            .dwattr $C$DW$101, DW_AT_name("move_window")
    1850                            .dwattr $C$DW$101, DW_AT_TI_call
    1851                    
    1852 00000392 FFFEF7FF!         BL        move_window           ; [DPU_3_PIPE] |907|  ; [KEEP 32-BIT INS]
    1853                            ; CALL OCCURS {move_window }     ; [] |907| 
    1854 00000396 2800              CMP       A1, #0                ; [DPU_3_PIPE] |907|  ; [ORIG 16-BIT INS]
    1855 00000398 D140              BNE       ||$C$L28||            ; [DPU_3_PIPE] |907|  ; [ORIG 16-BIT INS]
    1856                            ; BRANCHCC OCCURS {||$C$L28||}   ; [] |907| 
    1857                    ;* --------------------------------------------------------------------------*
    1858                            .dwpsn  file "../ff.c",line 907,column 74,is_stmt,isa 1
    1859                            .dwpsn  file "../ff.c",line 908,column 7,is_stmt,isa 1
    1860                    ;----------------------------------------------------------------------
    1861                    ; 908 | p = &fs->win[clst * 2 % SS(fs)];                                       
    1862                    ;----------------------------------------------------------------------
    1863 0000039a 9901              LDR       A2, [SP, #4]          ; [DPU_3_PIPE] |908|  ; [ORIG 16-BIT INS]
    1864 0000039c 9800              LDR       A1, [SP, #0]          ; [DPU_3_PIPE] |908|  ; [ORIG 16-BIT INS]
    1865 0000039e 0049              LSLS      A2, A2, #1            ; [DPU_3_PIPE] |908|  ; [ORIG 16-BIT INS]
    1866 000003a0 215FF36F          BFC       A2, #9, #23           ; [DPU_3_PIPE] |908|  ; [KEEP 32-BIT INS]
    1867 000003a4 1840              ADDS      A1, A1, A2            ; [DPU_3_PIPE] |908|  ; [ORIG 16-BIT INS]
    1868 000003a6 3034              ADDS      A1, A1, #52           ; [DPU_3_PIPE] |908|  ; [ORIG 16-BIT INS]
    1869 000003a8 9004              STR       A1, [SP, #16]         ; [DPU_3_PIPE] |908|  ; [ORIG 16-BIT INS]
    1870                            .dwpsn  file "../ff.c",line 909,column 7,is_stmt,isa 1
TI ARM Assembler PC v16.9.6 Sun Dec 02 13:28:41 2018

Tools Copyright (c) 1996-2017 Texas Instruments Incorporated
ff.asm                                                               PAGE   35

    1871                    ;----------------------------------------------------------------------
    1872                    ; 909 | val = LD_WORD(p);                                                      
    1873                    ;----------------------------------------------------------------------
    1874 000003aa 9904              LDR       A2, [SP, #16]         ; [DPU_3_PIPE] |909|  ; [ORIG 16-BIT INS]
    1875 000003ac 9804              LDR       A1, [SP, #16]         ; [DPU_3_PIPE] |909|  ; [ORIG 16-BIT INS]
    1876 000003ae 7849              LDRB      A2, [A2, #1]          ; [DPU_3_PIPE] |909|  ; [ORIG 16-BIT INS]
    1877 000003b0 7800              LDRB      A1, [A1, #0]          ; [DPU_3_PIPE] |909|  ; [ORIG 16-BIT INS]
    1878 000003b2 2001EA40          ORR       A1, A1, A2, LSL #8    ; [DPU_3_PIPE] |909|  ; [KEEP 32-BIT INS]
    1879 000003b6 B280              UXTH      A1, A1                ; [DPU_3_PIPE] |909|  ; [ORIG 16-BIT INS]
    1880 000003b8 9005              STR       A1, [SP, #20]         ; [DPU_3_PIPE] |909|  ; [ORIG 16-BIT INS]
    1881                            .dwpsn  file "../ff.c",line 910,column 7,is_stmt,isa 1
    1882                    ;----------------------------------------------------------------------
    1883                    ; 910 | break;                                                                 
    1884                    ; 912 | case FS_FAT32 :                                                        
    1885                    ;----------------------------------------------------------------------
    1886 000003ba E02F              B         ||$C$L28||            ; [DPU_3_PIPE] |910|  ; [ORIG 16-BIT INS]
    1887                            ; BRANCH OCCURS {||$C$L28||}     ; [] |910| 
    1888                    ;* --------------------------------------------------------------------------*
    1889 000003bc           ||$C$L25||:    
    1890                            .dwpsn  file "../ff.c",line 913,column 7,is_stmt,isa 1
    1891                    ;----------------------------------------------------------------------
    1892                    ; 913 | if (move_window(fs, fs->fatbase + (clst / (SS(fs) / 4))) != FR_OK) brea
    1893                    ;     | k;                                                                     
    1894                    ;----------------------------------------------------------------------
    1895 000003bc 9800              LDR       A1, [SP, #0]          ; [DPU_3_PIPE] |913|  ; [ORIG 16-BIT INS]
    1896 000003be 9A01              LDR       A3, [SP, #4]          ; [DPU_3_PIPE] |913|  ; [ORIG 16-BIT INS]
    1897 000003c0 6A41              LDR       A2, [A1, #36]         ; [DPU_3_PIPE] |913|  ; [ORIG 16-BIT INS]
    1898 000003c2 9800              LDR       A1, [SP, #0]          ; [DPU_3_PIPE] |913|  ; [ORIG 16-BIT INS]
    1899 000003c4 11D2EB01          ADD       A2, A2, A3, LSR #7    ; [DPU_3_PIPE] |913|  ; [KEEP 32-BIT INS]
    1900                    $C$DW$102       .dwtag  DW_TAG_TI_branch
    1901                            .dwattr $C$DW$102, DW_AT_low_pc(0x00)
    1902                            .dwattr $C$DW$102, DW_AT_name("move_window")
    1903                            .dwattr $C$DW$102, DW_AT_TI_call
    1904                    
    1905 000003c8 FFFEF7FF!         BL        move_window           ; [DPU_3_PIPE] |913|  ; [KEEP 32-BIT INS]
    1906                            ; CALL OCCURS {move_window }     ; [] |913| 
    1907 000003cc BB30              CBNZ      A1, ||$C$L28||        ; []  ; [ORIG 16-BIT INS]
    1908                            ; BRANCHCC OCCURS {||$C$L28||}   ; [] |913| 
    1909                    ;* --------------------------------------------------------------------------*
    1910                            .dwpsn  file "../ff.c",line 913,column 74,is_stmt,isa 1
    1911                            .dwpsn  file "../ff.c",line 914,column 7,is_stmt,isa 1
    1912                    ;----------------------------------------------------------------------
    1913                    ; 914 | p = &fs->win[clst * 4 % SS(fs)];                                       
    1914                    ;----------------------------------------------------------------------
    1915 000003ce 9901              LDR       A2, [SP, #4]          ; [DPU_3_PIPE] |914|  ; [ORIG 16-BIT INS]
    1916 000003d0 9800              LDR       A1, [SP, #0]          ; [DPU_3_PIPE] |914|  ; [ORIG 16-BIT INS]
    1917 000003d2 0089              LSLS      A2, A2, #2            ; [DPU_3_PIPE] |914|  ; [ORIG 16-BIT INS]
    1918 000003d4 215FF36F          BFC       A2, #9, #23           ; [DPU_3_PIPE] |914|  ; [KEEP 32-BIT INS]
    1919 000003d8 1840              ADDS      A1, A1, A2            ; [DPU_3_PIPE] |914|  ; [ORIG 16-BIT INS]
    1920 000003da 3034              ADDS      A1, A1, #52           ; [DPU_3_PIPE] |914|  ; [ORIG 16-BIT INS]
    1921 000003dc 9004              STR       A1, [SP, #16]         ; [DPU_3_PIPE] |914|  ; [ORIG 16-BIT INS]
    1922                            .dwpsn  file "../ff.c",line 915,column 7,is_stmt,isa 1
    1923                    ;----------------------------------------------------------------------
    1924                    ; 915 | val = LD_DWORD(p) & 0x0FFFFFFF;                                        
    1925                    ;----------------------------------------------------------------------
TI ARM Assembler PC v16.9.6 Sun Dec 02 13:28:41 2018

Tools Copyright (c) 1996-2017 Texas Instruments Incorporated
ff.asm                                                               PAGE   36

    1926 000003de 9B04              LDR       A4, [SP, #16]         ; [DPU_3_PIPE] |915|  ; [ORIG 16-BIT INS]
    1927 000003e0 9A04              LDR       A3, [SP, #16]         ; [DPU_3_PIPE] |915|  ; [ORIG 16-BIT INS]
    1928 000003e2 9804              LDR       A1, [SP, #16]         ; [DPU_3_PIPE] |915|  ; [ORIG 16-BIT INS]
    1929 000003e4 9904              LDR       A2, [SP, #16]         ; [DPU_3_PIPE] |915|  ; [ORIG 16-BIT INS]
    1930 000003e6 789B              LDRB      A4, [A4, #2]          ; [DPU_3_PIPE] |915|  ; [ORIG 16-BIT INS]
    1931 000003e8 78C0              LDRB      A1, [A1, #3]          ; [DPU_3_PIPE] |915|  ; [ORIG 16-BIT INS]
    1932 000003ea 7852              LDRB      A3, [A3, #1]          ; [DPU_3_PIPE] |915|  ; [ORIG 16-BIT INS]
    1933 000003ec 7809              LDRB      A2, [A2, #0]          ; [DPU_3_PIPE] |915|  ; [ORIG 16-BIT INS]
    1934 000003ee 0600              LSLS      A1, A1, #24           ; [DPU_3_PIPE] |915|  ; [ORIG 16-BIT INS]
    1935 000003f0 4003EA40          ORR       A1, A1, A4, LSL #16   ; [DPU_3_PIPE] |915|  ; [KEEP 32-BIT INS]
    1936 000003f4 2002EA40          ORR       A1, A1, A3, LSL #8    ; [DPU_3_PIPE] |915|  ; [KEEP 32-BIT INS]
    1937 000003f8 4301              ORRS      A2, A2, A1            ; [DPU_3_PIPE] |915|  ; [ORIG 16-BIT INS]
    1938 000003fa 4170F021          BIC       A2, A2, #-268435456   ; [DPU_3_PIPE] |915|  ; [KEEP 32-BIT INS]
    1939 000003fe 9105              STR       A2, [SP, #20]         ; [DPU_3_PIPE] |915|  ; [ORIG 16-BIT INS]
    1940                            .dwpsn  file "../ff.c",line 916,column 7,is_stmt,isa 1
    1941                    ;----------------------------------------------------------------------
    1942                    ; 916 | break;                                                                 
    1943                    ; 918 | default:                                                               
    1944                    ;----------------------------------------------------------------------
    1945 00000400 E00C              B         ||$C$L28||            ; [DPU_3_PIPE] |916|  ; [ORIG 16-BIT INS]
    1946                            ; BRANCH OCCURS {||$C$L28||}     ; [] |916| 
    1947                    ;* --------------------------------------------------------------------------*
    1948 00000402           ||$C$L26||:    
    1949                            .dwpsn  file "../ff.c",line 919,column 7,is_stmt,isa 1
    1950                    ;----------------------------------------------------------------------
    1951                    ; 919 | val = 1;  /* Internal error */                                         
    1952                    ;----------------------------------------------------------------------
    1953 00000402 2001              MOVS      A1, #1                ; [DPU_3_PIPE] |919|  ; [ORIG 16-BIT INS]
    1954 00000404 9005              STR       A1, [SP, #20]         ; [DPU_3_PIPE] |919|  ; [ORIG 16-BIT INS]
    1955                            .dwpsn  file "../ff.c",line 920,column 5,is_stmt,isa 1
    1956 00000406 E009              B         ||$C$L28||            ; [DPU_3_PIPE] |920|  ; [ORIG 16-BIT INS]
    1957                            ; BRANCH OCCURS {||$C$L28||}     ; [] |920| 
    1958                    ;* --------------------------------------------------------------------------*
    1959 00000408           ||$C$L27||:    
    1960                            .dwpsn  file "../ff.c",line 896,column 5,is_stmt,isa 1
    1961 00000408 9800              LDR       A1, [SP, #0]          ; [DPU_3_PIPE] |896|  ; [ORIG 16-BIT INS]
    1962 0000040a 7800              LDRB      A1, [A1, #0]          ; [DPU_3_PIPE] |896|  ; [ORIG 16-BIT INS]
    1963 0000040c 1E40              SUBS      A1, A1, #1            ; [DPU_3_PIPE] |896|  ; [ORIG 16-BIT INS]
    1964 0000040e AFFEF43F!         BEQ       ||$C$L21||            ; [DPU_3_PIPE] |896|  ; [KEEP 32-BIT INS]
    1965                            ; BRANCHCC OCCURS {||$C$L21||}   ; [] |896| 
    1966                    ;* --------------------------------------------------------------------------*
    1967 00000412 1E40              SUBS      A1, A1, #1            ; [DPU_3_PIPE] |896|  ; [ORIG 16-BIT INS]
    1968 00000414 D0B7              BEQ       ||$C$L24||            ; [DPU_3_PIPE] |896|  ; [ORIG 16-BIT INS]
    1969                            ; BRANCHCC OCCURS {||$C$L24||}   ; [] |896| 
    1970                    ;* --------------------------------------------------------------------------*
    1971 00000416 1E40              SUBS      A1, A1, #1            ; [DPU_3_PIPE] |896|  ; [ORIG 16-BIT INS]
    1972 00000418 D0D0              BEQ       ||$C$L25||            ; [DPU_3_PIPE] |896|  ; [ORIG 16-BIT INS]
    1973                            ; BRANCHCC OCCURS {||$C$L25||}   ; [] |896| 
    1974                    ;* --------------------------------------------------------------------------*
    1975 0000041a E7F2              B         ||$C$L26||            ; [DPU_3_PIPE] |896|  ; [ORIG 16-BIT INS]
    1976                            ; BRANCH OCCURS {||$C$L26||}     ; [] |896| 
    1977                    ;* --------------------------------------------------------------------------*
    1978 0000041c           ||$C$L28||:    
    1979                            .dwpsn  file "../ff.c",line 923,column 3,is_stmt,isa 1
    1980                    ;----------------------------------------------------------------------
TI ARM Assembler PC v16.9.6 Sun Dec 02 13:28:41 2018

Tools Copyright (c) 1996-2017 Texas Instruments Incorporated
ff.asm                                                               PAGE   37

    1981                    ; 923 | return val;                                                            
    1982                    ;----------------------------------------------------------------------
    1983 0000041c 9805              LDR       A1, [SP, #20]         ; [DPU_3_PIPE] |923|  ; [ORIG 16-BIT INS]
    1984                            .dwpsn  file "../ff.c",line 924,column 1,is_stmt,isa 1
    1985 0000041e B007              ADD       SP, SP, #28           ; [DPU_3_PIPE]  ; [ORIG 16-BIT INS]
    1986                            .dwcfi  cfa_offset, 4
    1987                    $C$DW$103       .dwtag  DW_TAG_TI_branch
    1988                            .dwattr $C$DW$103, DW_AT_low_pc(0x00)
    1989                            .dwattr $C$DW$103, DW_AT_TI_return
    1990                    
    1991 00000420 BD00              POP       {PC}                  ; [DPU_3_PIPE]  ; [ORIG 16-BIT INS]
    1992                            .dwcfi  cfa_offset, 0
    1993                            ; BRANCH OCCURS                  ; [] 
    1994                            .dwattr $C$DW$90, DW_AT_TI_end_file("../ff.c")
    1995                            .dwattr $C$DW$90, DW_AT_TI_end_line(0x39c)
    1996                            .dwattr $C$DW$90, DW_AT_TI_end_column(0x01)
    1997                            .dwendentry
    1998                            .dwendtag $C$DW$90
    1999                    
    2000 00000422                   .sect   ".text"
    2001                            .clink
    2002                            .thumbfunc put_fat
    2003 00000422                   .thumb
    2004                            .global put_fat
    2005                    
    2006                    $C$DW$104       .dwtag  DW_TAG_subprogram
    2007                            .dwattr $C$DW$104, DW_AT_name("put_fat")
    2008                            .dwattr $C$DW$104, DW_AT_low_pc(put_fat)
    2009                            .dwattr $C$DW$104, DW_AT_high_pc(0x00)
    2010                            .dwattr $C$DW$104, DW_AT_TI_symbol_name("put_fat")
    2011                            .dwattr $C$DW$104, DW_AT_external
    2012                            .dwattr $C$DW$104, DW_AT_type(*$C$DW$T$45)
    2013                            .dwattr $C$DW$104, DW_AT_TI_begin_file("../ff.c")
    2014                            .dwattr $C$DW$104, DW_AT_TI_begin_line(0x3a7)
    2015                            .dwattr $C$DW$104, DW_AT_TI_begin_column(0x09)
    2016                            .dwattr $C$DW$104, DW_AT_decl_file("../ff.c")
    2017                            .dwattr $C$DW$104, DW_AT_decl_line(0x3a7)
    2018                            .dwattr $C$DW$104, DW_AT_decl_column(0x09)
    2019                            .dwattr $C$DW$104, DW_AT_TI_max_frame_size(0x20)
    2020                            .dwpsn  file "../ff.c",line 940,column 1,is_stmt,address put_fat,isa 1
    2021                    
    2022                            .dwfde $C$DW$CIE, put_fat
    2023                    $C$DW$105       .dwtag  DW_TAG_formal_parameter
    2024                            .dwattr $C$DW$105, DW_AT_name("fs")
    2025                            .dwattr $C$DW$105, DW_AT_TI_symbol_name("fs")
    2026                            .dwattr $C$DW$105, DW_AT_type(*$C$DW$T$25)
    2027                            .dwattr $C$DW$105, DW_AT_location[DW_OP_reg0]
    2028                    
    2029                    $C$DW$106       .dwtag  DW_TAG_formal_parameter
    2030                            .dwattr $C$DW$106, DW_AT_name("clst")
    2031                            .dwattr $C$DW$106, DW_AT_TI_symbol_name("clst")
    2032                            .dwattr $C$DW$106, DW_AT_type(*$C$DW$T$21)
    2033                            .dwattr $C$DW$106, DW_AT_location[DW_OP_reg1]
    2034                    
    2035                    $C$DW$107       .dwtag  DW_TAG_formal_parameter
TI ARM Assembler PC v16.9.6 Sun Dec 02 13:28:41 2018

Tools Copyright (c) 1996-2017 Texas Instruments Incorporated
ff.asm                                                               PAGE   38

    2036                            .dwattr $C$DW$107, DW_AT_name("val")
    2037                            .dwattr $C$DW$107, DW_AT_TI_symbol_name("val")
    2038                            .dwattr $C$DW$107, DW_AT_type(*$C$DW$T$21)
    2039                            .dwattr $C$DW$107, DW_AT_location[DW_OP_reg2]
    2040                    
    2041                    ;----------------------------------------------------------------------
    2042                    ; 935 | FRESULT put_fat (                                                      
    2043                    ; 936 | FATFS* fs,  /* File system object */                                   
    2044                    ; 937 | DWORD clst,  /* FAT item index (cluster#) to be set */                 
    2045                    ; 938 | DWORD val  /* New value to mark the cluster */                         
    2046                    ; 939 | )                                                                      
    2047                    ;----------------------------------------------------------------------
    2048                    
    2049                    ;*****************************************************************************
    2050                    ;* FUNCTION NAME: put_fat                                                    *
    2051                    ;*                                                                           *
    2052                    ;*   Regs Modified     : A1,A2,A3,A4,V1,V9,SP,LR,SR,D0,D0_hi,D1,D1_hi,D2,    *
    2053                    ;*                           D2_hi,D3,D3_hi,D4,D4_hi,D5,D5_hi,D6,D6_hi,D7,   *
    2054                    ;*                           D7_hi,FPEXC,FPSCR                               *
    2055                    ;*   Regs Used         : A1,A2,A3,A4,V1,V9,SP,LR,SR,D0,D0_hi,D1,D1_hi,D2,    *
    2056                    ;*                           D2_hi,D3,D3_hi,D4,D4_hi,D5,D5_hi,D6,D6_hi,D7,   *
    2057                    ;*                           D7_hi,FPEXC,FPSCR                               *
    2058                    ;*   Local Frame Size  : 0 Args + 24 Auto + 8 Save = 32 byte                 *
    2059                    ;*****************************************************************************
    2060 00000422           put_fat:
    2061                    ;* --------------------------------------------------------------------------*
    2062                            .dwcfi  cfa_offset, 0
    2063 00000422 B510              PUSH      {V1, LR}              ; [DPU_3_PIPE]  ; [ORIG 16-BIT INS]
    2064                            .dwcfi  cfa_offset, 8
    2065                            .dwcfi  save_reg_to_mem, 14, -4
    2066                            .dwcfi  save_reg_to_mem, 4, -8
    2067 00000424 0D18F1AD          SUB       SP, SP, #24           ; [DPU_3_PIPE]  ; [KEEP 32-BIT INS]
    2068                            .dwcfi  cfa_offset, 32
    2069                    $C$DW$108       .dwtag  DW_TAG_variable
    2070                            .dwattr $C$DW$108, DW_AT_name("fs")
    2071                            .dwattr $C$DW$108, DW_AT_TI_symbol_name("fs")
    2072                            .dwattr $C$DW$108, DW_AT_type(*$C$DW$T$25)
    2073                            .dwattr $C$DW$108, DW_AT_location[DW_OP_breg13 0]
    2074                    
    2075                    $C$DW$109       .dwtag  DW_TAG_variable
    2076                            .dwattr $C$DW$109, DW_AT_name("clst")
    2077                            .dwattr $C$DW$109, DW_AT_TI_symbol_name("clst")
    2078                            .dwattr $C$DW$109, DW_AT_type(*$C$DW$T$21)
    2079                            .dwattr $C$DW$109, DW_AT_location[DW_OP_breg13 4]
    2080                    
    2081                    $C$DW$110       .dwtag  DW_TAG_variable
    2082                            .dwattr $C$DW$110, DW_AT_name("val")
    2083                            .dwattr $C$DW$110, DW_AT_TI_symbol_name("val")
    2084                            .dwattr $C$DW$110, DW_AT_type(*$C$DW$T$21)
    2085                            .dwattr $C$DW$110, DW_AT_location[DW_OP_breg13 8]
    2086                    
    2087                    $C$DW$111       .dwtag  DW_TAG_variable
    2088                            .dwattr $C$DW$111, DW_AT_name("bc")
    2089                            .dwattr $C$DW$111, DW_AT_TI_symbol_name("bc")
    2090                            .dwattr $C$DW$111, DW_AT_type(*$C$DW$T$35)
TI ARM Assembler PC v16.9.6 Sun Dec 02 13:28:41 2018

Tools Copyright (c) 1996-2017 Texas Instruments Incorporated
ff.asm                                                               PAGE   39

    2091                            .dwattr $C$DW$111, DW_AT_location[DW_OP_breg13 12]
    2092                    
    2093                    $C$DW$112       .dwtag  DW_TAG_variable
    2094                            .dwattr $C$DW$112, DW_AT_name("p")
    2095                            .dwattr $C$DW$112, DW_AT_TI_symbol_name("p")
    2096                            .dwattr $C$DW$112, DW_AT_type(*$C$DW$T$26)
    2097                            .dwattr $C$DW$112, DW_AT_location[DW_OP_breg13 16]
    2098                    
    2099                    $C$DW$113       .dwtag  DW_TAG_variable
    2100                            .dwattr $C$DW$113, DW_AT_name("res")
    2101                            .dwattr $C$DW$113, DW_AT_TI_symbol_name("res")
    2102                            .dwattr $C$DW$113, DW_AT_type(*$C$DW$T$45)
    2103                            .dwattr $C$DW$113, DW_AT_location[DW_OP_breg13 20]
    2104                    
    2105                    ;----------------------------------------------------------------------
    2106                    ; 941 | UINT bc;                                                               
    2107                    ; 942 | BYTE *p;                                                               
    2108                    ; 943 | FRESULT res;                                                           
    2109                    ;----------------------------------------------------------------------
    2110 00000428 9202              STR       A3, [SP, #8]          ; [DPU_3_PIPE] |940|  ; [ORIG 16-BIT INS]
    2111 0000042a 9101              STR       A2, [SP, #4]          ; [DPU_3_PIPE] |940|  ; [ORIG 16-BIT INS]
    2112 0000042c 9000              STR       A1, [SP, #0]          ; [DPU_3_PIPE] |940|  ; [ORIG 16-BIT INS]
    2113                            .dwpsn  file "../ff.c",line 946,column 3,is_stmt,isa 1
    2114                    ;----------------------------------------------------------------------
    2115                    ; 946 | if (clst < 2 || clst >= fs->n_fatent) {  /* Check range */             
    2116                    ;----------------------------------------------------------------------
    2117 0000042e 9801              LDR       A1, [SP, #4]          ; [DPU_3_PIPE] |946|  ; [ORIG 16-BIT INS]
    2118 00000430 2802              CMP       A1, #2                ; [DPU_3_PIPE] |946|  ; [ORIG 16-BIT INS]
    2119 00000432 D305              BCC       ||$C$L29||            ; [DPU_3_PIPE] |946|  ; [ORIG 16-BIT INS]
    2120                            ; BRANCHCC OCCURS {||$C$L29||}   ; [] |946| 
    2121                    ;* --------------------------------------------------------------------------*
    2122 00000434 9800              LDR       A1, [SP, #0]          ; [DPU_3_PIPE] |946|  ; [ORIG 16-BIT INS]
    2123 00000436 9901              LDR       A2, [SP, #4]          ; [DPU_3_PIPE] |946|  ; [ORIG 16-BIT INS]
    2124 00000438 6980              LDR       A1, [A1, #24]         ; [DPU_3_PIPE] |946|  ; [ORIG 16-BIT INS]
    2125 0000043a 4288              CMP       A1, A2                ; [DPU_3_PIPE] |946|  ; [ORIG 16-BIT INS]
    2126 0000043c AFFEF63F!         BHI       ||$C$L38||            ; [DPU_3_PIPE] |946|  ; [KEEP 32-BIT INS]
    2127                            ; BRANCHCC OCCURS {||$C$L38||}   ; [] |946| 
    2128                    ;* --------------------------------------------------------------------------*
    2129 00000440           ||$C$L29||:    
    2130                            .dwpsn  file "../ff.c",line 947,column 5,is_stmt,isa 1
    2131                    ;----------------------------------------------------------------------
    2132                    ; 947 | res = FR_INT_ERR;                                                      
    2133                    ;----------------------------------------------------------------------
    2134 00000440 2002              MOVS      A1, #2                ; [DPU_3_PIPE] |947|  ; [ORIG 16-BIT INS]
    2135 00000442 0014F88D          STRB      A1, [SP, #20]         ; [DPU_3_PIPE] |947|  ; [KEEP 32-BIT INS]
    2136                            .dwpsn  file "../ff.c",line 949,column 3,is_stmt,isa 1
    2137                    ;----------------------------------------------------------------------
    2138                    ; 949 | } else {                                                               
    2139                    ; 950 |   switch (fs->fs_type) {                                               
    2140                    ; 951 |   case FS_FAT12 :                                                      
    2141                    ;----------------------------------------------------------------------
    2142 00000446 E0CC              B         ||$C$L39||            ; [DPU_3_PIPE] |949|  ; [ORIG 16-BIT INS]
    2143                            ; BRANCH OCCURS {||$C$L39||}     ; [] |949| 
    2144                    ;* --------------------------------------------------------------------------*
    2145                    ;* --------------------------------------------------------------------------*
TI ARM Assembler PC v16.9.6 Sun Dec 02 13:28:41 2018

Tools Copyright (c) 1996-2017 Texas Instruments Incorporated
ff.asm                                                               PAGE   40

    2146 00000448           ||$C$L30||:    
    2147                            .dwpsn  file "../ff.c",line 952,column 7,is_stmt,isa 1
    2148                    ;----------------------------------------------------------------------
    2149                    ; 952 | bc = (UINT)clst; bc += bc / 2;                                         
    2150                    ;----------------------------------------------------------------------
    2151 00000448 9801              LDR       A1, [SP, #4]          ; [DPU_3_PIPE] |952|  ; [ORIG 16-BIT INS]
    2152 0000044a 9003              STR       A1, [SP, #12]         ; [DPU_3_PIPE] |952|  ; [ORIG 16-BIT INS]
    2153                            .dwpsn  file "../ff.c",line 952,column 24,is_stmt,isa 1
    2154 0000044c 9903              LDR       A2, [SP, #12]         ; [DPU_3_PIPE] |952|  ; [ORIG 16-BIT INS]
    2155 0000044e 9803              LDR       A1, [SP, #12]         ; [DPU_3_PIPE] |952|  ; [ORIG 16-BIT INS]
    2156 00000450 0051EB00          ADD       A1, A1, A2, LSR #1    ; [DPU_3_PIPE] |952|  ; [KEEP 32-BIT INS]
    2157 00000454 9003              STR       A1, [SP, #12]         ; [DPU_3_PIPE] |952|  ; [ORIG 16-BIT INS]
    2158                            .dwpsn  file "../ff.c",line 953,column 7,is_stmt,isa 1
    2159                    ;----------------------------------------------------------------------
    2160                    ; 953 | res = move_window(fs, fs->fatbase + (bc / SS(fs)));                    
    2161                    ;----------------------------------------------------------------------
    2162 00000456 9800              LDR       A1, [SP, #0]          ; [DPU_3_PIPE] |953|  ; [ORIG 16-BIT INS]
    2163 00000458 9A03              LDR       A3, [SP, #12]         ; [DPU_3_PIPE] |953|  ; [ORIG 16-BIT INS]
    2164 0000045a 6A41              LDR       A2, [A1, #36]         ; [DPU_3_PIPE] |953|  ; [ORIG 16-BIT INS]
    2165 0000045c 9800              LDR       A1, [SP, #0]          ; [DPU_3_PIPE] |953|  ; [ORIG 16-BIT INS]
    2166 0000045e 2152EB01          ADD       A2, A2, A3, LSR #9    ; [DPU_3_PIPE] |953|  ; [KEEP 32-BIT INS]
    2167                    $C$DW$114       .dwtag  DW_TAG_TI_branch
    2168                            .dwattr $C$DW$114, DW_AT_low_pc(0x00)
    2169                            .dwattr $C$DW$114, DW_AT_name("move_window")
    2170                            .dwattr $C$DW$114, DW_AT_TI_call
    2171                    
    2172 00000462 FFFEF7FF!         BL        move_window           ; [DPU_3_PIPE] |953|  ; [KEEP 32-BIT INS]
    2173                            ; CALL OCCURS {move_window }     ; [] |953| 
    2174 00000466 0014F88D          STRB      A1, [SP, #20]         ; [DPU_3_PIPE] |953|  ; [KEEP 32-BIT INS]
    2175                            .dwpsn  file "../ff.c",line 954,column 7,is_stmt,isa 1
    2176                    ;----------------------------------------------------------------------
    2177                    ; 954 | if (res != FR_OK) break;                                               
    2178                    ;----------------------------------------------------------------------
    2179 0000046a 0014F89D          LDRB      A1, [SP, #20]         ; [DPU_3_PIPE] |954|  ; [KEEP 32-BIT INS]
    2180 0000046e 2800              CMP       A1, #0                ; [DPU_3_PIPE] |954|  ; [ORIG 16-BIT INS]
    2181 00000470 AFFEF47F!         BNE       ||$C$L39||            ; [DPU_3_PIPE] |954|  ; [KEEP 32-BIT INS]
    2182                            ; BRANCHCC OCCURS {||$C$L39||}   ; [] |954| 
    2183                    ;* --------------------------------------------------------------------------*
    2184                            .dwpsn  file "../ff.c",line 954,column 25,is_stmt,isa 1
    2185                            .dwpsn  file "../ff.c",line 955,column 7,is_stmt,isa 1
    2186                    ;----------------------------------------------------------------------
    2187                    ; 955 | p = &fs->win[bc++ % SS(fs)];                                           
    2188                    ;----------------------------------------------------------------------
    2189 00000474 9803              LDR       A1, [SP, #12]         ; [DPU_3_PIPE] |955|  ; [ORIG 16-BIT INS]
    2190 00000476 9900              LDR       A2, [SP, #0]          ; [DPU_3_PIPE] |955|  ; [ORIG 16-BIT INS]
    2191 00000478 0208F3C0          UBFX      A3, A1, #0, #9        ; [DPU_3_PIPE] |955|  ; [KEEP 32-BIT INS]
    2192 0000047c 1C40              ADDS      A1, A1, #1            ; [DPU_3_PIPE] |955|  ; [ORIG 16-BIT INS]
    2193 0000047e 1889              ADDS      A2, A2, A3            ; [DPU_3_PIPE] |955|  ; [ORIG 16-BIT INS]
    2194 00000480 9003              STR       A1, [SP, #12]         ; [DPU_3_PIPE] |955|  ; [ORIG 16-BIT INS]
    2195 00000482 3134              ADDS      A2, A2, #52           ; [DPU_3_PIPE] |955|  ; [ORIG 16-BIT INS]
    2196 00000484 9104              STR       A2, [SP, #16]         ; [DPU_3_PIPE] |955|  ; [ORIG 16-BIT INS]
    2197                            .dwpsn  file "../ff.c",line 956,column 7,is_stmt,isa 1
    2198                    ;----------------------------------------------------------------------
    2199                    ; 956 | *p = (clst & 1) ? ((*p & 0x0F) | ((BYTE)val << 4)) : (BYTE)val;        
    2200                    ;----------------------------------------------------------------------
TI ARM Assembler PC v16.9.6 Sun Dec 02 13:28:41 2018

Tools Copyright (c) 1996-2017 Texas Instruments Incorporated
ff.asm                                                               PAGE   41

    2201 00000486 9801              LDR       A1, [SP, #4]          ; [DPU_3_PIPE] |956|  ; [ORIG 16-BIT INS]
    2202 00000488 0840              LSRS      A1, A1, #1            ; [DPU_3_PIPE] |956|  ; [ORIG 16-BIT INS]
    2203 0000048a D308              BCC       ||$C$L31||            ; [DPU_3_PIPE] |956|  ; [ORIG 16-BIT INS]
    2204                            ; BRANCHCC OCCURS {||$C$L31||}   ; [] |956| 
    2205                    ;* --------------------------------------------------------------------------*
    2206 0000048c 9804              LDR       A1, [SP, #16]         ; [DPU_3_PIPE] |956|  ; [ORIG 16-BIT INS]
    2207 0000048e 1008F89D          LDRB      A2, [SP, #8]          ; [DPU_3_PIPE] |956|  ; [KEEP 32-BIT INS]
    2208 00000492 7800              LDRB      A1, [A1, #0]          ; [DPU_3_PIPE] |956|  ; [ORIG 16-BIT INS]
    2209 00000494 000FF000          AND       A1, A1, #15           ; [DPU_3_PIPE] |956|  ; [KEEP 32-BIT INS]
    2210 00000498 1001EA40          ORR       A1, A1, A2, LSL #4    ; [DPU_3_PIPE] |956|  ; [KEEP 32-BIT INS]
    2211 0000049c E001              B         ||$C$L32||            ; [DPU_3_PIPE] |956|  ; [ORIG 16-BIT INS]
    2212                            ; BRANCH OCCURS {||$C$L32||}     ; [] |956| 
    2213                    ;* --------------------------------------------------------------------------*
    2214 0000049e           ||$C$L31||:    
    2215 0000049e 0008F89D          LDRB      A1, [SP, #8]          ; [DPU_3_PIPE] |956|  ; [KEEP 32-BIT INS]
    2216                    ;* --------------------------------------------------------------------------*
    2217 000004a2           ||$C$L32||:    
    2218 000004a2 9904              LDR       A2, [SP, #16]         ; [DPU_3_PIPE] |956|  ; [ORIG 16-BIT INS]
    2219 000004a4 7008              STRB      A1, [A2, #0]          ; [DPU_3_PIPE] |956|  ; [ORIG 16-BIT INS]
    2220                            .dwpsn  file "../ff.c",line 957,column 7,is_stmt,isa 1
    2221                    ;----------------------------------------------------------------------
    2222                    ; 957 | fs->wflag = 1;                                                         
    2223                    ;----------------------------------------------------------------------
    2224 000004a6 9800              LDR       A1, [SP, #0]          ; [DPU_3_PIPE] |957|  ; [ORIG 16-BIT INS]
    2225 000004a8 2101              MOVS      A2, #1                ; [DPU_3_PIPE] |957|  ; [ORIG 16-BIT INS]
    2226 000004aa 7101              STRB      A2, [A1, #4]          ; [DPU_3_PIPE] |957|  ; [ORIG 16-BIT INS]
    2227                            .dwpsn  file "../ff.c",line 958,column 7,is_stmt,isa 1
    2228                    ;----------------------------------------------------------------------
    2229                    ; 958 | res = move_window(fs, fs->fatbase + (bc / SS(fs)));                    
    2230                    ;----------------------------------------------------------------------
    2231 000004ac 9800              LDR       A1, [SP, #0]          ; [DPU_3_PIPE] |958|  ; [ORIG 16-BIT INS]
    2232 000004ae 9A03              LDR       A3, [SP, #12]         ; [DPU_3_PIPE] |958|  ; [ORIG 16-BIT INS]
    2233 000004b0 6A41              LDR       A2, [A1, #36]         ; [DPU_3_PIPE] |958|  ; [ORIG 16-BIT INS]
    2234 000004b2 9800              LDR       A1, [SP, #0]          ; [DPU_3_PIPE] |958|  ; [ORIG 16-BIT INS]
    2235 000004b4 2152EB01          ADD       A2, A2, A3, LSR #9    ; [DPU_3_PIPE] |958|  ; [KEEP 32-BIT INS]
    2236                    $C$DW$115       .dwtag  DW_TAG_TI_branch
    2237                            .dwattr $C$DW$115, DW_AT_low_pc(0x00)
    2238                            .dwattr $C$DW$115, DW_AT_name("move_window")
    2239                            .dwattr $C$DW$115, DW_AT_TI_call
    2240                    
    2241 000004b8 FFFEF7FF!         BL        move_window           ; [DPU_3_PIPE] |958|  ; [KEEP 32-BIT INS]
    2242                            ; CALL OCCURS {move_window }     ; [] |958| 
    2243 000004bc 0014F88D          STRB      A1, [SP, #20]         ; [DPU_3_PIPE] |958|  ; [KEEP 32-BIT INS]
    2244                            .dwpsn  file "../ff.c",line 959,column 7,is_stmt,isa 1
    2245                    ;----------------------------------------------------------------------
    2246                    ; 959 | if (res != FR_OK) break;                                               
    2247                    ;----------------------------------------------------------------------
    2248 000004c0 0014F89D          LDRB      A1, [SP, #20]         ; [DPU_3_PIPE] |959|  ; [KEEP 32-BIT INS]
    2249 000004c4 2800              CMP       A1, #0                ; [DPU_3_PIPE] |959|  ; [ORIG 16-BIT INS]
    2250 000004c6 AFFEF47F!         BNE       ||$C$L39||            ; [DPU_3_PIPE] |959|  ; [KEEP 32-BIT INS]
    2251                            ; BRANCHCC OCCURS {||$C$L39||}   ; [] |959| 
    2252                    ;* --------------------------------------------------------------------------*
    2253                            .dwpsn  file "../ff.c",line 959,column 25,is_stmt,isa 1
    2254                            .dwpsn  file "../ff.c",line 960,column 7,is_stmt,isa 1
    2255                    ;----------------------------------------------------------------------
TI ARM Assembler PC v16.9.6 Sun Dec 02 13:28:41 2018

Tools Copyright (c) 1996-2017 Texas Instruments Incorporated
ff.asm                                                               PAGE   42

    2256                    ; 960 | p = &fs->win[bc % SS(fs)];                                             
    2257                    ;----------------------------------------------------------------------
    2258 000004ca 9903              LDR       A2, [SP, #12]         ; [DPU_3_PIPE] |960|  ; [ORIG 16-BIT INS]
    2259 000004cc 9800              LDR       A1, [SP, #0]          ; [DPU_3_PIPE] |960|  ; [ORIG 16-BIT INS]
    2260 000004ce 215FF36F          BFC       A2, #9, #23           ; [DPU_3_PIPE] |960|  ; [KEEP 32-BIT INS]
    2261 000004d2 1840              ADDS      A1, A1, A2            ; [DPU_3_PIPE] |960|  ; [ORIG 16-BIT INS]
    2262 000004d4 3034              ADDS      A1, A1, #52           ; [DPU_3_PIPE] |960|  ; [ORIG 16-BIT INS]
    2263 000004d6 9004              STR       A1, [SP, #16]         ; [DPU_3_PIPE] |960|  ; [ORIG 16-BIT INS]
    2264                            .dwpsn  file "../ff.c",line 961,column 7,is_stmt,isa 1
    2265                    ;----------------------------------------------------------------------
    2266                    ; 961 | *p = (clst & 1) ? (BYTE)(val >> 4) : ((*p & 0xF0) | ((BYTE)(val >> 8) &
    2267                    ;     |  0x0F));                                                               
    2268                    ;----------------------------------------------------------------------
    2269 000004d8 9801              LDR       A1, [SP, #4]          ; [DPU_3_PIPE] |961|  ; [ORIG 16-BIT INS]
    2270 000004da 0840              LSRS      A1, A1, #1            ; [DPU_3_PIPE] |961|  ; [ORIG 16-BIT INS]
    2271 000004dc D303              BCC       ||$C$L33||            ; [DPU_3_PIPE] |961|  ; [ORIG 16-BIT INS]
    2272                            ; BRANCHCC OCCURS {||$C$L33||}   ; [] |961| 
    2273                    ;* --------------------------------------------------------------------------*
    2274 000004de 9802              LDR       A1, [SP, #8]          ; [DPU_3_PIPE] |961|  ; [ORIG 16-BIT INS]
    2275 000004e0 0900              LSRS      A1, A1, #4            ; [DPU_3_PIPE] |961|  ; [ORIG 16-BIT INS]
    2276 000004e2 B2C1              UXTB      A2, A1                ; [DPU_3_PIPE] |961|  ; [ORIG 16-BIT INS]
    2277 000004e4 E008              B         ||$C$L34||            ; [DPU_3_PIPE] |961|  ; [ORIG 16-BIT INS]
    2278                            ; BRANCH OCCURS {||$C$L34||}     ; [] |961| 
    2279                    ;* --------------------------------------------------------------------------*
    2280 000004e6           ||$C$L33||:    
    2281 000004e6 9804              LDR       A1, [SP, #16]         ; [DPU_3_PIPE] |961|  ; [ORIG 16-BIT INS]
    2282 000004e8 1009F89D          LDRB      A2, [SP, #9]          ; [DPU_3_PIPE] |961|  ; [KEEP 32-BIT INS]
    2283 000004ec 7800              LDRB      A1, [A1, #0]          ; [DPU_3_PIPE] |961|  ; [ORIG 16-BIT INS]
    2284 000004ee 010FF001          AND       A2, A2, #15           ; [DPU_3_PIPE] |961|  ; [KEEP 32-BIT INS]
    2285 000004f2 00F0F000          AND       A1, A1, #240          ; [DPU_3_PIPE] |961|  ; [KEEP 32-BIT INS]
    2286 000004f6 4301              ORRS      A2, A2, A1            ; [DPU_3_PIPE] |961|  ; [ORIG 16-BIT INS]
    2287                    ;* --------------------------------------------------------------------------*
    2288 000004f8           ||$C$L34||:    
    2289 000004f8 9804              LDR       A1, [SP, #16]         ; [DPU_3_PIPE] |961|  ; [ORIG 16-BIT INS]
    2290 000004fa 7001              STRB      A2, [A1, #0]          ; [DPU_3_PIPE] |961|  ; [ORIG 16-BIT INS]
    2291                            .dwpsn  file "../ff.c",line 962,column 7,is_stmt,isa 1
    2292                    ;----------------------------------------------------------------------
    2293                    ; 962 | fs->wflag = 1;                                                         
    2294                    ;----------------------------------------------------------------------
    2295 000004fc 9800              LDR       A1, [SP, #0]          ; [DPU_3_PIPE] |962|  ; [ORIG 16-BIT INS]
    2296 000004fe 2101              MOVS      A2, #1                ; [DPU_3_PIPE] |962|  ; [ORIG 16-BIT INS]
    2297 00000500 7101              STRB      A2, [A1, #4]          ; [DPU_3_PIPE] |962|  ; [ORIG 16-BIT INS]
    2298                            .dwpsn  file "../ff.c",line 963,column 7,is_stmt,isa 1
    2299                    ;----------------------------------------------------------------------
    2300                    ; 963 | break;                                                                 
    2301                    ; 965 | case FS_FAT16 :                                                        
    2302                    ;----------------------------------------------------------------------
    2303 00000502 E06E              B         ||$C$L39||            ; [DPU_3_PIPE] |963|  ; [ORIG 16-BIT INS]
    2304                            ; BRANCH OCCURS {||$C$L39||}     ; [] |963| 
    2305                    ;* --------------------------------------------------------------------------*
    2306 00000504           ||$C$L35||:    
    2307                            .dwpsn  file "../ff.c",line 966,column 7,is_stmt,isa 1
    2308                    ;----------------------------------------------------------------------
    2309                    ; 966 | res = move_window(fs, fs->fatbase + (clst / (SS(fs) / 2)));            
    2310                    ;----------------------------------------------------------------------
TI ARM Assembler PC v16.9.6 Sun Dec 02 13:28:41 2018

Tools Copyright (c) 1996-2017 Texas Instruments Incorporated
ff.asm                                                               PAGE   43

    2311 00000504 9800              LDR       A1, [SP, #0]          ; [DPU_3_PIPE] |966|  ; [ORIG 16-BIT INS]
    2312 00000506 9A01              LDR       A3, [SP, #4]          ; [DPU_3_PIPE] |966|  ; [ORIG 16-BIT INS]
    2313 00000508 6A41              LDR       A2, [A1, #36]         ; [DPU_3_PIPE] |966|  ; [ORIG 16-BIT INS]
    2314 0000050a 9800              LDR       A1, [SP, #0]          ; [DPU_3_PIPE] |966|  ; [ORIG 16-BIT INS]
    2315 0000050c 2112EB01          ADD       A2, A2, A3, LSR #8    ; [DPU_3_PIPE] |966|  ; [KEEP 32-BIT INS]
    2316                    $C$DW$116       .dwtag  DW_TAG_TI_branch
    2317                            .dwattr $C$DW$116, DW_AT_low_pc(0x00)
    2318                            .dwattr $C$DW$116, DW_AT_name("move_window")
    2319                            .dwattr $C$DW$116, DW_AT_TI_call
    2320                    
    2321 00000510 FFFEF7FF!         BL        move_window           ; [DPU_3_PIPE] |966|  ; [KEEP 32-BIT INS]
    2322                            ; CALL OCCURS {move_window }     ; [] |966| 
    2323 00000514 0014F88D          STRB      A1, [SP, #20]         ; [DPU_3_PIPE] |966|  ; [KEEP 32-BIT INS]
    2324                            .dwpsn  file "../ff.c",line 967,column 7,is_stmt,isa 1
    2325                    ;----------------------------------------------------------------------
    2326                    ; 967 | if (res != FR_OK) break;                                               
    2327                    ;----------------------------------------------------------------------
    2328 00000518 0014F89D          LDRB      A1, [SP, #20]         ; [DPU_3_PIPE] |967|  ; [KEEP 32-BIT INS]
    2329 0000051c 2800              CMP       A1, #0                ; [DPU_3_PIPE] |967|  ; [ORIG 16-BIT INS]
    2330 0000051e D160              BNE       ||$C$L39||            ; [DPU_3_PIPE] |967|  ; [ORIG 16-BIT INS]
    2331                            ; BRANCHCC OCCURS {||$C$L39||}   ; [] |967| 
    2332                    ;* --------------------------------------------------------------------------*
    2333                            .dwpsn  file "../ff.c",line 967,column 25,is_stmt,isa 1
    2334                            .dwpsn  file "../ff.c",line 968,column 7,is_stmt,isa 1
    2335                    ;----------------------------------------------------------------------
    2336                    ; 968 | p = &fs->win[clst * 2 % SS(fs)];                                       
    2337                    ;----------------------------------------------------------------------
    2338 00000520 9901              LDR       A2, [SP, #4]          ; [DPU_3_PIPE] |968|  ; [ORIG 16-BIT INS]
    2339 00000522 9800              LDR       A1, [SP, #0]          ; [DPU_3_PIPE] |968|  ; [ORIG 16-BIT INS]
    2340 00000524 0049              LSLS      A2, A2, #1            ; [DPU_3_PIPE] |968|  ; [ORIG 16-BIT INS]
    2341 00000526 215FF36F          BFC       A2, #9, #23           ; [DPU_3_PIPE] |968|  ; [KEEP 32-BIT INS]
    2342 0000052a 1840              ADDS      A1, A1, A2            ; [DPU_3_PIPE] |968|  ; [ORIG 16-BIT INS]
    2343 0000052c 3034              ADDS      A1, A1, #52           ; [DPU_3_PIPE] |968|  ; [ORIG 16-BIT INS]
    2344 0000052e 9004              STR       A1, [SP, #16]         ; [DPU_3_PIPE] |968|  ; [ORIG 16-BIT INS]
    2345                            .dwpsn  file "../ff.c",line 969,column 7,is_stmt,isa 1
    2346                    ;----------------------------------------------------------------------
    2347                    ; 969 | ST_WORD(p, (WORD)val);                                                 
    2348                    ;----------------------------------------------------------------------
    2349 00000530 0008F89D          LDRB      A1, [SP, #8]          ; [DPU_3_PIPE] |969|  ; [KEEP 32-BIT INS]
    2350 00000534 9904              LDR       A2, [SP, #16]         ; [DPU_3_PIPE] |969|  ; [ORIG 16-BIT INS]
    2351 00000536 7008              STRB      A1, [A2, #0]          ; [DPU_3_PIPE] |969|  ; [ORIG 16-BIT INS]
    2352 00000538 0008F8BD          LDRH      A1, [SP, #8]          ; [DPU_3_PIPE] |969|  ; [KEEP 32-BIT INS]
    2353 0000053c 9904              LDR       A2, [SP, #16]         ; [DPU_3_PIPE] |969|  ; [ORIG 16-BIT INS]
    2354 0000053e 1200              ASRS      A1, A1, #8            ; [DPU_3_PIPE] |969|  ; [ORIG 16-BIT INS]
    2355 00000540 7048              STRB      A1, [A2, #1]          ; [DPU_3_PIPE] |969|  ; [ORIG 16-BIT INS]
    2356                            .dwpsn  file "../ff.c",line 970,column 7,is_stmt,isa 1
    2357                    ;----------------------------------------------------------------------
    2358                    ; 970 | fs->wflag = 1;                                                         
    2359                    ;----------------------------------------------------------------------
    2360 00000542 9800              LDR       A1, [SP, #0]          ; [DPU_3_PIPE] |970|  ; [ORIG 16-BIT INS]
    2361 00000544 2101              MOVS      A2, #1                ; [DPU_3_PIPE] |970|  ; [ORIG 16-BIT INS]
    2362 00000546 7101              STRB      A2, [A1, #4]          ; [DPU_3_PIPE] |970|  ; [ORIG 16-BIT INS]
    2363                            .dwpsn  file "../ff.c",line 971,column 7,is_stmt,isa 1
    2364                    ;----------------------------------------------------------------------
    2365                    ; 971 | break;                                                                 
TI ARM Assembler PC v16.9.6 Sun Dec 02 13:28:41 2018

Tools Copyright (c) 1996-2017 Texas Instruments Incorporated
ff.asm                                                               PAGE   44

    2366                    ; 973 | case FS_FAT32 :                                                        
    2367                    ;----------------------------------------------------------------------
    2368 00000548 E04B              B         ||$C$L39||            ; [DPU_3_PIPE] |971|  ; [ORIG 16-BIT INS]
    2369                            ; BRANCH OCCURS {||$C$L39||}     ; [] |971| 
    2370                    ;* --------------------------------------------------------------------------*
    2371 0000054a           ||$C$L36||:    
    2372                            .dwpsn  file "../ff.c",line 974,column 7,is_stmt,isa 1
    2373                    ;----------------------------------------------------------------------
    2374                    ; 974 | res = move_window(fs, fs->fatbase + (clst / (SS(fs) / 4)));            
    2375                    ;----------------------------------------------------------------------
    2376 0000054a 9800              LDR       A1, [SP, #0]          ; [DPU_3_PIPE] |974|  ; [ORIG 16-BIT INS]
    2377 0000054c 9A01              LDR       A3, [SP, #4]          ; [DPU_3_PIPE] |974|  ; [ORIG 16-BIT INS]
    2378 0000054e 6A41              LDR       A2, [A1, #36]         ; [DPU_3_PIPE] |974|  ; [ORIG 16-BIT INS]
    2379 00000550 9800              LDR       A1, [SP, #0]          ; [DPU_3_PIPE] |974|  ; [ORIG 16-BIT INS]
    2380 00000552 11D2EB01          ADD       A2, A2, A3, LSR #7    ; [DPU_3_PIPE] |974|  ; [KEEP 32-BIT INS]
    2381                    $C$DW$117       .dwtag  DW_TAG_TI_branch
    2382                            .dwattr $C$DW$117, DW_AT_low_pc(0x00)
    2383                            .dwattr $C$DW$117, DW_AT_name("move_window")
    2384                            .dwattr $C$DW$117, DW_AT_TI_call
    2385                    
    2386 00000556 FFFEF7FF!         BL        move_window           ; [DPU_3_PIPE] |974|  ; [KEEP 32-BIT INS]
    2387                            ; CALL OCCURS {move_window }     ; [] |974| 
    2388 0000055a 0014F88D          STRB      A1, [SP, #20]         ; [DPU_3_PIPE] |974|  ; [KEEP 32-BIT INS]
    2389                            .dwpsn  file "../ff.c",line 975,column 7,is_stmt,isa 1
    2390                    ;----------------------------------------------------------------------
    2391                    ; 975 | if (res != FR_OK) break;                                               
    2392                    ;----------------------------------------------------------------------
    2393 0000055e 0014F89D          LDRB      A1, [SP, #20]         ; [DPU_3_PIPE] |975|  ; [KEEP 32-BIT INS]
    2394 00000562 2800              CMP       A1, #0                ; [DPU_3_PIPE] |975|  ; [ORIG 16-BIT INS]
    2395 00000564 D13D              BNE       ||$C$L39||            ; [DPU_3_PIPE] |975|  ; [ORIG 16-BIT INS]
    2396                            ; BRANCHCC OCCURS {||$C$L39||}   ; [] |975| 
    2397                    ;* --------------------------------------------------------------------------*
    2398                            .dwpsn  file "../ff.c",line 975,column 25,is_stmt,isa 1
    2399                            .dwpsn  file "../ff.c",line 976,column 7,is_stmt,isa 1
    2400                    ;----------------------------------------------------------------------
    2401                    ; 976 | p = &fs->win[clst * 4 % SS(fs)];                                       
    2402                    ;----------------------------------------------------------------------
    2403 00000566 9901              LDR       A2, [SP, #4]          ; [DPU_3_PIPE] |976|  ; [ORIG 16-BIT INS]
    2404 00000568 9800              LDR       A1, [SP, #0]          ; [DPU_3_PIPE] |976|  ; [ORIG 16-BIT INS]
    2405 0000056a 0089              LSLS      A2, A2, #2            ; [DPU_3_PIPE] |976|  ; [ORIG 16-BIT INS]
    2406 0000056c 215FF36F          BFC       A2, #9, #23           ; [DPU_3_PIPE] |976|  ; [KEEP 32-BIT INS]
    2407 00000570 1840              ADDS      A1, A1, A2            ; [DPU_3_PIPE] |976|  ; [ORIG 16-BIT INS]
    2408 00000572 3034              ADDS      A1, A1, #52           ; [DPU_3_PIPE] |976|  ; [ORIG 16-BIT INS]
    2409 00000574 9004              STR       A1, [SP, #16]         ; [DPU_3_PIPE] |976|  ; [ORIG 16-BIT INS]
    2410                            .dwpsn  file "../ff.c",line 977,column 7,is_stmt,isa 1
    2411                    ;----------------------------------------------------------------------
    2412                    ; 977 | val |= LD_DWORD(p) & 0xF0000000;                                       
    2413                    ;----------------------------------------------------------------------
    2414 00000576 9B04              LDR       A4, [SP, #16]         ; [DPU_3_PIPE] |977|  ; [ORIG 16-BIT INS]
    2415 00000578 9A04              LDR       A3, [SP, #16]         ; [DPU_3_PIPE] |977|  ; [ORIG 16-BIT INS]
    2416 0000057a 9804              LDR       A1, [SP, #16]         ; [DPU_3_PIPE] |977|  ; [ORIG 16-BIT INS]
    2417 0000057c 9904              LDR       A2, [SP, #16]         ; [DPU_3_PIPE] |977|  ; [ORIG 16-BIT INS]
    2418 0000057e 789C              LDRB      V1, [A4, #2]          ; [DPU_3_PIPE] |977|  ; [ORIG 16-BIT INS]
    2419 00000580 78C0              LDRB      A1, [A1, #3]          ; [DPU_3_PIPE] |977|  ; [ORIG 16-BIT INS]
    2420 00000582 7853              LDRB      A4, [A3, #1]          ; [DPU_3_PIPE] |977|  ; [ORIG 16-BIT INS]
TI ARM Assembler PC v16.9.6 Sun Dec 02 13:28:41 2018

Tools Copyright (c) 1996-2017 Texas Instruments Incorporated
ff.asm                                                               PAGE   45

    2421 00000584 7809              LDRB      A2, [A2, #0]          ; [DPU_3_PIPE] |977|  ; [ORIG 16-BIT INS]
    2422 00000586 9A02              LDR       A3, [SP, #8]          ; [DPU_3_PIPE] |977|  ; [ORIG 16-BIT INS]
    2423 00000588 0600              LSLS      A1, A1, #24           ; [DPU_3_PIPE] |977|  ; [ORIG 16-BIT INS]
    2424 0000058a 4004EA40          ORR       A1, A1, V1, LSL #16   ; [DPU_3_PIPE] |977|  ; [KEEP 32-BIT INS]
    2425 0000058e 2003EA40          ORR       A1, A1, A4, LSL #8    ; [DPU_3_PIPE] |977|  ; [KEEP 32-BIT INS]
    2426 00000592 4308              ORRS      A1, A2, A1            ; [DPU_3_PIPE] |977|  ; [ORIG 16-BIT INS]
    2427 00000594 4070F000          AND       A1, A1, #-268435456   ; [DPU_3_PIPE] |977|  ; [KEEP 32-BIT INS]
    2428 00000598 4310              ORRS      A1, A1, A3            ; [DPU_3_PIPE] |977|  ; [ORIG 16-BIT INS]
    2429 0000059a 9002              STR       A1, [SP, #8]          ; [DPU_3_PIPE] |977|  ; [ORIG 16-BIT INS]
    2430                            .dwpsn  file "../ff.c",line 978,column 7,is_stmt,isa 1
    2431                    ;----------------------------------------------------------------------
    2432                    ; 978 | ST_DWORD(p, val);                                                      
    2433                    ;----------------------------------------------------------------------
    2434 0000059c 0008F89D          LDRB      A1, [SP, #8]          ; [DPU_3_PIPE] |978|  ; [KEEP 32-BIT INS]
    2435 000005a0 9904              LDR       A2, [SP, #16]         ; [DPU_3_PIPE] |978|  ; [ORIG 16-BIT INS]
    2436 000005a2 7008              STRB      A1, [A2, #0]          ; [DPU_3_PIPE] |978|  ; [ORIG 16-BIT INS]
    2437 000005a4 0008F8BD          LDRH      A1, [SP, #8]          ; [DPU_3_PIPE] |978|  ; [KEEP 32-BIT INS]
    2438 000005a8 9904              LDR       A2, [SP, #16]         ; [DPU_3_PIPE] |978|  ; [ORIG 16-BIT INS]
    2439 000005aa 1200              ASRS      A1, A1, #8            ; [DPU_3_PIPE] |978|  ; [ORIG 16-BIT INS]
    2440 000005ac 7048              STRB      A1, [A2, #1]          ; [DPU_3_PIPE] |978|  ; [ORIG 16-BIT INS]
    2441 000005ae 000AF89D          LDRB      A1, [SP, #10]         ; [DPU_3_PIPE] |978|  ; [KEEP 32-BIT INS]
    2442 000005b2 9904              LDR       A2, [SP, #16]         ; [DPU_3_PIPE] |978|  ; [ORIG 16-BIT INS]
    2443 000005b4 7088              STRB      A1, [A2, #2]          ; [DPU_3_PIPE] |978|  ; [ORIG 16-BIT INS]
    2444 000005b6 000BF89D          LDRB      A1, [SP, #11]         ; [DPU_3_PIPE] |978|  ; [KEEP 32-BIT INS]
    2445 000005ba 9904              LDR       A2, [SP, #16]         ; [DPU_3_PIPE] |978|  ; [ORIG 16-BIT INS]
    2446 000005bc 70C8              STRB      A1, [A2, #3]          ; [DPU_3_PIPE] |978|  ; [ORIG 16-BIT INS]
    2447                            .dwpsn  file "../ff.c",line 979,column 7,is_stmt,isa 1
    2448                    ;----------------------------------------------------------------------
    2449                    ; 979 | fs->wflag = 1;                                                         
    2450                    ;----------------------------------------------------------------------
    2451 000005be 9800              LDR       A1, [SP, #0]          ; [DPU_3_PIPE] |979|  ; [ORIG 16-BIT INS]
    2452 000005c0 2101              MOVS      A2, #1                ; [DPU_3_PIPE] |979|  ; [ORIG 16-BIT INS]
    2453 000005c2 7101              STRB      A2, [A1, #4]          ; [DPU_3_PIPE] |979|  ; [ORIG 16-BIT INS]
    2454                            .dwpsn  file "../ff.c",line 980,column 7,is_stmt,isa 1
    2455                    ;----------------------------------------------------------------------
    2456                    ; 980 | break;                                                                 
    2457                    ; 982 | default :                                                              
    2458                    ;----------------------------------------------------------------------
    2459 000005c4 E00D              B         ||$C$L39||            ; [DPU_3_PIPE] |980|  ; [ORIG 16-BIT INS]
    2460                            ; BRANCH OCCURS {||$C$L39||}     ; [] |980| 
    2461                    ;* --------------------------------------------------------------------------*
    2462 000005c6           ||$C$L37||:    
    2463                            .dwpsn  file "../ff.c",line 983,column 7,is_stmt,isa 1
    2464                    ;----------------------------------------------------------------------
    2465                    ; 983 | res = FR_INT_ERR;                                                      
    2466                    ;----------------------------------------------------------------------
    2467 000005c6 2002              MOVS      A1, #2                ; [DPU_3_PIPE] |983|  ; [ORIG 16-BIT INS]
    2468 000005c8 0014F88D          STRB      A1, [SP, #20]         ; [DPU_3_PIPE] |983|  ; [KEEP 32-BIT INS]
    2469                            .dwpsn  file "../ff.c",line 984,column 5,is_stmt,isa 1
    2470 000005cc E009              B         ||$C$L39||            ; [DPU_3_PIPE] |984|  ; [ORIG 16-BIT INS]
    2471                            ; BRANCH OCCURS {||$C$L39||}     ; [] |984| 
    2472                    ;* --------------------------------------------------------------------------*
    2473 000005ce           ||$C$L38||:    
    2474                            .dwpsn  file "../ff.c",line 950,column 5,is_stmt,isa 1
    2475 000005ce 9800              LDR       A1, [SP, #0]          ; [DPU_3_PIPE] |950|  ; [ORIG 16-BIT INS]
TI ARM Assembler PC v16.9.6 Sun Dec 02 13:28:41 2018

Tools Copyright (c) 1996-2017 Texas Instruments Incorporated
ff.asm                                                               PAGE   46

    2476 000005d0 7800              LDRB      A1, [A1, #0]          ; [DPU_3_PIPE] |950|  ; [ORIG 16-BIT INS]
    2477 000005d2 1E40              SUBS      A1, A1, #1            ; [DPU_3_PIPE] |950|  ; [ORIG 16-BIT INS]
    2478 000005d4 AFFEF43F!         BEQ       ||$C$L30||            ; [DPU_3_PIPE] |950|  ; [KEEP 32-BIT INS]
    2479                            ; BRANCHCC OCCURS {||$C$L30||}   ; [] |950| 
    2480                    ;* --------------------------------------------------------------------------*
    2481 000005d8 1E40              SUBS      A1, A1, #1            ; [DPU_3_PIPE] |950|  ; [ORIG 16-BIT INS]
    2482 000005da D093              BEQ       ||$C$L35||            ; [DPU_3_PIPE] |950|  ; [ORIG 16-BIT INS]
    2483                            ; BRANCHCC OCCURS {||$C$L35||}   ; [] |950| 
    2484                    ;* --------------------------------------------------------------------------*
    2485 000005dc 1E40              SUBS      A1, A1, #1            ; [DPU_3_PIPE] |950|  ; [ORIG 16-BIT INS]
    2486 000005de D0B4              BEQ       ||$C$L36||            ; [DPU_3_PIPE] |950|  ; [ORIG 16-BIT INS]
    2487                            ; BRANCHCC OCCURS {||$C$L36||}   ; [] |950| 
    2488                    ;* --------------------------------------------------------------------------*
    2489 000005e0 E7F1              B         ||$C$L37||            ; [DPU_3_PIPE] |950|  ; [ORIG 16-BIT INS]
    2490                            ; BRANCH OCCURS {||$C$L37||}     ; [] |950| 
    2491                    ;* --------------------------------------------------------------------------*
    2492 000005e2           ||$C$L39||:    
    2493                            .dwpsn  file "../ff.c",line 987,column 3,is_stmt,isa 1
    2494                    ;----------------------------------------------------------------------
    2495                    ; 987 | return res;                                                            
    2496                    ;----------------------------------------------------------------------
    2497 000005e2 0014F89D          LDRB      A1, [SP, #20]         ; [DPU_3_PIPE] |987|  ; [KEEP 32-BIT INS]
    2498                            .dwpsn  file "../ff.c",line 988,column 1,is_stmt,isa 1
    2499 000005e6 B006              ADD       SP, SP, #24           ; [DPU_3_PIPE]  ; [ORIG 16-BIT INS]
    2500                            .dwcfi  cfa_offset, 8
    2501                    $C$DW$118       .dwtag  DW_TAG_TI_branch
    2502                            .dwattr $C$DW$118, DW_AT_low_pc(0x00)
    2503                            .dwattr $C$DW$118, DW_AT_TI_return
    2504                    
    2505 000005e8 BD10              POP       {V1, PC}              ; [DPU_3_PIPE]  ; [ORIG 16-BIT INS]
    2506                            .dwcfi  cfa_offset, 0
    2507                            .dwcfi  restore_reg, 4
    2508                            ; BRANCH OCCURS                  ; [] 
    2509                            .dwattr $C$DW$104, DW_AT_TI_end_file("../ff.c")
    2510                            .dwattr $C$DW$104, DW_AT_TI_end_line(0x3dc)
    2511                            .dwattr $C$DW$104, DW_AT_TI_end_column(0x01)
    2512                            .dwendentry
    2513                            .dwendtag $C$DW$104
    2514                    
    2515 000005ea                   .sect   ".text"
    2516                            .clink
    2517                            .thumbfunc remove_chain
    2518 000005ea                   .thumb
    2519                    
    2520                    $C$DW$119       .dwtag  DW_TAG_subprogram
    2521                            .dwattr $C$DW$119, DW_AT_name("remove_chain")
    2522                            .dwattr $C$DW$119, DW_AT_low_pc(remove_chain)
    2523                            .dwattr $C$DW$119, DW_AT_high_pc(0x00)
    2524                            .dwattr $C$DW$119, DW_AT_TI_symbol_name("remove_chain")
    2525                            .dwattr $C$DW$119, DW_AT_type(*$C$DW$T$45)
    2526                            .dwattr $C$DW$119, DW_AT_TI_begin_file("../ff.c")
    2527                            .dwattr $C$DW$119, DW_AT_TI_begin_line(0x3e7)
    2528                            .dwattr $C$DW$119, DW_AT_TI_begin_column(0x09)
    2529                            .dwattr $C$DW$119, DW_AT_decl_file("../ff.c")
    2530                            .dwattr $C$DW$119, DW_AT_decl_line(0x3e7)
TI ARM Assembler PC v16.9.6 Sun Dec 02 13:28:41 2018

Tools Copyright (c) 1996-2017 Texas Instruments Incorporated
ff.asm                                                               PAGE   47

    2531                            .dwattr $C$DW$119, DW_AT_decl_column(0x09)
    2532                            .dwattr $C$DW$119, DW_AT_TI_max_frame_size(0x18)
    2533                            .dwpsn  file "../ff.c",line 1003,column 1,is_stmt,address remove_chain,isa 1
    2534                    
    2535                            .dwfde $C$DW$CIE, remove_chain
    2536                    $C$DW$120       .dwtag  DW_TAG_formal_parameter
    2537                            .dwattr $C$DW$120, DW_AT_name("fs")
    2538                            .dwattr $C$DW$120, DW_AT_TI_symbol_name("fs")
    2539                            .dwattr $C$DW$120, DW_AT_type(*$C$DW$T$25)
    2540                            .dwattr $C$DW$120, DW_AT_location[DW_OP_reg0]
    2541                    
    2542                    $C$DW$121       .dwtag  DW_TAG_formal_parameter
    2543                            .dwattr $C$DW$121, DW_AT_name("clst")
    2544                            .dwattr $C$DW$121, DW_AT_TI_symbol_name("clst")
    2545                            .dwattr $C$DW$121, DW_AT_type(*$C$DW$T$21)
    2546                            .dwattr $C$DW$121, DW_AT_location[DW_OP_reg1]
    2547                    
    2548                    ;----------------------------------------------------------------------
    2549                    ; 999 | FRESULT remove_chain (                                                 
    2550                    ; 1000 | FATFS* fs,      /* File system object */                               
    2551                    ; 1001 | DWORD clst      /* Cluster# to remove a chain from */                  
    2552                    ; 1002 | )                                                                      
    2553                    ;----------------------------------------------------------------------
    2554                    
    2555                    ;*****************************************************************************
    2556                    ;* FUNCTION NAME: remove_chain                                               *
    2557                    ;*                                                                           *
    2558                    ;*   Regs Modified     : A1,A2,A3,A4,V9,SP,LR,SR,D0,D0_hi,D1,D1_hi,D2,D2_hi, *
    2559                    ;*                           D3,D3_hi,D4,D4_hi,D5,D5_hi,D6,D6_hi,D7,D7_hi,   *
    2560                    ;*                           FPEXC,FPSCR                                     *
    2561                    ;*   Regs Used         : A1,A2,A3,A4,V9,SP,LR,SR,D0,D0_hi,D1,D1_hi,D2,D2_hi, *
    2562                    ;*                           D3,D3_hi,D4,D4_hi,D5,D5_hi,D6,D6_hi,D7,D7_hi,   *
    2563                    ;*                           FPEXC,FPSCR                                     *
    2564                    ;*   Local Frame Size  : 0 Args + 16 Auto + 4 Save = 20 byte                 *
    2565                    ;*****************************************************************************
    2566 000005ea           remove_chain:
    2567                    ;* --------------------------------------------------------------------------*
    2568                            .dwcfi  cfa_offset, 0
    2569 000005ea B500              PUSH      {LR}                  ; [DPU_3_PIPE]  ; [ORIG 16-BIT INS]
    2570                            .dwcfi  cfa_offset, 4
    2571                            .dwcfi  save_reg_to_mem, 14, -4
    2572 000005ec 0D14F1AD          SUB       SP, SP, #20           ; [DPU_3_PIPE]  ; [KEEP 32-BIT INS]
    2573                            .dwcfi  cfa_offset, 24
    2574                    $C$DW$122       .dwtag  DW_TAG_variable
    2575                            .dwattr $C$DW$122, DW_AT_name("fs")
    2576                            .dwattr $C$DW$122, DW_AT_TI_symbol_name("fs")
    2577                            .dwattr $C$DW$122, DW_AT_type(*$C$DW$T$25)
    2578                            .dwattr $C$DW$122, DW_AT_location[DW_OP_breg13 0]
    2579                    
    2580                    $C$DW$123       .dwtag  DW_TAG_variable
    2581                            .dwattr $C$DW$123, DW_AT_name("clst")
    2582                            .dwattr $C$DW$123, DW_AT_TI_symbol_name("clst")
    2583                            .dwattr $C$DW$123, DW_AT_type(*$C$DW$T$21)
    2584                            .dwattr $C$DW$123, DW_AT_location[DW_OP_breg13 4]
    2585                    
TI ARM Assembler PC v16.9.6 Sun Dec 02 13:28:41 2018

Tools Copyright (c) 1996-2017 Texas Instruments Incorporated
ff.asm                                                               PAGE   48

    2586                    $C$DW$124       .dwtag  DW_TAG_variable
    2587                            .dwattr $C$DW$124, DW_AT_name("nxt")
    2588                            .dwattr $C$DW$124, DW_AT_TI_symbol_name("nxt")
    2589                            .dwattr $C$DW$124, DW_AT_type(*$C$DW$T$21)
    2590                            .dwattr $C$DW$124, DW_AT_location[DW_OP_breg13 8]
    2591                    
    2592                    $C$DW$125       .dwtag  DW_TAG_variable
    2593                            .dwattr $C$DW$125, DW_AT_name("res")
    2594                            .dwattr $C$DW$125, DW_AT_TI_symbol_name("res")
    2595                            .dwattr $C$DW$125, DW_AT_type(*$C$DW$T$45)
    2596                            .dwattr $C$DW$125, DW_AT_location[DW_OP_breg13 12]
    2597                    
    2598                    ;----------------------------------------------------------------------
    2599                    ; 1004 | FRESULT res;                                                           
    2600                    ; 1005 | DWORD nxt;                                                             
    2601                    ; 1006 | #if _USE_TRIM                                                          
    2602                    ; 1007 | DWORD scl = clst, ecl = clst, rt[2];                                   
    2603                    ; 1008 | #endif                                                                 
    2604                    ;----------------------------------------------------------------------
    2605 000005f0 9101              STR       A2, [SP, #4]          ; [DPU_3_PIPE] |1003|  ; [ORIG 16-BIT INS]
    2606 000005f2 9000              STR       A1, [SP, #0]          ; [DPU_3_PIPE] |1003|  ; [ORIG 16-BIT INS]
    2607                            .dwpsn  file "../ff.c",line 1010,column 3,is_stmt,isa 1
    2608                    ;----------------------------------------------------------------------
    2609                    ; 1010 | if (clst < 2 || clst >= fs->n_fatent) {  /* Check range */             
    2610                    ;----------------------------------------------------------------------
    2611 000005f4 9801              LDR       A1, [SP, #4]          ; [DPU_3_PIPE] |1010|  ; [ORIG 16-BIT INS]
    2612 000005f6 2802              CMP       A1, #2                ; [DPU_3_PIPE] |1010|  ; [ORIG 16-BIT INS]
    2613 000005f8 D304              BCC       ||$C$L40||            ; [DPU_3_PIPE] |1010|  ; [ORIG 16-BIT INS]
    2614                            ; BRANCHCC OCCURS {||$C$L40||}   ; [] |1010| 
    2615                    ;* --------------------------------------------------------------------------*
    2616 000005fa 9800              LDR       A1, [SP, #0]          ; [DPU_3_PIPE] |1010|  ; [ORIG 16-BIT INS]
    2617 000005fc 9901              LDR       A2, [SP, #4]          ; [DPU_3_PIPE] |1010|  ; [ORIG 16-BIT INS]
    2618 000005fe 6980              LDR       A1, [A1, #24]         ; [DPU_3_PIPE] |1010|  ; [ORIG 16-BIT INS]
    2619 00000600 4288              CMP       A1, A2                ; [DPU_3_PIPE] |1010|  ; [ORIG 16-BIT INS]
    2620 00000602 D803              BHI       ||$C$L41||            ; [DPU_3_PIPE] |1010|  ; [ORIG 16-BIT INS]
    2621                            ; BRANCHCC OCCURS {||$C$L41||}   ; [] |1010| 
    2622                    ;* --------------------------------------------------------------------------*
    2623 00000604           ||$C$L40||:    
    2624                            .dwpsn  file "../ff.c",line 1011,column 5,is_stmt,isa 1
    2625                    ;----------------------------------------------------------------------
    2626                    ; 1011 | res = FR_INT_ERR;                                                      
    2627                    ;----------------------------------------------------------------------
    2628 00000604 2002              MOVS      A1, #2                ; [DPU_3_PIPE] |1011|  ; [ORIG 16-BIT INS]
    2629 00000606 000CF88D          STRB      A1, [SP, #12]         ; [DPU_3_PIPE] |1011|  ; [KEEP 32-BIT INS]
    2630                            .dwpsn  file "../ff.c",line 1013,column 3,is_stmt,isa 1
    2631                    ;----------------------------------------------------------------------
    2632                    ; 1013 | } else {                                                               
    2633                    ;----------------------------------------------------------------------
    2634 0000060a E039              B         ||$C$L47||            ; [DPU_3_PIPE] |1013|  ; [ORIG 16-BIT INS]
    2635                            ; BRANCH OCCURS {||$C$L47||}     ; [] |1013| 
    2636                    ;* --------------------------------------------------------------------------*
    2637 0000060c           ||$C$L41||:    
    2638                            .dwpsn  file "../ff.c",line 1014,column 5,is_stmt,isa 1
    2639                    ;----------------------------------------------------------------------
    2640                    ; 1014 | res = FR_OK;                                                           
TI ARM Assembler PC v16.9.6 Sun Dec 02 13:28:41 2018

Tools Copyright (c) 1996-2017 Texas Instruments Incorporated
ff.asm                                                               PAGE   49

    2641                    ;----------------------------------------------------------------------
    2642 0000060c 2000              MOVS      A1, #0                ; [DPU_3_PIPE] |1014|  ; [ORIG 16-BIT INS]
    2643 0000060e 000CF88D          STRB      A1, [SP, #12]         ; [DPU_3_PIPE] |1014|  ; [KEEP 32-BIT INS]
    2644                            .dwpsn  file "../ff.c",line 1015,column 5,is_stmt,isa 1
    2645                    ;----------------------------------------------------------------------
    2646                    ; 1015 | while (clst < fs->n_fatent) {      /* Not a last link? */              
    2647                    ;----------------------------------------------------------------------
    2648 00000612 E030              B         ||$C$L46||            ; [DPU_3_PIPE] |1015|  ; [ORIG 16-BIT INS]
    2649                            ; BRANCH OCCURS {||$C$L46||}     ; [] |1015| 
    2650                    ;* --------------------------------------------------------------------------*
    2651 00000614           ||$C$L42||:    
    2652                            .dwpsn  file "../ff.c",line 1016,column 7,is_stmt,isa 1
    2653                    ;----------------------------------------------------------------------
    2654                    ; 1016 | nxt = get_fat(fs, clst);      /* Get cluster status */                 
    2655                    ;----------------------------------------------------------------------
    2656 00000614 9800              LDR       A1, [SP, #0]          ; [DPU_3_PIPE] |1016|  ; [ORIG 16-BIT INS]
    2657 00000616 9901              LDR       A2, [SP, #4]          ; [DPU_3_PIPE] |1016|  ; [ORIG 16-BIT INS]
    2658                    $C$DW$126       .dwtag  DW_TAG_TI_branch
    2659                            .dwattr $C$DW$126, DW_AT_low_pc(0x00)
    2660                            .dwattr $C$DW$126, DW_AT_name("get_fat")
    2661                            .dwattr $C$DW$126, DW_AT_TI_call
    2662                    
    2663 00000618 FFFEF7FF!         BL        get_fat               ; [DPU_3_PIPE] |1016|  ; [KEEP 32-BIT INS]
    2664                            ; CALL OCCURS {get_fat }         ; [] |1016| 
    2665 0000061c 9002              STR       A1, [SP, #8]          ; [DPU_3_PIPE] |1016|  ; [ORIG 16-BIT INS]
    2666                            .dwpsn  file "../ff.c",line 1017,column 7,is_stmt,isa 1
    2667                    ;----------------------------------------------------------------------
    2668                    ; 1017 | if (nxt == 0) break;        /* Empty cluster? */                       
    2669                    ;----------------------------------------------------------------------
    2670 0000061e 9802              LDR       A1, [SP, #8]          ; [DPU_3_PIPE] |1017|  ; [ORIG 16-BIT INS]
    2671 00000620 2800              CMP       A1, #0                ; [DPU_3_PIPE] |1017|  ; [ORIG 16-BIT INS]
    2672 00000622 D02D              BEQ       ||$C$L47||            ; [DPU_3_PIPE] |1017|  ; [ORIG 16-BIT INS]
    2673                            ; BRANCHCC OCCURS {||$C$L47||}   ; [] |1017| 
    2674                    ;* --------------------------------------------------------------------------*
    2675                            .dwpsn  file "../ff.c",line 1017,column 21,is_stmt,isa 1
    2676                            .dwpsn  file "../ff.c",line 1018,column 7,is_stmt,isa 1
    2677                    ;----------------------------------------------------------------------
    2678                    ; 1018 | if (nxt == 1) { res = FR_INT_ERR; break; }  /* Internal error? */      
    2679                    ;----------------------------------------------------------------------
    2680 00000624 9802              LDR       A1, [SP, #8]          ; [DPU_3_PIPE] |1018|  ; [ORIG 16-BIT INS]
    2681 00000626 2801              CMP       A1, #1                ; [DPU_3_PIPE] |1018|  ; [ORIG 16-BIT INS]
    2682 00000628 D103              BNE       ||$C$L43||            ; [DPU_3_PIPE] |1018|  ; [ORIG 16-BIT INS]
    2683                            ; BRANCHCC OCCURS {||$C$L43||}   ; [] |1018| 
    2684                    ;* --------------------------------------------------------------------------*
    2685                            .dwpsn  file "../ff.c",line 1018,column 23,is_stmt,isa 1
    2686 0000062a 2002              MOVS      A1, #2                ; [DPU_3_PIPE] |1018|  ; [ORIG 16-BIT INS]
    2687 0000062c 000CF88D          STRB      A1, [SP, #12]         ; [DPU_3_PIPE] |1018|  ; [KEEP 32-BIT INS]
    2688                            .dwpsn  file "../ff.c",line 1018,column 41,is_stmt,isa 1
    2689 00000630 E026              B         ||$C$L47||            ; [DPU_3_PIPE] |1018|  ; [ORIG 16-BIT INS]
    2690                            ; BRANCH OCCURS {||$C$L47||}     ; [] |1018| 
    2691                    ;* --------------------------------------------------------------------------*
    2692 00000632           ||$C$L43||:    
    2693                            .dwpsn  file "../ff.c",line 1019,column 7,is_stmt,isa 1
    2694                    ;----------------------------------------------------------------------
    2695                    ; 1019 | if (nxt == 0xFFFFFFFF) { res = FR_DISK_ERR; break; }  /* Disk error? */
TI ARM Assembler PC v16.9.6 Sun Dec 02 13:28:41 2018

Tools Copyright (c) 1996-2017 Texas Instruments Incorporated
ff.asm                                                               PAGE   50

    2696                    ;----------------------------------------------------------------------
    2697 00000632 9802              LDR       A1, [SP, #8]          ; [DPU_3_PIPE] |1019|  ; [ORIG 16-BIT INS]
    2698 00000634 3FFFF1B0          CMP       A1, #-1               ; [DPU_3_PIPE] |1019|  ; [KEEP 32-BIT INS]
    2699 00000638 D103              BNE       ||$C$L44||            ; [DPU_3_PIPE] |1019|  ; [ORIG 16-BIT INS]
    2700                            ; BRANCHCC OCCURS {||$C$L44||}   ; [] |1019| 
    2701                    ;* --------------------------------------------------------------------------*
    2702                            .dwpsn  file "../ff.c",line 1019,column 32,is_stmt,isa 1
    2703 0000063a 2001              MOVS      A1, #1                ; [DPU_3_PIPE] |1019|  ; [ORIG 16-BIT INS]
    2704 0000063c 000CF88D          STRB      A1, [SP, #12]         ; [DPU_3_PIPE] |1019|  ; [KEEP 32-BIT INS]
    2705                            .dwpsn  file "../ff.c",line 1019,column 51,is_stmt,isa 1
    2706 00000640 E01E              B         ||$C$L47||            ; [DPU_3_PIPE] |1019|  ; [ORIG 16-BIT INS]
    2707                            ; BRANCH OCCURS {||$C$L47||}     ; [] |1019| 
    2708                    ;* --------------------------------------------------------------------------*
    2709 00000642           ||$C$L44||:    
    2710                            .dwpsn  file "../ff.c",line 1020,column 7,is_stmt,isa 1
    2711                    ;----------------------------------------------------------------------
    2712                    ; 1020 | res = put_fat(fs, clst, 0);      /* Mark the cluster "empty" */        
    2713                    ;----------------------------------------------------------------------
    2714 00000642 9800              LDR       A1, [SP, #0]          ; [DPU_3_PIPE] |1020|  ; [ORIG 16-BIT INS]
    2715 00000644 9901              LDR       A2, [SP, #4]          ; [DPU_3_PIPE] |1020|  ; [ORIG 16-BIT INS]
    2716 00000646 2200              MOVS      A3, #0                ; [DPU_3_PIPE] |1020|  ; [ORIG 16-BIT INS]
    2717                    $C$DW$127       .dwtag  DW_TAG_TI_branch
    2718                            .dwattr $C$DW$127, DW_AT_low_pc(0x00)
    2719                            .dwattr $C$DW$127, DW_AT_name("put_fat")
    2720                            .dwattr $C$DW$127, DW_AT_TI_call
    2721                    
    2722 00000648 FFFEF7FF!         BL        put_fat               ; [DPU_3_PIPE] |1020|  ; [KEEP 32-BIT INS]
    2723                            ; CALL OCCURS {put_fat }         ; [] |1020| 
    2724 0000064c 000CF88D          STRB      A1, [SP, #12]         ; [DPU_3_PIPE] |1020|  ; [KEEP 32-BIT INS]
    2725                            .dwpsn  file "../ff.c",line 1021,column 7,is_stmt,isa 1
    2726                    ;----------------------------------------------------------------------
    2727                    ; 1021 | if (res != FR_OK) break;                                               
    2728                    ;----------------------------------------------------------------------
    2729 00000650 000CF89D          LDRB      A1, [SP, #12]         ; [DPU_3_PIPE] |1021|  ; [KEEP 32-BIT INS]
    2730 00000654 B9A0              CBNZ      A1, ||$C$L47||        ; []  ; [ORIG 16-BIT INS]
    2731                            ; BRANCHCC OCCURS {||$C$L47||}   ; [] |1021| 
    2732                    ;* --------------------------------------------------------------------------*
    2733                            .dwpsn  file "../ff.c",line 1021,column 25,is_stmt,isa 1
    2734                            .dwpsn  file "../ff.c",line 1022,column 7,is_stmt,isa 1
    2735                    ;----------------------------------------------------------------------
