TI ARM Assembler PC v16.9.6 Sun Dec 02 13:28:42 2018

Tools Copyright (c) 1996-2017 Texas Instruments Incorporated
heap.asm                                                             PAGE    1

       1                    ;******************************************************************************
       2                    ;* TI ARM C/C++ Codegen                                        PC v16.9.6.LTS *
       3                    ;* Date/Time created: Sun Dec 02 13:28:42 2018                                *
       4                    ;******************************************************************************
       5                            .compiler_opts --abi=eabi --arm_vmrs_si_workaround=off --code_state=16 --diag_wrap=off --embed
       6 00000000                   .thumb
       7                    
       8                    $C$DW$CU        .dwtag  DW_TAG_compile_unit
       9                            .dwattr $C$DW$CU, DW_AT_name("../heap.c")
      10                            .dwattr $C$DW$CU, DW_AT_producer("TI TI ARM C/C++ Codegen PC v16.9.6.LTS Copyright (c) 1996-20
      11                            .dwattr $C$DW$CU, DW_AT_TI_version(0x01)
      12                            .dwattr $C$DW$CU, DW_AT_comp_dir("C:\Users\brian\Documents\EE445L\Lab11\Test\Debug")
      13 00000000           Heap:   .usect  ".bss:Heap",576,4
      14                            .clink ".bss:Heap"
      15                    $C$DW$1 .dwtag  DW_TAG_variable
      16                            .dwattr $C$DW$1, DW_AT_name("Heap")
      17                            .dwattr $C$DW$1, DW_AT_TI_symbol_name("Heap")
      18                            .dwattr $C$DW$1, DW_AT_type(*$C$DW$T$44)
      19                            .dwattr $C$DW$1, DW_AT_location[DW_OP_addr Heap]
      20                            .dwattr $C$DW$1, DW_AT_decl_file("../heap.c")
      21                            .dwattr $C$DW$1, DW_AT_decl_line(0x2a)
      22                            .dwattr $C$DW$1, DW_AT_decl_column(0x10)
      23                    
      24                    ;       C:\ti\ccsv7\tools\compiler\ti-cgt-arm_16.9.6.LTS\bin\armacpia.exe -@C:\\Users\\brian\\AppData\
      25 00000000                   .sect   ".text"
      26                            .clink
      27                            .thumbfunc Heap_Init
      28 00000000                   .thumb
      29                            .global Heap_Init
      30                    
      31                    $C$DW$2 .dwtag  DW_TAG_subprogram
      32                            .dwattr $C$DW$2, DW_AT_name("Heap_Init")
      33                            .dwattr $C$DW$2, DW_AT_low_pc(Heap_Init)
      34                            .dwattr $C$DW$2, DW_AT_high_pc(0x00)
      35                            .dwattr $C$DW$2, DW_AT_TI_symbol_name("Heap_Init")
      36                            .dwattr $C$DW$2, DW_AT_external
      37                            .dwattr $C$DW$2, DW_AT_type(*$C$DW$T$19)
      38                            .dwattr $C$DW$2, DW_AT_TI_begin_file("../heap.c")
      39                            .dwattr $C$DW$2, DW_AT_TI_begin_line(0x41)
      40                            .dwattr $C$DW$2, DW_AT_TI_begin_column(0x09)
      41                            .dwattr $C$DW$2, DW_AT_decl_file("../heap.c")
      42                            .dwattr $C$DW$2, DW_AT_decl_line(0x41)
      43                            .dwattr $C$DW$2, DW_AT_decl_column(0x09)
      44                            .dwattr $C$DW$2, DW_AT_TI_max_frame_size(0x08)
      45                            .dwpsn  file "../heap.c",line 65,column 24,is_stmt,address Heap_Init,isa 1
      46                    
      47                            .dwfde $C$DW$CIE, Heap_Init
      48                    ;----------------------------------------------------------------------
      49                    ;  65 | int32_t Heap_Init(void){                                               
      50                    ;----------------------------------------------------------------------
      51                    
      52                    ;*****************************************************************************
      53                    ;* FUNCTION NAME: Heap_Init                                                  *
      54                    ;*                                                                           *
      55                    ;*   Regs Modified     : A1,A2,SP,SR                                         *
TI ARM Assembler PC v16.9.6 Sun Dec 02 13:28:42 2018

Tools Copyright (c) 1996-2017 Texas Instruments Incorporated
heap.asm                                                             PAGE    2

      56                    ;*   Regs Used         : A1,A2,SP,LR,SR                                      *
      57                    ;*   Local Frame Size  : 0 Args + 8 Auto + 0 Save = 8 byte                   *
      58                    ;*****************************************************************************
      59 00000000           Heap_Init:
      60                    ;* --------------------------------------------------------------------------*
      61                            .dwcfi  cfa_offset, 0
      62 00000000 0D08F1AD          SUB       SP, SP, #8            ; [DPU_3_PIPE]  ; [KEEP 32-BIT INS]
      63                            .dwcfi  cfa_offset, 8
      64                    $C$DW$3 .dwtag  DW_TAG_variable
      65                            .dwattr $C$DW$3, DW_AT_name("blockStart")
      66                            .dwattr $C$DW$3, DW_AT_TI_symbol_name("blockStart")
      67                            .dwattr $C$DW$3, DW_AT_type(*$C$DW$T$24)
      68                            .dwattr $C$DW$3, DW_AT_location[DW_OP_breg13 0]
      69                    
      70                    $C$DW$4 .dwtag  DW_TAG_variable
      71                            .dwattr $C$DW$4, DW_AT_name("blockEnd")
      72                            .dwattr $C$DW$4, DW_AT_TI_symbol_name("blockEnd")
      73                            .dwattr $C$DW$4, DW_AT_type(*$C$DW$T$24)
      74                            .dwattr $C$DW$4, DW_AT_location[DW_OP_breg13 4]
      75                    
      76                            .dwpsn  file "../heap.c",line 66,column 23,is_stmt,isa 1
      77                    ;----------------------------------------------------------------------
      78                    ;  66 | int32_t* blockStart = HEAP_START;                                      
      79                    ;----------------------------------------------------------------------
      80 00000004 4896              LDR       A1, $C$CON1           ; [DPU_3_PIPE] |66|  ; [ORIG 16-BIT INS]
      81 00000006 9000              STR       A1, [SP, #0]          ; [DPU_3_PIPE] |66|  ; [ORIG 16-BIT INS]
      82                            .dwpsn  file "../heap.c",line 67,column 21,is_stmt,isa 1
      83                    ;----------------------------------------------------------------------
      84                    ;  67 | int32_t* blockEnd = (HEAP_START + HEAP_SIZE_WORDS - 1);                
      85                    ;----------------------------------------------------------------------
      86 00000008 4896              LDR       A1, $C$CON2           ; [DPU_3_PIPE] |67|  ; [ORIG 16-BIT INS]
      87 0000000a 9001              STR       A1, [SP, #4]          ; [DPU_3_PIPE] |67|  ; [ORIG 16-BIT INS]
      88                            .dwpsn  file "../heap.c",line 68,column 3,is_stmt,isa 1
      89                    ;----------------------------------------------------------------------
      90                    ;  68 | *blockStart = -(int32_t)(HEAP_SIZE_WORDS - 2);                         
      91                    ;----------------------------------------------------------------------
      92 0000000c 9800              LDR       A1, [SP, #0]          ; [DPU_3_PIPE] |68|  ; [ORIG 16-BIT INS]
      93 0000000e 018DF06F          MVN       A2, #141              ; [DPU_3_PIPE] |68|  ; [KEEP 32-BIT INS]
      94 00000012 6001              STR       A2, [A1, #0]          ; [DPU_3_PIPE] |68|  ; [ORIG 16-BIT INS]
      95                            .dwpsn  file "../heap.c",line 69,column 3,is_stmt,isa 1
      96                    ;----------------------------------------------------------------------
      97                    ;  69 | *blockEnd = -(int32_t)(HEAP_SIZE_WORDS - 2);                           
      98                    ;----------------------------------------------------------------------
      99 00000014 9801              LDR       A1, [SP, #4]          ; [DPU_3_PIPE] |69|  ; [ORIG 16-BIT INS]
     100 00000016 018DF06F          MVN       A2, #141              ; [DPU_3_PIPE] |69|  ; [KEEP 32-BIT INS]
     101 0000001a 6001              STR       A2, [A1, #0]          ; [DPU_3_PIPE] |69|  ; [ORIG 16-BIT INS]
     102                            .dwpsn  file "../heap.c",line 70,column 3,is_stmt,isa 1
     103                    ;----------------------------------------------------------------------
     104                    ;  70 | return HEAP_OK;                                                        
     105                    ;----------------------------------------------------------------------
     106 0000001c 2000              MOVS      A1, #0                ; [DPU_3_PIPE] |70|  ; [ORIG 16-BIT INS]
     107                            .dwpsn  file "../heap.c",line 71,column 1,is_stmt,isa 1
     108 0000001e B002              ADD       SP, SP, #8            ; [DPU_3_PIPE]  ; [ORIG 16-BIT INS]
     109                            .dwcfi  cfa_offset, 0
     110                    $C$DW$5 .dwtag  DW_TAG_TI_branch
TI ARM Assembler PC v16.9.6 Sun Dec 02 13:28:42 2018

Tools Copyright (c) 1996-2017 Texas Instruments Incorporated
heap.asm                                                             PAGE    3

     111                            .dwattr $C$DW$5, DW_AT_low_pc(0x00)
     112                            .dwattr $C$DW$5, DW_AT_TI_return
     113                    
     114 00000020 4770              BX        LR                    ; [DPU_3_PIPE]  ; [ORIG 16-BIT INS]
     115                            ; BRANCH OCCURS                  ; [] 
     116                            .dwattr $C$DW$2, DW_AT_TI_end_file("../heap.c")
     117                            .dwattr $C$DW$2, DW_AT_TI_end_line(0x47)
     118                            .dwattr $C$DW$2, DW_AT_TI_end_column(0x01)
     119                            .dwendentry
     120                            .dwendtag $C$DW$2
     121                    
     122 00000022                   .sect   ".text"
     123                            .clink
     124                            .thumbfunc Heap_Malloc
     125 00000022                   .thumb
     126                            .global Heap_Malloc
     127                    
     128                    $C$DW$6 .dwtag  DW_TAG_subprogram
     129                            .dwattr $C$DW$6, DW_AT_name("Heap_Malloc")
     130                            .dwattr $C$DW$6, DW_AT_low_pc(Heap_Malloc)
     131                            .dwattr $C$DW$6, DW_AT_high_pc(0x00)
     132                            .dwattr $C$DW$6, DW_AT_TI_symbol_name("Heap_Malloc")
     133                            .dwattr $C$DW$6, DW_AT_external
     134                            .dwattr $C$DW$6, DW_AT_type(*$C$DW$T$3)
     135                            .dwattr $C$DW$6, DW_AT_TI_begin_file("../heap.c")
     136                            .dwattr $C$DW$6, DW_AT_TI_begin_line(0x50)
     137                            .dwattr $C$DW$6, DW_AT_TI_begin_column(0x07)
     138                            .dwattr $C$DW$6, DW_AT_decl_file("../heap.c")
     139                            .dwattr $C$DW$6, DW_AT_decl_line(0x50)
     140                            .dwattr $C$DW$6, DW_AT_decl_column(0x07)
     141                            .dwattr $C$DW$6, DW_AT_TI_max_frame_size(0x10)
     142                            .dwpsn  file "../heap.c",line 80,column 40,is_stmt,address Heap_Malloc,isa 1
     143                    
     144                            .dwfde $C$DW$CIE, Heap_Malloc
     145                    $C$DW$7 .dwtag  DW_TAG_formal_parameter
     146                            .dwattr $C$DW$7, DW_AT_name("desiredBytes")
     147                            .dwattr $C$DW$7, DW_AT_TI_symbol_name("desiredBytes")
     148                            .dwattr $C$DW$7, DW_AT_type(*$C$DW$T$19)
     149                            .dwattr $C$DW$7, DW_AT_location[DW_OP_reg0]
     150                    
     151                    
     152                    ;*****************************************************************************
     153                    ;* FUNCTION NAME: Heap_Malloc                                                *
     154                    ;*                                                                           *
     155                    ;*   Regs Modified     : A1,A2,A3,A4,V9,SP,LR,SR,D0,D0_hi,D1,D1_hi,D2,D2_hi, *
     156                    ;*                           D3,D3_hi,D4,D4_hi,D5,D5_hi,D6,D6_hi,D7,D7_hi,   *
     157                    ;*                           FPEXC,FPSCR                                     *
     158                    ;*   Regs Used         : A1,A2,A3,A4,V9,SP,LR,SR,D0,D0_hi,D1,D1_hi,D2,D2_hi, *
     159                    ;*                           D3,D3_hi,D4,D4_hi,D5,D5_hi,D6,D6_hi,D7,D7_hi,   *
     160                    ;*                           FPEXC,FPSCR                                     *
     161                    ;*   Local Frame Size  : 0 Args + 12 Auto + 4 Save = 16 byte                 *
     162                    ;*****************************************************************************
     163 00000022           Heap_Malloc:
     164                    ;* --------------------------------------------------------------------------*
     165                            .dwcfi  cfa_offset, 0
TI ARM Assembler PC v16.9.6 Sun Dec 02 13:28:42 2018

Tools Copyright (c) 1996-2017 Texas Instruments Incorporated
heap.asm                                                             PAGE    4

     166 00000022 B50E              PUSH      {A2, A3, A4, LR}      ; [DPU_3_PIPE]  ; [ORIG 16-BIT INS]
     167                            .dwcfi  cfa_offset, 16
     168                            .dwcfi  save_reg_to_mem, 14, -4
     169                            .dwcfi  save_reg_to_mem, 3, -8
     170                            .dwcfi  save_reg_to_mem, 2, -12
     171                            .dwcfi  save_reg_to_mem, 1, -16
     172                    $C$DW$8 .dwtag  DW_TAG_variable
     173                            .dwattr $C$DW$8, DW_AT_name("desiredBytes")
     174                            .dwattr $C$DW$8, DW_AT_TI_symbol_name("desiredBytes")
     175                            .dwattr $C$DW$8, DW_AT_type(*$C$DW$T$19)
     176                            .dwattr $C$DW$8, DW_AT_location[DW_OP_breg13 0]
     177                    
     178                    $C$DW$9 .dwtag  DW_TAG_variable
     179                            .dwattr $C$DW$9, DW_AT_name("desiredWords")
     180                            .dwattr $C$DW$9, DW_AT_TI_symbol_name("desiredWords")
     181                            .dwattr $C$DW$9, DW_AT_type(*$C$DW$T$19)
     182                            .dwattr $C$DW$9, DW_AT_location[DW_OP_breg13 4]
     183                    
     184                    $C$DW$10        .dwtag  DW_TAG_variable
     185                            .dwattr $C$DW$10, DW_AT_name("blockStart")
     186                            .dwattr $C$DW$10, DW_AT_TI_symbol_name("blockStart")
     187                            .dwattr $C$DW$10, DW_AT_type(*$C$DW$T$24)
     188                            .dwattr $C$DW$10, DW_AT_location[DW_OP_breg13 8]
     189                    
     190                    ;----------------------------------------------------------------------
     191                    ;  80 | void* Heap_Malloc(int32_t desiredBytes){                               
     192                    ;----------------------------------------------------------------------
     193 00000024 9000              STR       A1, [SP, #0]          ; [DPU_3_PIPE] |80|  ; [ORIG 16-BIT INS]
     194                            .dwpsn  file "../heap.c",line 81,column 24,is_stmt,isa 1
     195                    ;----------------------------------------------------------------------
     196                    ;  81 | int32_t desiredWords = (desiredBytes + sizeof(int32_t) - 1) / sizeof(in
     197                    ;     | t32_t);                                                                
     198                    ;----------------------------------------------------------------------
     199 00000026 9800              LDR       A1, [SP, #0]          ; [DPU_3_PIPE] |81|  ; [ORIG 16-BIT INS]
     200 00000028 1CC0              ADDS      A1, A1, #3            ; [DPU_3_PIPE] |81|  ; [ORIG 16-BIT INS]
     201 0000002a 0880              LSRS      A1, A1, #2            ; [DPU_3_PIPE] |81|  ; [ORIG 16-BIT INS]
     202 0000002c 9001              STR       A1, [SP, #4]          ; [DPU_3_PIPE] |81|  ; [ORIG 16-BIT INS]
     203                            .dwpsn  file "../heap.c",line 82,column 23,is_stmt,isa 1
     204                    ;----------------------------------------------------------------------
     205                    ;  82 | int32_t* blockStart = HEAP_START;  // implements first fit             
     206                    ;----------------------------------------------------------------------
     207 0000002e 488C              LDR       A1, $C$CON1           ; [DPU_3_PIPE] |82|  ; [ORIG 16-BIT INS]
     208 00000030 9002              STR       A1, [SP, #8]          ; [DPU_3_PIPE] |82|  ; [ORIG 16-BIT INS]
     209                            .dwpsn  file "../heap.c",line 83,column 3,is_stmt,isa 1
     210                    ;----------------------------------------------------------------------
     211                    ;  83 | if(desiredWords <= 0){                                                 
     212                    ;----------------------------------------------------------------------
     213 00000032 9801              LDR       A1, [SP, #4]          ; [DPU_3_PIPE] |83|  ; [ORIG 16-BIT INS]
     214 00000034 2800              CMP       A1, #0                ; [DPU_3_PIPE] |83|  ; [ORIG 16-BIT INS]
     215 00000036 DC19              BGT       ||$C$L4||             ; [DPU_3_PIPE] |83|  ; [ORIG 16-BIT INS]
     216                            ; BRANCHCC OCCURS {||$C$L4||}    ; [] |83| 
     217                    ;* --------------------------------------------------------------------------*
     218                            .dwpsn  file "../heap.c",line 84,column 5,is_stmt,isa 1
     219                    ;----------------------------------------------------------------------
     220                    ;  84 | return 0; //NULL                                                       
TI ARM Assembler PC v16.9.6 Sun Dec 02 13:28:42 2018

Tools Copyright (c) 1996-2017 Texas Instruments Incorporated
heap.asm                                                             PAGE    5

     221                    ;  86 | while(inHeapRange(blockStart)){                                        
     222                    ;  87 | // one pass through the heap                                           
     223                    ;  88 | // choose first block that is big enough                               
     224                    ;----------------------------------------------------------------------
     225 00000038 2000              MOVS      A1, #0                ; [DPU_3_PIPE] |84|  ; [ORIG 16-BIT INS]
     226 0000003a E01D              B         ||$C$L5||             ; [DPU_3_PIPE] |84|  ; [ORIG 16-BIT INS]
     227                            ; BRANCH OCCURS {||$C$L5||}      ; [] |84| 
     228                    ;* --------------------------------------------------------------------------*
     229                    ;* --------------------------------------------------------------------------*
     230 0000003c           ||$C$L1||:    
     231                            .dwpsn  file "../heap.c",line 89,column 5,is_stmt,isa 1
     232                    ;----------------------------------------------------------------------
     233                    ;  89 | if(blockUnused(blockStart) && desiredWords <= blockRoom(blockStart)){  
     234                    ;----------------------------------------------------------------------
     235 0000003c 9802              LDR       A1, [SP, #8]          ; [DPU_3_PIPE] |89|  ; [ORIG 16-BIT INS]
     236                    $C$DW$11        .dwtag  DW_TAG_TI_branch
     237                            .dwattr $C$DW$11, DW_AT_low_pc(0x00)
     238                            .dwattr $C$DW$11, DW_AT_name("blockUnused")
     239                            .dwattr $C$DW$11, DW_AT_TI_call
     240                    
     241 0000003e FFFEF7FF!         BL        blockUnused           ; [DPU_3_PIPE] |89|  ; [KEEP 32-BIT INS]
     242                            ; CALL OCCURS {blockUnused }     ; [] |89| 
     243 00000042 B178              CBZ       A1, ||$C$L3||         ; []  ; [ORIG 16-BIT INS]
     244                            ; BRANCHCC OCCURS {||$C$L3||}    ; [] |89| 
     245                    ;* --------------------------------------------------------------------------*
     246 00000044 9802              LDR       A1, [SP, #8]          ; [DPU_3_PIPE] |89|  ; [ORIG 16-BIT INS]
     247                    $C$DW$12        .dwtag  DW_TAG_TI_branch
     248                            .dwattr $C$DW$12, DW_AT_low_pc(0x00)
     249                            .dwattr $C$DW$12, DW_AT_name("blockRoom")
     250                            .dwattr $C$DW$12, DW_AT_TI_call
     251                    
     252 00000046 FFFEF7FF!         BL        blockRoom             ; [DPU_3_PIPE] |89|  ; [KEEP 32-BIT INS]
     253                            ; CALL OCCURS {blockRoom }       ; [] |89| 
     254 0000004a 9901              LDR       A2, [SP, #4]          ; [DPU_3_PIPE] |89|  ; [ORIG 16-BIT INS]
     255 0000004c 4288              CMP       A1, A2                ; [DPU_3_PIPE] |89|  ; [ORIG 16-BIT INS]
     256 0000004e DB09              BLT       ||$C$L3||             ; [DPU_3_PIPE] |89|  ; [ORIG 16-BIT INS]
     257                            ; BRANCHCC OCCURS {||$C$L3||}    ; [] |89| 
     258                    ;* --------------------------------------------------------------------------*
     259                            .dwpsn  file "../heap.c",line 90,column 7,is_stmt,isa 1
     260                    ;----------------------------------------------------------------------
     261                    ;  90 | if(splitAndMarkBlockUsed(blockStart, desiredWords)){                   
     262                    ;----------------------------------------------------------------------
     263 00000050 9802              LDR       A1, [SP, #8]          ; [DPU_3_PIPE] |90|  ; [ORIG 16-BIT INS]
     264 00000052 9901              LDR       A2, [SP, #4]          ; [DPU_3_PIPE] |90|  ; [ORIG 16-BIT INS]
     265                    $C$DW$13        .dwtag  DW_TAG_TI_branch
     266                            .dwattr $C$DW$13, DW_AT_low_pc(0x00)
     267                            .dwattr $C$DW$13, DW_AT_name("splitAndMarkBlockUsed")
     268                            .dwattr $C$DW$13, DW_AT_TI_call
     269                    
     270 00000054 FFFEF7FF!         BL        splitAndMarkBlockUsed ; [DPU_3_PIPE] |90|  ; [KEEP 32-BIT INS]
     271                            ; CALL OCCURS {splitAndMarkBlockUsed }  ; [] |90| 
     272 00000058 B108              CBZ       A1, ||$C$L2||         ; []  ; [ORIG 16-BIT INS]
     273                            ; BRANCHCC OCCURS {||$C$L2||}    ; [] |90| 
     274                    ;* --------------------------------------------------------------------------*
     275                            .dwpsn  file "../heap.c",line 91,column 9,is_stmt,isa 1
TI ARM Assembler PC v16.9.6 Sun Dec 02 13:28:42 2018

Tools Copyright (c) 1996-2017 Texas Instruments Incorporated
heap.asm                                                             PAGE    6

     276                    ;----------------------------------------------------------------------
     277                    ;  91 | return 0; //NULL                                                       
     278                    ;----------------------------------------------------------------------
     279 0000005a 2000              MOVS      A1, #0                ; [DPU_3_PIPE] |91|  ; [ORIG 16-BIT INS]
     280 0000005c E00C              B         ||$C$L5||             ; [DPU_3_PIPE] |91|  ; [ORIG 16-BIT INS]
     281                            ; BRANCH OCCURS {||$C$L5||}      ; [] |91| 
     282                    ;* --------------------------------------------------------------------------*
     283 0000005e           ||$C$L2||:    
     284                            .dwpsn  file "../heap.c",line 93,column 7,is_stmt,isa 1
     285                    ;----------------------------------------------------------------------
     286                    ;  93 | return blockStart + 1;                                                 
     287                    ;----------------------------------------------------------------------
     288 0000005e 9802              LDR       A1, [SP, #8]          ; [DPU_3_PIPE] |93|  ; [ORIG 16-BIT INS]
     289 00000060 1D00              ADDS      A1, A1, #4            ; [DPU_3_PIPE] |93|  ; [ORIG 16-BIT INS]
     290 00000062 E009              B         ||$C$L5||             ; [DPU_3_PIPE] |93|  ; [ORIG 16-BIT INS]
     291                            ; BRANCH OCCURS {||$C$L5||}      ; [] |93| 
     292                    ;* --------------------------------------------------------------------------*
     293 00000064           ||$C$L3||:    
     294                            .dwpsn  file "../heap.c",line 95,column 5,is_stmt,isa 1
     295                    ;----------------------------------------------------------------------
     296                    ;  95 | blockStart = nextBlockHeader(blockStart);                              
     297                    ;----------------------------------------------------------------------
     298 00000064 9802              LDR       A1, [SP, #8]          ; [DPU_3_PIPE] |95|  ; [ORIG 16-BIT INS]
     299                    $C$DW$14        .dwtag  DW_TAG_TI_branch
     300                            .dwattr $C$DW$14, DW_AT_low_pc(0x00)
     301                            .dwattr $C$DW$14, DW_AT_name("nextBlockHeader")
     302                            .dwattr $C$DW$14, DW_AT_TI_call
     303                    
     304 00000066 FFFEF7FF!         BL        nextBlockHeader       ; [DPU_3_PIPE] |95|  ; [KEEP 32-BIT INS]
     305                            ; CALL OCCURS {nextBlockHeader }  ; [] |95| 
     306 0000006a 9002              STR       A1, [SP, #8]          ; [DPU_3_PIPE] |95|  ; [ORIG 16-BIT INS]
     307                    ;* --------------------------------------------------------------------------*
     308                    ;*   BEGIN LOOP ||$C$L4||
     309                    ;* --------------------------------------------------------------------------*
     310 0000006c           ||$C$L4||:    
     311                            .dwpsn  file "../heap.c",line 86,column 3,is_stmt,isa 1
     312 0000006c 9802              LDR       A1, [SP, #8]          ; [DPU_3_PIPE] |86|  ; [ORIG 16-BIT INS]
     313                    $C$DW$15        .dwtag  DW_TAG_TI_branch
     314                            .dwattr $C$DW$15, DW_AT_low_pc(0x00)
     315                            .dwattr $C$DW$15, DW_AT_name("inHeapRange")
     316                            .dwattr $C$DW$15, DW_AT_TI_call
     317                    
     318 0000006e FFFEF7FF!         BL        inHeapRange           ; [DPU_3_PIPE] |86|  ; [KEEP 32-BIT INS]
     319                            ; CALL OCCURS {inHeapRange }     ; [] |86| 
     320 00000072 2800              CMP       A1, #0                ; [DPU_3_PIPE] |86|  ; [ORIG 16-BIT INS]
     321 00000074 D1E2              BNE       ||$C$L1||             ; [DPU_3_PIPE] |86|  ; [ORIG 16-BIT INS]
     322                            ; BRANCHCC OCCURS {||$C$L1||}    ; [] |86| 
     323                    ;* --------------------------------------------------------------------------*
     324                            .dwpsn  file "../heap.c",line 97,column 3,is_stmt,isa 1
     325                    ;----------------------------------------------------------------------
     326                    ;  97 | return 0; //NULL                                                       
     327                    ;----------------------------------------------------------------------
     328 00000076 2000              MOVS      A1, #0                ; [DPU_3_PIPE] |97|  ; [ORIG 16-BIT INS]
     329                    ;* --------------------------------------------------------------------------*
     330 00000078           ||$C$L5||:    
TI ARM Assembler PC v16.9.6 Sun Dec 02 13:28:42 2018

Tools Copyright (c) 1996-2017 Texas Instruments Incorporated
heap.asm                                                             PAGE    7

     331                            .dwpsn  file "../heap.c",line 98,column 1,is_stmt,isa 1
     332                    $C$DW$16        .dwtag  DW_TAG_TI_branch
     333                            .dwattr $C$DW$16, DW_AT_low_pc(0x00)
     334                            .dwattr $C$DW$16, DW_AT_TI_return
     335                    
     336 00000078 BD0E              POP       {A2, A3, A4, PC}      ; [DPU_3_PIPE]  ; [ORIG 16-BIT INS]
     337                            .dwcfi  cfa_offset, 0
     338                            .dwcfi  restore_reg, 3
     339                            .dwcfi  restore_reg, 2
     340                            .dwcfi  restore_reg, 1
     341                            ; BRANCH OCCURS                  ; [] 
     342                            .dwattr $C$DW$6, DW_AT_TI_end_file("../heap.c")
     343                            .dwattr $C$DW$6, DW_AT_TI_end_line(0x62)
     344                            .dwattr $C$DW$6, DW_AT_TI_end_column(0x01)
     345                            .dwendentry
     346                            .dwendtag $C$DW$6
     347                    
     348 0000007a                   .sect   ".text"
     349                            .clink
     350                            .thumbfunc Heap_Calloc
     351 0000007a                   .thumb
     352                            .global Heap_Calloc
     353                    
     354                    $C$DW$17        .dwtag  DW_TAG_subprogram
     355                            .dwattr $C$DW$17, DW_AT_name("Heap_Calloc")
     356                            .dwattr $C$DW$17, DW_AT_low_pc(Heap_Calloc)
     357                            .dwattr $C$DW$17, DW_AT_high_pc(0x00)
     358                            .dwattr $C$DW$17, DW_AT_TI_symbol_name("Heap_Calloc")
     359                            .dwattr $C$DW$17, DW_AT_external
     360                            .dwattr $C$DW$17, DW_AT_type(*$C$DW$T$3)
     361                            .dwattr $C$DW$17, DW_AT_TI_begin_file("../heap.c")
     362                            .dwattr $C$DW$17, DW_AT_TI_begin_line(0x6c)
     363                            .dwattr $C$DW$17, DW_AT_TI_begin_column(0x07)
     364                            .dwattr $C$DW$17, DW_AT_decl_file("../heap.c")
     365                            .dwattr $C$DW$17, DW_AT_decl_line(0x6c)
     366                            .dwattr $C$DW$17, DW_AT_decl_column(0x07)
     367                            .dwattr $C$DW$17, DW_AT_TI_max_frame_size(0x18)
     368                            .dwpsn  file "../heap.c",line 108,column 40,is_stmt,address Heap_Calloc,isa 1
     369                    
     370                            .dwfde $C$DW$CIE, Heap_Calloc
     371                    $C$DW$18        .dwtag  DW_TAG_formal_parameter
     372                            .dwattr $C$DW$18, DW_AT_name("desiredBytes")
     373                            .dwattr $C$DW$18, DW_AT_TI_symbol_name("desiredBytes")
     374                            .dwattr $C$DW$18, DW_AT_type(*$C$DW$T$19)
     375                            .dwattr $C$DW$18, DW_AT_location[DW_OP_reg0]
     376                    
     377                    
     378                    ;*****************************************************************************
     379                    ;* FUNCTION NAME: Heap_Calloc                                                *
     380                    ;*                                                                           *
     381                    ;*   Regs Modified     : A1,A2,A3,A4,V9,SP,LR,SR,D0,D0_hi,D1,D1_hi,D2,D2_hi, *
     382                    ;*                           D3,D3_hi,D4,D4_hi,D5,D5_hi,D6,D6_hi,D7,D7_hi,   *
     383                    ;*                           FPEXC,FPSCR                                     *
     384                    ;*   Regs Used         : A1,A2,A3,A4,V9,SP,LR,SR,D0,D0_hi,D1,D1_hi,D2,D2_hi, *
     385                    ;*                           D3,D3_hi,D4,D4_hi,D5,D5_hi,D6,D6_hi,D7,D7_hi,   *
TI ARM Assembler PC v16.9.6 Sun Dec 02 13:28:42 2018

Tools Copyright (c) 1996-2017 Texas Instruments Incorporated
heap.asm                                                             PAGE    8

     386                    ;*                           FPEXC,FPSCR                                     *
     387                    ;*   Local Frame Size  : 0 Args + 16 Auto + 4 Save = 20 byte                 *
     388                    ;*****************************************************************************
     389 0000007a           Heap_Calloc:
     390                    ;* --------------------------------------------------------------------------*
     391                            .dwcfi  cfa_offset, 0
     392 0000007a B500              PUSH      {LR}                  ; [DPU_3_PIPE]  ; [ORIG 16-BIT INS]
     393                            .dwcfi  cfa_offset, 4
     394                            .dwcfi  save_reg_to_mem, 14, -4
     395 0000007c 0D14F1AD          SUB       SP, SP, #20           ; [DPU_3_PIPE]  ; [KEEP 32-BIT INS]
     396                            .dwcfi  cfa_offset, 24
     397                    $C$DW$19        .dwtag  DW_TAG_variable
     398                            .dwattr $C$DW$19, DW_AT_name("desiredBytes")
     399                            .dwattr $C$DW$19, DW_AT_TI_symbol_name("desiredBytes")
     400                            .dwattr $C$DW$19, DW_AT_type(*$C$DW$T$19)
     401                            .dwattr $C$DW$19, DW_AT_location[DW_OP_breg13 0]
     402                    
     403                    $C$DW$20        .dwtag  DW_TAG_variable
     404                            .dwattr $C$DW$20, DW_AT_name("blockPtr")
     405                            .dwattr $C$DW$20, DW_AT_TI_symbol_name("blockPtr")
     406                            .dwattr $C$DW$20, DW_AT_type(*$C$DW$T$24)
     407                            .dwattr $C$DW$20, DW_AT_location[DW_OP_breg13 4]
     408                    
     409                    $C$DW$21        .dwtag  DW_TAG_variable
     410                            .dwattr $C$DW$21, DW_AT_name("wordsToClear")
     411                            .dwattr $C$DW$21, DW_AT_TI_symbol_name("wordsToClear")
     412                            .dwattr $C$DW$21, DW_AT_type(*$C$DW$T$19)
     413                            .dwattr $C$DW$21, DW_AT_location[DW_OP_breg13 8]
     414                    
     415                    $C$DW$22        .dwtag  DW_TAG_variable
     416                            .dwattr $C$DW$22, DW_AT_name("i")
     417                            .dwattr $C$DW$22, DW_AT_TI_symbol_name("i")
     418                            .dwattr $C$DW$22, DW_AT_type(*$C$DW$T$19)
     419                            .dwattr $C$DW$22, DW_AT_location[DW_OP_breg13 12]
     420                    
     421                    ;----------------------------------------------------------------------
     422                    ; 108 | void* Heap_Calloc(int32_t desiredBytes){                               
     423                    ; 109 | int32_t* blockPtr;                                                     
     424                    ; 110 | int32_t wordsToClear;                                                  
     425                    ; 111 | int32_t i;                                                             
     426                    ; 113 | //malloc a block                                                       
     427                    ;----------------------------------------------------------------------
     428 00000080 9000              STR       A1, [SP, #0]          ; [DPU_3_PIPE] |108|  ; [ORIG 16-BIT INS]
     429                            .dwpsn  file "../heap.c",line 114,column 3,is_stmt,isa 1
     430                    ;----------------------------------------------------------------------
     431                    ; 114 | blockPtr = Heap_Malloc(desiredBytes);                                  
     432                    ; 115 | //did malloc fail?                                                     
     433                    ;----------------------------------------------------------------------
     434 00000082 9800              LDR       A1, [SP, #0]          ; [DPU_3_PIPE] |114|  ; [ORIG 16-BIT INS]
     435                    $C$DW$23        .dwtag  DW_TAG_TI_branch
     436                            .dwattr $C$DW$23, DW_AT_low_pc(0x00)
     437                            .dwattr $C$DW$23, DW_AT_name("Heap_Malloc")
     438                            .dwattr $C$DW$23, DW_AT_TI_call
     439                    
     440 00000084 FFFEF7FF!         BL        Heap_Malloc           ; [DPU_3_PIPE] |114|  ; [KEEP 32-BIT INS]
TI ARM Assembler PC v16.9.6 Sun Dec 02 13:28:42 2018

Tools Copyright (c) 1996-2017 Texas Instruments Incorporated
heap.asm                                                             PAGE    9

     441                            ; CALL OCCURS {Heap_Malloc }     ; [] |114| 
     442 00000088 9001              STR       A1, [SP, #4]          ; [DPU_3_PIPE] |114|  ; [ORIG 16-BIT INS]
     443                            .dwpsn  file "../heap.c",line 116,column 3,is_stmt,isa 1
     444                    ;----------------------------------------------------------------------
     445                    ; 116 | if(blockPtr == 0){                                                     
     446                    ;----------------------------------------------------------------------
     447 0000008a 9801              LDR       A1, [SP, #4]          ; [DPU_3_PIPE] |116|  ; [ORIG 16-BIT INS]
     448 0000008c B908              CBNZ      A1, ||$C$L6||         ; []  ; [ORIG 16-BIT INS]
     449                            ; BRANCHCC OCCURS {||$C$L6||}    ; [] |116| 
     450                    ;* --------------------------------------------------------------------------*
     451                            .dwpsn  file "../heap.c",line 117,column 5,is_stmt,isa 1
     452                    ;----------------------------------------------------------------------
     453                    ; 117 | return 0; //NULL                                                       
     454                    ;----------------------------------------------------------------------
     455 0000008e 2000              MOVS      A1, #0                ; [DPU_3_PIPE] |117|  ; [ORIG 16-BIT INS]
     456 00000090 E016              B         ||$C$L9||             ; [DPU_3_PIPE] |117|  ; [ORIG 16-BIT INS]
     457                            ; BRANCH OCCURS {||$C$L9||}      ; [] |117| 
     458                    ;* --------------------------------------------------------------------------*
     459 00000092           ||$C$L6||:    
     460                            .dwpsn  file "../heap.c",line 119,column 3,is_stmt,isa 1
     461                    ;----------------------------------------------------------------------
     462                    ; 119 | wordsToClear = *(blockPtr - 1); //get room from header                 
     463                    ; 120 | //clear out block                                                      
     464                    ;----------------------------------------------------------------------
     465 00000092 9801              LDR       A1, [SP, #4]          ; [DPU_3_PIPE] |119|  ; [ORIG 16-BIT INS]
     466 00000094 0C04F850          LDR       A1, [A1, #-4]         ; [DPU_3_PIPE] |119|  ; [KEEP 32-BIT INS]
     467 00000098 9002              STR       A1, [SP, #8]          ; [DPU_3_PIPE] |119|  ; [ORIG 16-BIT INS]
     468                            .dwpsn  file "../heap.c",line 121,column 7,is_stmt,isa 1
     469                    ;----------------------------------------------------------------------
     470                    ; 121 | for(i = 0; i < wordsToClear; i++){                                     
     471                    ;----------------------------------------------------------------------
     472 0000009a 2000              MOVS      A1, #0                ; [DPU_3_PIPE] |121|  ; [ORIG 16-BIT INS]
     473 0000009c 9003              STR       A1, [SP, #12]         ; [DPU_3_PIPE] |121|  ; [ORIG 16-BIT INS]
     474                            .dwpsn  file "../heap.c",line 121,column 14,is_stmt,isa 1
     475 0000009e 9903              LDR       A2, [SP, #12]         ; [DPU_3_PIPE] |121|  ; [ORIG 16-BIT INS]
     476 000000a0 9802              LDR       A1, [SP, #8]          ; [DPU_3_PIPE] |121|  ; [ORIG 16-BIT INS]
     477 000000a2 4288              CMP       A1, A2                ; [DPU_3_PIPE] |121|  ; [ORIG 16-BIT INS]
     478 000000a4 DD0B              BLE       ||$C$L8||             ; [DPU_3_PIPE] |121|  ; [ORIG 16-BIT INS]
     479                            ; BRANCHCC OCCURS {||$C$L8||}    ; [] |121| 
     480                    ;* --------------------------------------------------------------------------*
     481                    ;*   BEGIN LOOP ||$C$L7||
     482                    ;*
     483                    ;*   Loop source line                : 121
     484                    ;*   Loop closing brace source line  : 123
     485                    ;*   Known Minimum Trip Count        : 1
     486                    ;*   Known Maximum Trip Count        : 4294967295
     487                    ;*   Known Max Trip Count Factor     : 1
     488                    ;* --------------------------------------------------------------------------*
     489 000000a6           ||$C$L7||:    
     490                            .dwpsn  file "../heap.c",line 122,column 5,is_stmt,isa 1
     491                    ;----------------------------------------------------------------------
     492                    ; 122 | blockPtr[i] = 0;                                                       
     493                    ;----------------------------------------------------------------------
     494 000000a6 9903              LDR       A2, [SP, #12]         ; [DPU_3_PIPE] |122|  ; [ORIG 16-BIT INS]
     495 000000a8 9A01              LDR       A3, [SP, #4]          ; [DPU_3_PIPE] |122|  ; [ORIG 16-BIT INS]
TI ARM Assembler PC v16.9.6 Sun Dec 02 13:28:42 2018

Tools Copyright (c) 1996-2017 Texas Instruments Incorporated
heap.asm                                                             PAGE   10

     496 000000aa 2000              MOVS      A1, #0                ; [DPU_3_PIPE] |122|  ; [ORIG 16-BIT INS]
     497 000000ac 0021F842          STR       A1, [A3, +A2, LSL #2] ; [DPU_3_PIPE] |122|  ; [KEEP 32-BIT INS]
     498                            .dwpsn  file "../heap.c",line 121,column 32,is_stmt,isa 1
     499 000000b0 9803              LDR       A1, [SP, #12]         ; [DPU_3_PIPE] |121|  ; [ORIG 16-BIT INS]
     500 000000b2 1C40              ADDS      A1, A1, #1            ; [DPU_3_PIPE] |121|  ; [ORIG 16-BIT INS]
     501 000000b4 9003              STR       A1, [SP, #12]         ; [DPU_3_PIPE] |121|  ; [ORIG 16-BIT INS]
     502                            .dwpsn  file "../heap.c",line 121,column 14,is_stmt,isa 1
     503 000000b6 9802              LDR       A1, [SP, #8]          ; [DPU_3_PIPE] |121|  ; [ORIG 16-BIT INS]
     504 000000b8 9903              LDR       A2, [SP, #12]         ; [DPU_3_PIPE] |121|  ; [ORIG 16-BIT INS]
     505 000000ba 4288              CMP       A1, A2                ; [DPU_3_PIPE] |121|  ; [ORIG 16-BIT INS]
     506 000000bc DCF3              BGT       ||$C$L7||             ; [DPU_3_PIPE] |121|  ; [ORIG 16-BIT INS]
     507                            ; BRANCHCC OCCURS {||$C$L7||}    ; [] |121| 
     508                    ;* --------------------------------------------------------------------------*
     509 000000be           ||$C$L8||:    
     510                            .dwpsn  file "../heap.c",line 124,column 3,is_stmt,isa 1
     511                    ;----------------------------------------------------------------------
     512                    ; 124 | return blockPtr;                                                       
     513                    ;----------------------------------------------------------------------
     514 000000be 9801              LDR       A1, [SP, #4]          ; [DPU_3_PIPE] |124|  ; [ORIG 16-BIT INS]
     515                    ;* --------------------------------------------------------------------------*
     516 000000c0           ||$C$L9||:    
     517                            .dwpsn  file "../heap.c",line 125,column 1,is_stmt,isa 1
     518 000000c0 B005              ADD       SP, SP, #20           ; [DPU_3_PIPE]  ; [ORIG 16-BIT INS]
     519                            .dwcfi  cfa_offset, 4
     520                    $C$DW$24        .dwtag  DW_TAG_TI_branch
     521                            .dwattr $C$DW$24, DW_AT_low_pc(0x00)
     522                            .dwattr $C$DW$24, DW_AT_TI_return
     523                    
     524 000000c2 BD00              POP       {PC}                  ; [DPU_3_PIPE]  ; [ORIG 16-BIT INS]
     525                            .dwcfi  cfa_offset, 0
     526                            ; BRANCH OCCURS                  ; [] 
     527                            .dwattr $C$DW$17, DW_AT_TI_end_file("../heap.c")
     528                            .dwattr $C$DW$17, DW_AT_TI_end_line(0x7d)
     529                            .dwattr $C$DW$17, DW_AT_TI_end_column(0x01)
     530                            .dwendentry
     531                            .dwendtag $C$DW$17
     532                    
     533 000000c4                   .sect   ".text"
     534                            .clink
     535                            .thumbfunc Heap_Realloc
     536 000000c4                   .thumb
     537                            .global Heap_Realloc
     538                    
     539                    $C$DW$25        .dwtag  DW_TAG_subprogram
     540                            .dwattr $C$DW$25, DW_AT_name("Heap_Realloc")
     541                            .dwattr $C$DW$25, DW_AT_low_pc(Heap_Realloc)
     542                            .dwattr $C$DW$25, DW_AT_high_pc(0x00)
     543                            .dwattr $C$DW$25, DW_AT_TI_symbol_name("Heap_Realloc")
     544                            .dwattr $C$DW$25, DW_AT_external
     545                            .dwattr $C$DW$25, DW_AT_type(*$C$DW$T$3)
     546                            .dwattr $C$DW$25, DW_AT_TI_begin_file("../heap.c")
     547                            .dwattr $C$DW$25, DW_AT_TI_begin_line(0x8a)
     548                            .dwattr $C$DW$25, DW_AT_TI_begin_column(0x07)
     549                            .dwattr $C$DW$25, DW_AT_decl_file("../heap.c")
     550                            .dwattr $C$DW$25, DW_AT_decl_line(0x8a)
TI ARM Assembler PC v16.9.6 Sun Dec 02 13:28:42 2018

Tools Copyright (c) 1996-2017 Texas Instruments Incorporated
heap.asm                                                             PAGE   11

     551                            .dwattr $C$DW$25, DW_AT_decl_column(0x07)
     552                            .dwattr $C$DW$25, DW_AT_TI_max_frame_size(0x28)
     553                            .dwpsn  file "../heap.c",line 138,column 57,is_stmt,address Heap_Realloc,isa 1
     554                    
     555                            .dwfde $C$DW$CIE, Heap_Realloc
     556                    $C$DW$26        .dwtag  DW_TAG_formal_parameter
     557                            .dwattr $C$DW$26, DW_AT_name("oldBlock")
     558                            .dwattr $C$DW$26, DW_AT_TI_symbol_name("oldBlock")
     559                            .dwattr $C$DW$26, DW_AT_type(*$C$DW$T$3)
     560                            .dwattr $C$DW$26, DW_AT_location[DW_OP_reg0]
     561                    
     562                    $C$DW$27        .dwtag  DW_TAG_formal_parameter
     563                            .dwattr $C$DW$27, DW_AT_name("desiredBytes")
     564                            .dwattr $C$DW$27, DW_AT_TI_symbol_name("desiredBytes")
     565                            .dwattr $C$DW$27, DW_AT_type(*$C$DW$T$19)
     566                            .dwattr $C$DW$27, DW_AT_location[DW_OP_reg1]
     567                    
     568                    
     569                    ;*****************************************************************************
     570                    ;* FUNCTION NAME: Heap_Realloc                                               *
     571                    ;*                                                                           *
     572                    ;*   Regs Modified     : A1,A2,A3,A4,V9,SP,LR,SR,D0,D0_hi,D1,D1_hi,D2,D2_hi, *
     573                    ;*                           D3,D3_hi,D4,D4_hi,D5,D5_hi,D6,D6_hi,D7,D7_hi,   *
     574                    ;*                           FPEXC,FPSCR                                     *
     575                    ;*   Regs Used         : A1,A2,A3,A4,V9,SP,LR,SR,D0,D0_hi,D1,D1_hi,D2,D2_hi, *
     576                    ;*                           D3,D3_hi,D4,D4_hi,D5,D5_hi,D6,D6_hi,D7,D7_hi,   *
     577                    ;*                           FPEXC,FPSCR                                     *
     578                    ;*   Local Frame Size  : 0 Args + 36 Auto + 4 Save = 40 byte                 *
     579                    ;*****************************************************************************
     580 000000c4           Heap_Realloc:
     581                    ;* --------------------------------------------------------------------------*
     582                            .dwcfi  cfa_offset, 0
     583 000000c4 B500              PUSH      {LR}                  ; [DPU_3_PIPE]  ; [ORIG 16-BIT INS]
     584                            .dwcfi  cfa_offset, 4
     585                            .dwcfi  save_reg_to_mem, 14, -4
     586 000000c6 0D24F1AD          SUB       SP, SP, #36           ; [DPU_3_PIPE]  ; [KEEP 32-BIT INS]
     587                            .dwcfi  cfa_offset, 40
     588                    $C$DW$28        .dwtag  DW_TAG_variable
     589                            .dwattr $C$DW$28, DW_AT_name("oldBlock")
     590                            .dwattr $C$DW$28, DW_AT_TI_symbol_name("oldBlock")
     591                            .dwattr $C$DW$28, DW_AT_type(*$C$DW$T$3)
     592                            .dwattr $C$DW$28, DW_AT_location[DW_OP_breg13 0]
     593                    
     594                    $C$DW$29        .dwtag  DW_TAG_variable
     595                            .dwattr $C$DW$29, DW_AT_name("desiredBytes")
     596                            .dwattr $C$DW$29, DW_AT_TI_symbol_name("desiredBytes")
     597                            .dwattr $C$DW$29, DW_AT_type(*$C$DW$T$19)
     598                            .dwattr $C$DW$29, DW_AT_location[DW_OP_breg13 4]
     599                    
     600                    $C$DW$30        .dwtag  DW_TAG_variable
     601                            .dwattr $C$DW$30, DW_AT_name("oldBlockPtr")
     602                            .dwattr $C$DW$30, DW_AT_TI_symbol_name("oldBlockPtr")
     603                            .dwattr $C$DW$30, DW_AT_type(*$C$DW$T$24)
     604                            .dwattr $C$DW$30, DW_AT_location[DW_OP_breg13 8]
     605                    
TI ARM Assembler PC v16.9.6 Sun Dec 02 13:28:42 2018

Tools Copyright (c) 1996-2017 Texas Instruments Incorporated
heap.asm                                                             PAGE   12

     606                    $C$DW$31        .dwtag  DW_TAG_variable
     607                            .dwattr $C$DW$31, DW_AT_name("oldBlockStart")
     608                            .dwattr $C$DW$31, DW_AT_TI_symbol_name("oldBlockStart")
     609                            .dwattr $C$DW$31, DW_AT_type(*$C$DW$T$24)
     610                            .dwattr $C$DW$31, DW_AT_location[DW_OP_breg13 12]
     611                    
     612                    $C$DW$32        .dwtag  DW_TAG_variable
     613                            .dwattr $C$DW$32, DW_AT_name("newBlockPtr")
     614                            .dwattr $C$DW$32, DW_AT_TI_symbol_name("newBlockPtr")
     615                            .dwattr $C$DW$32, DW_AT_type(*$C$DW$T$24)
     616                            .dwattr $C$DW$32, DW_AT_location[DW_OP_breg13 16]
     617                    
     618                    $C$DW$33        .dwtag  DW_TAG_variable
     619                            .dwattr $C$DW$33, DW_AT_name("oldBlockRoom")
     620                            .dwattr $C$DW$33, DW_AT_TI_symbol_name("oldBlockRoom")
     621                            .dwattr $C$DW$33, DW_AT_type(*$C$DW$T$19)
     622                            .dwattr $C$DW$33, DW_AT_location[DW_OP_breg13 20]
     623                    
     624                    $C$DW$34        .dwtag  DW_TAG_variable
     625                            .dwattr $C$DW$34, DW_AT_name("newBlockRoom")
     626                            .dwattr $C$DW$34, DW_AT_TI_symbol_name("newBlockRoom")
     627                            .dwattr $C$DW$34, DW_AT_type(*$C$DW$T$19)
     628                            .dwattr $C$DW$34, DW_AT_location[DW_OP_breg13 24]
     629                    
     630                    $C$DW$35        .dwtag  DW_TAG_variable
     631                            .dwattr $C$DW$35, DW_AT_name("wordsToCopy")
     632                            .dwattr $C$DW$35, DW_AT_TI_symbol_name("wordsToCopy")
     633                            .dwattr $C$DW$35, DW_AT_type(*$C$DW$T$19)
     634                            .dwattr $C$DW$35, DW_AT_location[DW_OP_breg13 28]
     635                    
     636                    $C$DW$36        .dwtag  DW_TAG_variable
     637                            .dwattr $C$DW$36, DW_AT_name("i")
     638                            .dwattr $C$DW$36, DW_AT_TI_symbol_name("i")
     639                            .dwattr $C$DW$36, DW_AT_type(*$C$DW$T$19)
     640                            .dwattr $C$DW$36, DW_AT_location[DW_OP_breg13 32]
     641                    
     642                    ;----------------------------------------------------------------------
     643                    ; 138 | void* Heap_Realloc(void* oldBlock, int32_t desiredBytes){              
     644                    ; 139 | int32_t* oldBlockPtr;                                                  
     645                    ; 140 | int32_t* oldBlockStart;                                                
     646                    ; 141 | int32_t* newBlockPtr;                                                  
     647                    ; 142 | int32_t oldBlockRoom;                                                  
     648                    ; 143 | int32_t newBlockRoom;                                                  
     649                    ; 144 | int32_t wordsToCopy;                                                   
     650                    ; 145 | int32_t i;                                                             
     651                    ;----------------------------------------------------------------------
     652 000000ca 9101              STR       A2, [SP, #4]          ; [DPU_3_PIPE] |138|  ; [ORIG 16-BIT INS]
     653 000000cc 9000              STR       A1, [SP, #0]          ; [DPU_3_PIPE] |138|  ; [ORIG 16-BIT INS]
     654                            .dwpsn  file "../heap.c",line 147,column 3,is_stmt,isa 1
     655                    ;----------------------------------------------------------------------
     656                    ; 147 | oldBlockPtr = (int32_t*) oldBlock;                                     
     657                    ; 148 | // error if...                                                         
     658                    ; 149 | // 1) oldBlockPtr doesn't point in the heap                            
     659                    ; 150 | // 2) oldBlockPtr points to an unused block                            
     660                    ;----------------------------------------------------------------------
TI ARM Assembler PC v16.9.6 Sun Dec 02 13:28:42 2018

Tools Copyright (c) 1996-2017 Texas Instruments Incorporated
heap.asm                                                             PAGE   13

     661 000000ce 9800              LDR       A1, [SP, #0]          ; [DPU_3_PIPE] |147|  ; [ORIG 16-BIT INS]
     662 000000d0 9002              STR       A1, [SP, #8]          ; [DPU_3_PIPE] |147|  ; [ORIG 16-BIT INS]
     663                            .dwpsn  file "../heap.c",line 151,column 3,is_stmt,isa 1
     664                    ;----------------------------------------------------------------------
     665                    ; 151 | oldBlockStart = oldBlockPtr - 1;                                       
     666                    ;----------------------------------------------------------------------
     667 000000d2 9802              LDR       A1, [SP, #8]          ; [DPU_3_PIPE] |151|  ; [ORIG 16-BIT INS]
     668 000000d4 1F00              SUBS      A1, A1, #4            ; [DPU_3_PIPE] |151|  ; [ORIG 16-BIT INS]
     669 000000d6 9003              STR       A1, [SP, #12]         ; [DPU_3_PIPE] |151|  ; [ORIG 16-BIT INS]
     670                            .dwpsn  file "../heap.c",line 152,column 3,is_stmt,isa 1
     671                    ;----------------------------------------------------------------------
     672                    ; 152 | if(!inHeapRange(oldBlockStart) || blockUnused(oldBlockStart)){         
     673                    ;----------------------------------------------------------------------
     674 000000d8 9803              LDR       A1, [SP, #12]         ; [DPU_3_PIPE] |152|  ; [ORIG 16-BIT INS]
     675                    $C$DW$37        .dwtag  DW_TAG_TI_branch
     676                            .dwattr $C$DW$37, DW_AT_low_pc(0x00)
     677                            .dwattr $C$DW$37, DW_AT_name("inHeapRange")
     678                            .dwattr $C$DW$37, DW_AT_TI_call
     679                    
     680 000000da FFFEF7FF!         BL        inHeapRange           ; [DPU_3_PIPE] |152|  ; [KEEP 32-BIT INS]
     681                            ; CALL OCCURS {inHeapRange }     ; [] |152| 
     682 000000de B118              CBZ       A1, ||$C$L10||        ; []  ; [ORIG 16-BIT INS]
     683                            ; BRANCHCC OCCURS {||$C$L10||}   ; [] |152| 
     684                    ;* --------------------------------------------------------------------------*
     685 000000e0 9803              LDR       A1, [SP, #12]         ; [DPU_3_PIPE] |152|  ; [ORIG 16-BIT INS]
     686                    $C$DW$38        .dwtag  DW_TAG_TI_branch
     687                            .dwattr $C$DW$38, DW_AT_low_pc(0x00)
     688                            .dwattr $C$DW$38, DW_AT_name("blockUnused")
     689                            .dwattr $C$DW$38, DW_AT_TI_call
     690                    
     691 000000e2 FFFEF7FF!         BL        blockUnused           ; [DPU_3_PIPE] |152|  ; [KEEP 32-BIT INS]
     692                            ; CALL OCCURS {blockUnused }     ; [] |152| 
     693 000000e6 B108              CBZ       A1, ||$C$L11||        ; []  ; [ORIG 16-BIT INS]
     694                            ; BRANCHCC OCCURS {||$C$L11||}   ; [] |152| 
     695                    ;* --------------------------------------------------------------------------*
     696 000000e8           ||$C$L10||:    
     697                            .dwpsn  file "../heap.c",line 153,column 5,is_stmt,isa 1
     698                    ;----------------------------------------------------------------------
     699                    ; 153 | return 0; // NULL                                                      
     700                    ;----------------------------------------------------------------------
     701 000000e8 2000              MOVS      A1, #0                ; [DPU_3_PIPE] |153|  ; [ORIG 16-BIT INS]
     702 000000ea E035              B         ||$C$L18||            ; [DPU_3_PIPE] |153|  ; [ORIG 16-BIT INS]
     703                            ; BRANCH OCCURS {||$C$L18||}     ; [] |153| 
     704                    ;* --------------------------------------------------------------------------*
     705 000000ec           ||$C$L11||:    
     706                            .dwpsn  file "../heap.c",line 156,column 3,is_stmt,isa 1
     707                    ;----------------------------------------------------------------------
     708                    ; 156 | newBlockPtr = Heap_Malloc(desiredBytes);                               
     709                    ; 157 | // did Malloc fail?                                                    
     710                    ;----------------------------------------------------------------------
     711 000000ec 9801              LDR       A1, [SP, #4]          ; [DPU_3_PIPE] |156|  ; [ORIG 16-BIT INS]
     712                    $C$DW$39        .dwtag  DW_TAG_TI_branch
     713                            .dwattr $C$DW$39, DW_AT_low_pc(0x00)
     714                            .dwattr $C$DW$39, DW_AT_name("Heap_Malloc")
     715                            .dwattr $C$DW$39, DW_AT_TI_call
TI ARM Assembler PC v16.9.6 Sun Dec 02 13:28:42 2018

Tools Copyright (c) 1996-2017 Texas Instruments Incorporated
heap.asm                                                             PAGE   14

     716                    
     717 000000ee FFFEF7FF!         BL        Heap_Malloc           ; [DPU_3_PIPE] |156|  ; [KEEP 32-BIT INS]
     718                            ; CALL OCCURS {Heap_Malloc }     ; [] |156| 
     719 000000f2 9004              STR       A1, [SP, #16]         ; [DPU_3_PIPE] |156|  ; [ORIG 16-BIT INS]
     720                            .dwpsn  file "../heap.c",line 158,column 3,is_stmt,isa 1
     721                    ;----------------------------------------------------------------------
     722                    ; 158 | if(newBlockPtr == 0){                                                  
     723                    ;----------------------------------------------------------------------
     724 000000f4 9804              LDR       A1, [SP, #16]         ; [DPU_3_PIPE] |158|  ; [ORIG 16-BIT INS]
     725 000000f6 B908              CBNZ      A1, ||$C$L12||        ; []  ; [ORIG 16-BIT INS]
     726                            ; BRANCHCC OCCURS {||$C$L12||}   ; [] |158| 
     727                    ;* --------------------------------------------------------------------------*
     728                            .dwpsn  file "../heap.c",line 159,column 5,is_stmt,isa 1
     729                    ;----------------------------------------------------------------------
     730                    ; 159 | return 0; // NULL                                                      
     731                    ;----------------------------------------------------------------------
     732 000000f8 2000              MOVS      A1, #0                ; [DPU_3_PIPE] |159|  ; [ORIG 16-BIT INS]
     733 000000fa E02D              B         ||$C$L18||            ; [DPU_3_PIPE] |159|  ; [ORIG 16-BIT INS]
     734                            ; BRANCH OCCURS {||$C$L18||}     ; [] |159| 
     735                    ;* --------------------------------------------------------------------------*
     736 000000fc           ||$C$L12||:    
     737                            .dwpsn  file "../heap.c",line 162,column 3,is_stmt,isa 1
     738                    ;----------------------------------------------------------------------
     739                    ; 162 | oldBlockRoom = blockRoom(oldBlockStart);                               
     740                    ;----------------------------------------------------------------------
     741 000000fc 9803              LDR       A1, [SP, #12]         ; [DPU_3_PIPE] |162|  ; [ORIG 16-BIT INS]
     742                    $C$DW$40        .dwtag  DW_TAG_TI_branch
     743                            .dwattr $C$DW$40, DW_AT_low_pc(0x00)
     744                            .dwattr $C$DW$40, DW_AT_name("blockRoom")
     745                            .dwattr $C$DW$40, DW_AT_TI_call
     746                    
     747 000000fe FFFEF7FF!         BL        blockRoom             ; [DPU_3_PIPE] |162|  ; [KEEP 32-BIT INS]
     748                            ; CALL OCCURS {blockRoom }       ; [] |162| 
     749 00000102 9005              STR       A1, [SP, #20]         ; [DPU_3_PIPE] |162|  ; [ORIG 16-BIT INS]
     750                            .dwpsn  file "../heap.c",line 163,column 3,is_stmt,isa 1
     751                    ;----------------------------------------------------------------------
     752                    ; 163 | newBlockRoom = blockRoom(newBlockPtr - 1);                             
     753                    ;----------------------------------------------------------------------
     754 00000104 9804              LDR       A1, [SP, #16]         ; [DPU_3_PIPE] |163|  ; [ORIG 16-BIT INS]
     755 00000106 1F00              SUBS      A1, A1, #4            ; [DPU_3_PIPE] |163|  ; [ORIG 16-BIT INS]
     756                    $C$DW$41        .dwtag  DW_TAG_TI_branch
     757                            .dwattr $C$DW$41, DW_AT_low_pc(0x00)
     758                            .dwattr $C$DW$41, DW_AT_name("blockRoom")
     759                            .dwattr $C$DW$41, DW_AT_TI_call
     760                    
     761 00000108 FFFEF7FF!         BL        blockRoom             ; [DPU_3_PIPE] |163|  ; [KEEP 32-BIT INS]
     762                            ; CALL OCCURS {blockRoom }       ; [] |163| 
     763 0000010c 9006              STR       A1, [SP, #24]         ; [DPU_3_PIPE] |163|  ; [ORIG 16-BIT INS]
     764                            .dwpsn  file "../heap.c",line 164,column 3,is_stmt,isa 1
     765                    ;----------------------------------------------------------------------
     766                    ; 164 | if(oldBlockRoom < newBlockRoom){                                       
     767                    ;----------------------------------------------------------------------
     768 0000010e 9905              LDR       A2, [SP, #20]         ; [DPU_3_PIPE] |164|  ; [ORIG 16-BIT INS]
     769 00000110 9806              LDR       A1, [SP, #24]         ; [DPU_3_PIPE] |164|  ; [ORIG 16-BIT INS]
     770 00000112 4288              CMP       A1, A2                ; [DPU_3_PIPE] |164|  ; [ORIG 16-BIT INS]
TI ARM Assembler PC v16.9.6 Sun Dec 02 13:28:42 2018

Tools Copyright (c) 1996-2017 Texas Instruments Incorporated
heap.asm                                                             PAGE   15

     771 00000114 DD02              BLE       ||$C$L13||            ; [DPU_3_PIPE] |164|  ; [ORIG 16-BIT INS]
     772                            ; BRANCHCC OCCURS {||$C$L13||}   ; [] |164| 
     773                    ;* --------------------------------------------------------------------------*
     774                            .dwpsn  file "../heap.c",line 165,column 5,is_stmt,isa 1
     775                    ;----------------------------------------------------------------------
     776                    ; 165 | wordsToCopy = oldBlockRoom;                                            
     777                    ;----------------------------------------------------------------------
     778 00000116 9805              LDR       A1, [SP, #20]         ; [DPU_3_PIPE] |165|  ; [ORIG 16-BIT INS]
     779 00000118 9007              STR       A1, [SP, #28]         ; [DPU_3_PIPE] |165|  ; [ORIG 16-BIT INS]
     780                            .dwpsn  file "../heap.c",line 166,column 3,is_stmt,isa 1
     781                    ;----------------------------------------------------------------------
     782                    ; 167 | else{                                                                  
     783                    ;----------------------------------------------------------------------
     784 0000011a E001              B         ||$C$L14||            ; [DPU_3_PIPE] |166|  ; [ORIG 16-BIT INS]
     785                            ; BRANCH OCCURS {||$C$L14||}     ; [] |166| 
     786                    ;* --------------------------------------------------------------------------*
     787 0000011c           ||$C$L13||:    
     788                            .dwpsn  file "../heap.c",line 168,column 5,is_stmt,isa 1
     789                    ;----------------------------------------------------------------------
     790                    ; 168 | wordsToCopy = newBlockRoom;                                            
     791                    ;----------------------------------------------------------------------
     792 0000011c 9806              LDR       A1, [SP, #24]         ; [DPU_3_PIPE] |168|  ; [ORIG 16-BIT INS]
     793 0000011e 9007              STR       A1, [SP, #28]         ; [DPU_3_PIPE] |168|  ; [ORIG 16-BIT INS]
     794                    ;* --------------------------------------------------------------------------*
     795 00000120           ||$C$L14||:    
     796                            .dwpsn  file "../heap.c",line 170,column 7,is_stmt,isa 1
     797                    ;----------------------------------------------------------------------
     798                    ; 170 | for(i = 0; i < wordsToCopy; i++){                                      
     799                    ;----------------------------------------------------------------------
     800 00000120 2000              MOVS      A1, #0                ; [DPU_3_PIPE] |170|  ; [ORIG 16-BIT INS]
     801 00000122 9008              STR       A1, [SP, #32]         ; [DPU_3_PIPE] |170|  ; [ORIG 16-BIT INS]
     802                            .dwpsn  file "../heap.c",line 170,column 14,is_stmt,isa 1
     803 00000124 9807              LDR       A1, [SP, #28]         ; [DPU_3_PIPE] |170|  ; [ORIG 16-BIT INS]
     804 00000126 9908              LDR       A2, [SP, #32]         ; [DPU_3_PIPE] |170|  ; [ORIG 16-BIT INS]
     805 00000128 4288              CMP       A1, A2                ; [DPU_3_PIPE] |170|  ; [ORIG 16-BIT INS]
     806 0000012a DD0E              BLE       ||$C$L16||            ; [DPU_3_PIPE] |170|  ; [ORIG 16-BIT INS]
     807                            ; BRANCHCC OCCURS {||$C$L16||}   ; [] |170| 
     808                    ;* --------------------------------------------------------------------------*
     809                    ;*   BEGIN LOOP ||$C$L15||
     810                    ;*
     811                    ;*   Loop source line                : 170
     812                    ;*   Loop closing brace source line  : 172
     813                    ;*   Known Minimum Trip Count        : 1
     814                    ;*   Known Maximum Trip Count        : 4294967295
     815                    ;*   Known Max Trip Count Factor     : 1
     816                    ;* --------------------------------------------------------------------------*
     817 0000012c           ||$C$L15||:    
     818                            .dwpsn  file "../heap.c",line 171,column 5,is_stmt,isa 1
     819                    ;----------------------------------------------------------------------
     820                    ; 171 | newBlockPtr[i] = oldBlockPtr[i];                                       
     821                    ;----------------------------------------------------------------------
     822 0000012c 9808              LDR       A1, [SP, #32]         ; [DPU_3_PIPE] |171|  ; [ORIG 16-BIT INS]
     823 0000012e 9902              LDR       A2, [SP, #8]          ; [DPU_3_PIPE] |171|  ; [ORIG 16-BIT INS]
     824 00000130 9A08              LDR       A3, [SP, #32]         ; [DPU_3_PIPE] |171|  ; [ORIG 16-BIT INS]
     825 00000132 9B04              LDR       A4, [SP, #16]         ; [DPU_3_PIPE] |171|  ; [ORIG 16-BIT INS]
TI ARM Assembler PC v16.9.6 Sun Dec 02 13:28:42 2018

Tools Copyright (c) 1996-2017 Texas Instruments Incorporated
heap.asm                                                             PAGE   16

     826 00000134 0020F851          LDR       A1, [A2, +A1, LSL #2] ; [DPU_3_PIPE] |171|  ; [KEEP 32-BIT INS]
     827 00000138 0022F843          STR       A1, [A4, +A3, LSL #2] ; [DPU_3_PIPE] |171|  ; [KEEP 32-BIT INS]
     828                            .dwpsn  file "../heap.c",line 170,column 31,is_stmt,isa 1
     829 0000013c 9808              LDR       A1, [SP, #32]         ; [DPU_3_PIPE] |170|  ; [ORIG 16-BIT INS]
     830 0000013e 1C40              ADDS      A1, A1, #1            ; [DPU_3_PIPE] |170|  ; [ORIG 16-BIT INS]
     831 00000140 9008              STR       A1, [SP, #32]         ; [DPU_3_PIPE] |170|  ; [ORIG 16-BIT INS]
     832                            .dwpsn  file "../heap.c",line 170,column 14,is_stmt,isa 1
     833 00000142 9807              LDR       A1, [SP, #28]         ; [DPU_3_PIPE] |170|  ; [ORIG 16-BIT INS]
     834 00000144 9908              LDR       A2, [SP, #32]         ; [DPU_3_PIPE] |170|  ; [ORIG 16-BIT INS]
     835 00000146 4288              CMP       A1, A2                ; [DPU_3_PIPE] |170|  ; [ORIG 16-BIT INS]
     836 00000148 DCF0              BGT       ||$C$L15||            ; [DPU_3_PIPE] |170|  ; [ORIG 16-BIT INS]
     837                            ; BRANCHCC OCCURS {||$C$L15||}   ; [] |170| 
     838                    ;* --------------------------------------------------------------------------*
     839 0000014a           ||$C$L16||:    
     840                            .dwpsn  file "../heap.c",line 173,column 3,is_stmt,isa 1
     841                    ;----------------------------------------------------------------------
     842                    ; 173 | if(Heap_Free(oldBlockPtr)){                                            
     843                    ;----------------------------------------------------------------------
     844 0000014a 9802              LDR       A1, [SP, #8]          ; [DPU_3_PIPE] |173|  ; [ORIG 16-BIT INS]
     845                    $C$DW$42        .dwtag  DW_TAG_TI_branch
     846                            .dwattr $C$DW$42, DW_AT_low_pc(0x00)
     847                            .dwattr $C$DW$42, DW_AT_name("Heap_Free")
     848                            .dwattr $C$DW$42, DW_AT_TI_call
     849                    
     850 0000014c FFFEF7FF!         BL        Heap_Free             ; [DPU_3_PIPE] |173|  ; [KEEP 32-BIT INS]
     851                            ; CALL OCCURS {Heap_Free }       ; [] |173| 
     852 00000150 B108              CBZ       A1, ||$C$L17||        ; []  ; [ORIG 16-BIT INS]
     853                            ; BRANCHCC OCCURS {||$C$L17||}   ; [] |173| 
     854                    ;* --------------------------------------------------------------------------*
     855                            .dwpsn  file "../heap.c",line 174,column 5,is_stmt,isa 1
     856                    ;----------------------------------------------------------------------
     857                    ; 174 | return 0; // NULL Free failed                                          
     858                    ;----------------------------------------------------------------------
     859 00000152 2000              MOVS      A1, #0                ; [DPU_3_PIPE] |174|  ; [ORIG 16-BIT INS]
     860 00000154 E000              B         ||$C$L18||            ; [DPU_3_PIPE] |174|  ; [ORIG 16-BIT INS]
     861                            ; BRANCH OCCURS {||$C$L18||}     ; [] |174| 
     862                    ;* --------------------------------------------------------------------------*
     863 00000156           ||$C$L17||:    
     864                            .dwpsn  file "../heap.c",line 176,column 3,is_stmt,isa 1
     865                    ;----------------------------------------------------------------------
     866                    ; 176 | return newBlockPtr;                                                    
     867                    ;----------------------------------------------------------------------
     868 00000156 9804              LDR       A1, [SP, #16]         ; [DPU_3_PIPE] |176|  ; [ORIG 16-BIT INS]
     869                    ;* --------------------------------------------------------------------------*
     870 00000158           ||$C$L18||:    
     871                            .dwpsn  file "../heap.c",line 177,column 1,is_stmt,isa 1
     872 00000158 B009              ADD       SP, SP, #36           ; [DPU_3_PIPE]  ; [ORIG 16-BIT INS]
     873                            .dwcfi  cfa_offset, 4
     874                    $C$DW$43        .dwtag  DW_TAG_TI_branch
     875                            .dwattr $C$DW$43, DW_AT_low_pc(0x00)
     876                            .dwattr $C$DW$43, DW_AT_TI_return
     877                    
     878 0000015a BD00              POP       {PC}                  ; [DPU_3_PIPE]  ; [ORIG 16-BIT INS]
     879                            .dwcfi  cfa_offset, 0
     880                            ; BRANCH OCCURS                  ; [] 
TI ARM Assembler PC v16.9.6 Sun Dec 02 13:28:42 2018

Tools Copyright (c) 1996-2017 Texas Instruments Incorporated
heap.asm                                                             PAGE   17

     881                            .dwattr $C$DW$25, DW_AT_TI_end_file("../heap.c")
     882                            .dwattr $C$DW$25, DW_AT_TI_end_line(0xb1)
     883                            .dwattr $C$DW$25, DW_AT_TI_end_column(0x01)
     884                            .dwendentry
     885                            .dwendtag $C$DW$25
     886                    
     887 0000015c                   .sect   ".text"
     888                            .clink
     889                            .thumbfunc Heap_Free
     890 0000015c                   .thumb
     891                            .global Heap_Free
     892                    
     893                    $C$DW$44        .dwtag  DW_TAG_subprogram
     894                            .dwattr $C$DW$44, DW_AT_name("Heap_Free")
     895                            .dwattr $C$DW$44, DW_AT_low_pc(Heap_Free)
     896                            .dwattr $C$DW$44, DW_AT_high_pc(0x00)
     897                            .dwattr $C$DW$44, DW_AT_TI_symbol_name("Heap_Free")
     898                            .dwattr $C$DW$44, DW_AT_external
     899                            .dwattr $C$DW$44, DW_AT_type(*$C$DW$T$19)
     900                            .dwattr $C$DW$44, DW_AT_TI_begin_file("../heap.c")
     901                            .dwattr $C$DW$44, DW_AT_TI_begin_line(0xbb)
     902                            .dwattr $C$DW$44, DW_AT_TI_begin_column(0x09)
     903                            .dwattr $C$DW$44, DW_AT_decl_file("../heap.c")
     904                            .dwattr $C$DW$44, DW_AT_decl_line(0xbb)
     905                            .dwattr $C$DW$44, DW_AT_decl_column(0x09)
     906                            .dwattr $C$DW$44, DW_AT_TI_max_frame_size(0x18)
     907                            .dwpsn  file "../heap.c",line 187,column 33,is_stmt,address Heap_Free,isa 1
     908                    
     909                            .dwfde $C$DW$CIE, Heap_Free
     910                    $C$DW$45        .dwtag  DW_TAG_formal_parameter
     911                            .dwattr $C$DW$45, DW_AT_name("pointer")
     912                            .dwattr $C$DW$45, DW_AT_TI_symbol_name("pointer")
     913                            .dwattr $C$DW$45, DW_AT_type(*$C$DW$T$3)
     914                            .dwattr $C$DW$45, DW_AT_location[DW_OP_reg0]
     915                    
     916                    
     917                    ;*****************************************************************************
     918                    ;* FUNCTION NAME: Heap_Free                                                  *
     919                    ;*                                                                           *
     920                    ;*   Regs Modified     : A1,A2,A3,A4,V9,SP,LR,SR,D0,D0_hi,D1,D1_hi,D2,D2_hi, *
     921                    ;*                           D3,D3_hi,D4,D4_hi,D5,D5_hi,D6,D6_hi,D7,D7_hi,   *
     922                    ;*                           FPEXC,FPSCR                                     *
     923                    ;*   Regs Used         : A1,A2,A3,A4,V9,SP,LR,SR,D0,D0_hi,D1,D1_hi,D2,D2_hi, *
     924                    ;*                           D3,D3_hi,D4,D4_hi,D5,D5_hi,D6,D6_hi,D7,D7_hi,   *
     925                    ;*                           FPEXC,FPSCR                                     *
     926                    ;*   Local Frame Size  : 0 Args + 20 Auto + 4 Save = 24 byte                 *
     927                    ;*****************************************************************************
     928 0000015c           Heap_Free:
     929                    ;* --------------------------------------------------------------------------*
     930                            .dwcfi  cfa_offset, 0
     931 0000015c B500              PUSH      {LR}                  ; [DPU_3_PIPE]  ; [ORIG 16-BIT INS]
     932                            .dwcfi  cfa_offset, 4
     933                            .dwcfi  save_reg_to_mem, 14, -4
     934 0000015e 0D14F1AD          SUB       SP, SP, #20           ; [DPU_3_PIPE]  ; [KEEP 32-BIT INS]
     935                            .dwcfi  cfa_offset, 24
TI ARM Assembler PC v16.9.6 Sun Dec 02 13:28:42 2018

Tools Copyright (c) 1996-2017 Texas Instruments Incorporated
heap.asm                                                             PAGE   18

     936                    $C$DW$46        .dwtag  DW_TAG_variable
     937                            .dwattr $C$DW$46, DW_AT_name("pointer")
     938                            .dwattr $C$DW$46, DW_AT_TI_symbol_name("pointer")
     939                            .dwattr $C$DW$46, DW_AT_type(*$C$DW$T$3)
     940                            .dwattr $C$DW$46, DW_AT_location[DW_OP_breg13 0]
     941                    
     942                    $C$DW$47        .dwtag  DW_TAG_variable
     943                            .dwattr $C$DW$47, DW_AT_name("blockStart")
     944                            .dwattr $C$DW$47, DW_AT_TI_symbol_name("blockStart")
     945                            .dwattr $C$DW$47, DW_AT_type(*$C$DW$T$24)
     946                            .dwattr $C$DW$47, DW_AT_location[DW_OP_breg13 4]
     947                    
     948                    $C$DW$48        .dwtag  DW_TAG_variable
     949                            .dwattr $C$DW$48, DW_AT_name("blockEnd")
     950                            .dwattr $C$DW$48, DW_AT_TI_symbol_name("blockEnd")
     951                            .dwattr $C$DW$48, DW_AT_type(*$C$DW$T$24)
     952                            .dwattr $C$DW$48, DW_AT_location[DW_OP_breg13 8]
     953                    
     954                    $C$DW$49        .dwtag  DW_TAG_variable
     955                            .dwattr $C$DW$49, DW_AT_name("nextBlockStart")
     956                            .dwattr $C$DW$49, DW_AT_TI_symbol_name("nextBlockStart")
     957                            .dwattr $C$DW$49, DW_AT_type(*$C$DW$T$24)
     958                            .dwattr $C$DW$49, DW_AT_location[DW_OP_breg13 12]
     959                    
     960                    ;----------------------------------------------------------------------
     961                    ; 187 | int32_t Heap_Free(void* pointer){                                      
     962                    ; 188 | int32_t* blockStart;                                                   
     963                    ; 189 | int32_t* blockEnd;                                                     
     964                    ; 190 | int32_t* nextBlockStart;                                               
     965                    ;----------------------------------------------------------------------
     966 00000162 9000              STR       A1, [SP, #0]          ; [DPU_3_PIPE] |187|  ; [ORIG 16-BIT INS]
     967                            .dwpsn  file "../heap.c",line 192,column 3,is_stmt,isa 1
     968                    ;----------------------------------------------------------------------
     969                    ; 192 | blockStart = ((int32_t*)pointer) - 1;                                  
     970                    ; 194 | //-----Begin error checking-------                                     
     971                    ;----------------------------------------------------------------------
     972 00000164 9800              LDR       A1, [SP, #0]          ; [DPU_3_PIPE] |192|  ; [ORIG 16-BIT INS]
     973 00000166 1F00              SUBS      A1, A1, #4            ; [DPU_3_PIPE] |192|  ; [ORIG 16-BIT INS]
     974 00000168 9001              STR       A1, [SP, #4]          ; [DPU_3_PIPE] |192|  ; [ORIG 16-BIT INS]
     975                            .dwpsn  file "../heap.c",line 195,column 3,is_stmt,isa 1
     976                    ;----------------------------------------------------------------------
     977                    ; 195 | if(!inHeapRange(blockStart)){                                          
     978                    ;----------------------------------------------------------------------
     979 0000016a 9801              LDR       A1, [SP, #4]          ; [DPU_3_PIPE] |195|  ; [ORIG 16-BIT INS]
     980                    $C$DW$50        .dwtag  DW_TAG_TI_branch
     981                            .dwattr $C$DW$50, DW_AT_low_pc(0x00)
     982                            .dwattr $C$DW$50, DW_AT_name("inHeapRange")
     983                            .dwattr $C$DW$50, DW_AT_TI_call
     984                    
     985 0000016c FFFEF7FF!         BL        inHeapRange           ; [DPU_3_PIPE] |195|  ; [KEEP 32-BIT INS]
     986                            ; CALL OCCURS {inHeapRange }     ; [] |195| 
     987 00000170 B908              CBNZ      A1, ||$C$L19||        ; []  ; [ORIG 16-BIT INS]
     988                            ; BRANCHCC OCCURS {||$C$L19||}   ; [] |195| 
     989                    ;* --------------------------------------------------------------------------*
     990                            .dwpsn  file "../heap.c",line 196,column 5,is_stmt,isa 1
TI ARM Assembler PC v16.9.6 Sun Dec 02 13:28:42 2018

Tools Copyright (c) 1996-2017 Texas Instruments Incorporated
heap.asm                                                             PAGE   19

     991                    ;----------------------------------------------------------------------
     992                    ; 196 | return HEAP_ERROR_POINTER_OUT_OF_RANGE;                                
     993                    ;----------------------------------------------------------------------
     994 00000172 2002              MOVS      A1, #2                ; [DPU_3_PIPE] |196|  ; [ORIG 16-BIT INS]
     995 00000174 E03A              B         ||$C$L27||            ; [DPU_3_PIPE] |196|  ; [ORIG 16-BIT INS]
     996                            ; BRANCH OCCURS {||$C$L27||}     ; [] |196| 
     997                    ;* --------------------------------------------------------------------------*
     998 00000176           ||$C$L19||:    
     999                            .dwpsn  file "../heap.c",line 198,column 3,is_stmt,isa 1
    1000                    ;----------------------------------------------------------------------
    1001                    ; 198 | if(blockUnused(blockStart)){                                           
    1002                    ;----------------------------------------------------------------------
    1003 00000176 9801              LDR       A1, [SP, #4]          ; [DPU_3_PIPE] |198|  ; [ORIG 16-BIT INS]
    1004                    $C$DW$51        .dwtag  DW_TAG_TI_branch
    1005                            .dwattr $C$DW$51, DW_AT_low_pc(0x00)
    1006                            .dwattr $C$DW$51, DW_AT_name("blockUnused")
    1007                            .dwattr $C$DW$51, DW_AT_TI_call
    1008                    
    1009 00000178 FFFEF7FF!         BL        blockUnused           ; [DPU_3_PIPE] |198|  ; [KEEP 32-BIT INS]
    1010                            ; CALL OCCURS {blockUnused }     ; [] |198| 
    1011 0000017c B108              CBZ       A1, ||$C$L20||        ; []  ; [ORIG 16-BIT INS]
    1012                            ; BRANCHCC OCCURS {||$C$L20||}   ; [] |198| 
    1013                    ;* --------------------------------------------------------------------------*
    1014                            .dwpsn  file "../heap.c",line 199,column 5,is_stmt,isa 1
    1015                    ;----------------------------------------------------------------------
    1016                    ; 199 | return HEAP_ERROR_CORRUPTED_HEAP;                                      
    1017                    ;----------------------------------------------------------------------
    1018 0000017e 2001              MOVS      A1, #1                ; [DPU_3_PIPE] |199|  ; [ORIG 16-BIT INS]
    1019 00000180 E034              B         ||$C$L27||            ; [DPU_3_PIPE] |199|  ; [ORIG 16-BIT INS]
    1020                            ; BRANCH OCCURS {||$C$L27||}     ; [] |199| 
    1021                    ;* --------------------------------------------------------------------------*
    1022 00000182           ||$C$L20||:    
    1023                            .dwpsn  file "../heap.c",line 201,column 3,is_stmt,isa 1
    1024                    ;----------------------------------------------------------------------
    1025                    ; 201 | blockEnd = blockTrailer(blockStart);                                   
    1026                    ;----------------------------------------------------------------------
    1027 00000182 9801              LDR       A1, [SP, #4]          ; [DPU_3_PIPE] |201|  ; [ORIG 16-BIT INS]
    1028                    $C$DW$52        .dwtag  DW_TAG_TI_branch
    1029                            .dwattr $C$DW$52, DW_AT_low_pc(0x00)
    1030                            .dwattr $C$DW$52, DW_AT_name("blockTrailer")
    1031                            .dwattr $C$DW$52, DW_AT_TI_call
    1032                    
    1033 00000184 FFFEF7FF!         BL        blockTrailer          ; [DPU_3_PIPE] |201|  ; [KEEP 32-BIT INS]
    1034                            ; CALL OCCURS {blockTrailer }    ; [] |201| 
    1035 00000188 9002              STR       A1, [SP, #8]          ; [DPU_3_PIPE] |201|  ; [ORIG 16-BIT INS]
    1036                            .dwpsn  file "../heap.c",line 202,column 3,is_stmt,isa 1
    1037                    ;----------------------------------------------------------------------
    1038                    ; 202 | if(!inHeapRange(blockEnd) || blockUnused(blockEnd)){                   
    1039                    ;----------------------------------------------------------------------
    1040 0000018a 9802              LDR       A1, [SP, #8]          ; [DPU_3_PIPE] |202|  ; [ORIG 16-BIT INS]
    1041                    $C$DW$53        .dwtag  DW_TAG_TI_branch
    1042                            .dwattr $C$DW$53, DW_AT_low_pc(0x00)
    1043                            .dwattr $C$DW$53, DW_AT_name("inHeapRange")
    1044                            .dwattr $C$DW$53, DW_AT_TI_call
    1045                    
TI ARM Assembler PC v16.9.6 Sun Dec 02 13:28:42 2018

Tools Copyright (c) 1996-2017 Texas Instruments Incorporated
heap.asm                                                             PAGE   20

    1046 0000018c FFFEF7FF!         BL        inHeapRange           ; [DPU_3_PIPE] |202|  ; [KEEP 32-BIT INS]
    1047                            ; CALL OCCURS {inHeapRange }     ; [] |202| 
    1048 00000190 B118              CBZ       A1, ||$C$L21||        ; []  ; [ORIG 16-BIT INS]
    1049                            ; BRANCHCC OCCURS {||$C$L21||}   ; [] |202| 
    1050                    ;* --------------------------------------------------------------------------*
    1051 00000192 9802              LDR       A1, [SP, #8]          ; [DPU_3_PIPE] |202|  ; [ORIG 16-BIT INS]
    1052                    $C$DW$54        .dwtag  DW_TAG_TI_branch
    1053                            .dwattr $C$DW$54, DW_AT_low_pc(0x00)
    1054                            .dwattr $C$DW$54, DW_AT_name("blockUnused")
    1055                            .dwattr $C$DW$54, DW_AT_TI_call
    1056                    
    1057 00000194 FFFEF7FF!         BL        blockUnused           ; [DPU_3_PIPE] |202|  ; [KEEP 32-BIT INS]
    1058                            ; CALL OCCURS {blockUnused }     ; [] |202| 
    1059 00000198 B108              CBZ       A1, ||$C$L22||        ; []  ; [ORIG 16-BIT INS]
    1060                            ; BRANCHCC OCCURS {||$C$L22||}   ; [] |202| 
    1061                    ;* --------------------------------------------------------------------------*
    1062 0000019a           ||$C$L21||:    
    1063                            .dwpsn  file "../heap.c",line 203,column 5,is_stmt,isa 1
    1064                    ;----------------------------------------------------------------------
    1065                    ; 203 | return HEAP_ERROR_CORRUPTED_HEAP;                                      
    1066                    ; 205 | //-----End error checking-------                                       
    1067                    ;----------------------------------------------------------------------
    1068 0000019a 2001              MOVS      A1, #1                ; [DPU_3_PIPE] |203|  ; [ORIG 16-BIT INS]
    1069 0000019c E026              B         ||$C$L27||            ; [DPU_3_PIPE] |203|  ; [ORIG 16-BIT INS]
    1070                            ; BRANCH OCCURS {||$C$L27||}     ; [] |203| 
    1071                    ;* --------------------------------------------------------------------------*
    1072 0000019e           ||$C$L22||:    
    1073                            .dwpsn  file "../heap.c",line 207,column 3,is_stmt,isa 1
    1074                    ;----------------------------------------------------------------------
    1075                    ; 207 | if(markBlockUnused(blockStart)){                                       
    1076                    ;----------------------------------------------------------------------
    1077 0000019e 9801              LDR       A1, [SP, #4]          ; [DPU_3_PIPE] |207|  ; [ORIG 16-BIT INS]
    1078                    $C$DW$55        .dwtag  DW_TAG_TI_branch
    1079                            .dwattr $C$DW$55, DW_AT_low_pc(0x00)
    1080                            .dwattr $C$DW$55, DW_AT_name("markBlockUnused")
    1081                            .dwattr $C$DW$55, DW_AT_TI_call
    1082                    
    1083 000001a0 FFFEF7FF!         BL        markBlockUnused       ; [DPU_3_PIPE] |207|  ; [KEEP 32-BIT INS]
    1084                            ; CALL OCCURS {markBlockUnused }  ; [] |207| 
    1085 000001a4 B108              CBZ       A1, ||$C$L23||        ; []  ; [ORIG 16-BIT INS]
    1086                            ; BRANCHCC OCCURS {||$C$L23||}   ; [] |207| 
    1087                    ;* --------------------------------------------------------------------------*
    1088                            .dwpsn  file "../heap.c",line 208,column 5,is_stmt,isa 1
    1089                    ;----------------------------------------------------------------------
    1090                    ; 208 | return HEAP_ERROR_CORRUPTED_HEAP;                                      
    1091                    ; 211 | // time to possibly merge with block above                             
    1092                    ; 212 | // first, make sure there IS a block above us                          
    1093                    ;----------------------------------------------------------------------
    1094 000001a6 2001              MOVS      A1, #1                ; [DPU_3_PIPE] |208|  ; [ORIG 16-BIT INS]
    1095 000001a8 E020              B         ||$C$L27||            ; [DPU_3_PIPE] |208|  ; [ORIG 16-BIT INS]
    1096                            ; BRANCH OCCURS {||$C$L27||}     ; [] |208| 
    1097                    ;* --------------------------------------------------------------------------*
    1098 000001aa           ||$C$L23||:    
    1099                            .dwpsn  file "../heap.c",line 213,column 3,is_stmt,isa 1
    1100                    ;----------------------------------------------------------------------
TI ARM Assembler PC v16.9.6 Sun Dec 02 13:28:42 2018

Tools Copyright (c) 1996-2017 Texas Instruments Incorporated
heap.asm                                                             PAGE   21

    1101                    ; 213 | if(blockStart > HEAP_START){                                           
    1102                    ;----------------------------------------------------------------------
    1103 000001aa 492D              LDR       A2, $C$CON1           ; [DPU_3_PIPE] |213|  ; [ORIG 16-BIT INS]
    1104 000001ac 9801              LDR       A1, [SP, #4]          ; [DPU_3_PIPE] |213|  ; [ORIG 16-BIT INS]
    1105 000001ae 4281              CMP       A2, A1                ; [DPU_3_PIPE] |213|  ; [ORIG 16-BIT INS]
    1106 000001b0 D20C              BCS       ||$C$L25||            ; [DPU_3_PIPE] |213|  ; [ORIG 16-BIT INS]
    1107                            ; BRANCHCC OCCURS {||$C$L25||}   ; [] |213| 
    1108                    ;* --------------------------------------------------------------------------*
    1109                    
    1110                    $C$DW$56        .dwtag  DW_TAG_lexical_block
    1111                            .dwattr $C$DW$56, DW_AT_low_pc(0x00)
    1112                            .dwattr $C$DW$56, DW_AT_high_pc(0x00)
    1113                    $C$DW$57        .dwtag  DW_TAG_variable
    1114                            .dwattr $C$DW$57, DW_AT_name("previousBlockStart")
    1115                            .dwattr $C$DW$57, DW_AT_TI_symbol_name("previousBlockStart")
    1116                            .dwattr $C$DW$57, DW_AT_type(*$C$DW$T$24)
    1117                            .dwattr $C$DW$57, DW_AT_location[DW_OP_breg13 16]
    1118                    
    1119                            .dwpsn  file "../heap.c",line 214,column 33,is_stmt,isa 1
    1120                    ;----------------------------------------------------------------------
    1121                    ; 214 | int32_t* previousBlockStart = previousBlockHeader(blockStart);         
    1122                    ; 215 | // second, make sure we only merge with an unused block                
    1123                    ;----------------------------------------------------------------------
    1124 000001b2 9801              LDR       A1, [SP, #4]          ; [DPU_3_PIPE] |214|  ; [ORIG 16-BIT INS]
    1125                    $C$DW$58        .dwtag  DW_TAG_TI_branch
    1126                            .dwattr $C$DW$58, DW_AT_low_pc(0x00)
    1127                            .dwattr $C$DW$58, DW_AT_name("previousBlockHeader")
    1128                            .dwattr $C$DW$58, DW_AT_TI_call
    1129                    
    1130 000001b4 FFFEF7FF!         BL        previousBlockHeader   ; [DPU_3_PIPE] |214|  ; [KEEP 32-BIT INS]
    1131                            ; CALL OCCURS {previousBlockHeader }  ; [] |214| 
    1132 000001b8 9004              STR       A1, [SP, #16]         ; [DPU_3_PIPE] |214|  ; [ORIG 16-BIT INS]
    1133                            .dwpsn  file "../heap.c",line 216,column 5,is_stmt,isa 1
    1134                    ;----------------------------------------------------------------------
    1135                    ; 216 | if(blockUnused(previousBlockStart)){                                   
    1136                    ;----------------------------------------------------------------------
    1137 000001ba 9804              LDR       A1, [SP, #16]         ; [DPU_3_PIPE] |216|  ; [ORIG 16-BIT INS]
    1138                    $C$DW$59        .dwtag  DW_TAG_TI_branch
    1139                            .dwattr $C$DW$59, DW_AT_low_pc(0x00)
    1140                            .dwattr $C$DW$59, DW_AT_name("blockUnused")
    1141                            .dwattr $C$DW$59, DW_AT_TI_call
    1142                    
    1143 000001bc FFFEF7FF!         BL        blockUnused           ; [DPU_3_PIPE] |216|  ; [KEEP 32-BIT INS]
    1144                            ; CALL OCCURS {blockUnused }     ; [] |216| 
    1145 000001c0 B120              CBZ       A1, ||$C$L24||        ; []  ; [ORIG 16-BIT INS]
    1146                            ; BRANCHCC OCCURS {||$C$L24||}   ; [] |216| 
    1147                    ;* --------------------------------------------------------------------------*
    1148                            .dwpsn  file "../heap.c",line 217,column 7,is_stmt,isa 1
    1149                    ;----------------------------------------------------------------------
    1150                    ; 217 | mergeBlockWithBelow(previousBlockStart);                               
    1151                    ;----------------------------------------------------------------------
    1152 000001c2 9804              LDR       A1, [SP, #16]         ; [DPU_3_PIPE] |217|  ; [ORIG 16-BIT INS]
    1153                    $C$DW$60        .dwtag  DW_TAG_TI_branch
    1154                            .dwattr $C$DW$60, DW_AT_low_pc(0x00)
    1155                            .dwattr $C$DW$60, DW_AT_name("mergeBlockWithBelow")
TI ARM Assembler PC v16.9.6 Sun Dec 02 13:28:42 2018

Tools Copyright (c) 1996-2017 Texas Instruments Incorporated
heap.asm                                                             PAGE   22

    1156                            .dwattr $C$DW$60, DW_AT_TI_call
    1157                    
    1158 000001c4 FFFEF7FF!         BL        mergeBlockWithBelow   ; [DPU_3_PIPE] |217|  ; [KEEP 32-BIT INS]
    1159                            ; CALL OCCURS {mergeBlockWithBelow }  ; [] |217| 
    1160                            .dwpsn  file "../heap.c",line 218,column 7,is_stmt,isa 1
    1161                    ;----------------------------------------------------------------------
    1162                    ; 218 | blockStart = previousBlockStart; // start of block has moved           
    1163                    ; 222 | // possibly merge with block below                                     
    1164                    ;----------------------------------------------------------------------
    1165 000001c8 9804              LDR       A1, [SP, #16]         ; [DPU_3_PIPE] |218|  ; [ORIG 16-BIT INS]
    1166 000001ca 9001              STR       A1, [SP, #4]          ; [DPU_3_PIPE] |218|  ; [ORIG 16-BIT INS]
    1167                    ;* --------------------------------------------------------------------------*
    1168                    ||$C$L24||:    
    1169                            .dwendtag $C$DW$56
    1170                    
    1171                    ;* --------------------------------------------------------------------------*
    1172 000001cc           ||$C$L25||:    
    1173                            .dwpsn  file "../heap.c",line 223,column 3,is_stmt,isa 1
    1174                    ;----------------------------------------------------------------------
    1175                    ; 223 | nextBlockStart = nextBlockHeader(blockStart);                          
    1176                    ;----------------------------------------------------------------------
    1177 000001cc 9801              LDR       A1, [SP, #4]          ; [DPU_3_PIPE] |223|  ; [ORIG 16-BIT INS]
    1178                    $C$DW$61        .dwtag  DW_TAG_TI_branch
    1179                            .dwattr $C$DW$61, DW_AT_low_pc(0x00)
    1180                            .dwattr $C$DW$61, DW_AT_name("nextBlockHeader")
    1181                            .dwattr $C$DW$61, DW_AT_TI_call
    1182                    
    1183 000001ce FFFEF7FF!         BL        nextBlockHeader       ; [DPU_3_PIPE] |223|  ; [KEEP 32-BIT INS]
    1184                            ; CALL OCCURS {nextBlockHeader }  ; [] |223| 
    1185 000001d2 9003              STR       A1, [SP, #12]         ; [DPU_3_PIPE] |223|  ; [ORIG 16-BIT INS]
    1186                            .dwpsn  file "../heap.c",line 224,column 3,is_stmt,isa 1
    1187                    ;----------------------------------------------------------------------
    1188                    ; 224 | if(inHeapRange(nextBlockStart) && blockUnused(nextBlockStart)){        
    1189                    ;----------------------------------------------------------------------
    1190 000001d4 9803              LDR       A1, [SP, #12]         ; [DPU_3_PIPE] |224|  ; [ORIG 16-BIT INS]
    1191                    $C$DW$62        .dwtag  DW_TAG_TI_branch
    1192                            .dwattr $C$DW$62, DW_AT_low_pc(0x00)
    1193                            .dwattr $C$DW$62, DW_AT_name("inHeapRange")
    1194                            .dwattr $C$DW$62, DW_AT_TI_call
    1195                    
    1196 000001d6 FFFEF7FF!         BL        inHeapRange           ; [DPU_3_PIPE] |224|  ; [KEEP 32-BIT INS]
    1197                            ; CALL OCCURS {inHeapRange }     ; [] |224| 
    1198 000001da B130              CBZ       A1, ||$C$L26||        ; []  ; [ORIG 16-BIT INS]
    1199                            ; BRANCHCC OCCURS {||$C$L26||}   ; [] |224| 
    1200                    ;* --------------------------------------------------------------------------*
    1201 000001dc 9803              LDR       A1, [SP, #12]         ; [DPU_3_PIPE] |224|  ; [ORIG 16-BIT INS]
    1202                    $C$DW$63        .dwtag  DW_TAG_TI_branch
    1203                            .dwattr $C$DW$63, DW_AT_low_pc(0x00)
    1204                            .dwattr $C$DW$63, DW_AT_name("blockUnused")
    1205                            .dwattr $C$DW$63, DW_AT_TI_call
    1206                    
    1207 000001de FFFEF7FF!         BL        blockUnused           ; [DPU_3_PIPE] |224|  ; [KEEP 32-BIT INS]
    1208                            ; CALL OCCURS {blockUnused }     ; [] |224| 
    1209 000001e2 B110              CBZ       A1, ||$C$L26||        ; []  ; [ORIG 16-BIT INS]
    1210                            ; BRANCHCC OCCURS {||$C$L26||}   ; [] |224| 
TI ARM Assembler PC v16.9.6 Sun Dec 02 13:28:42 2018

Tools Copyright (c) 1996-2017 Texas Instruments Incorporated
heap.asm                                                             PAGE   23

    1211                    ;* --------------------------------------------------------------------------*
    1212                            .dwpsn  file "../heap.c",line 225,column 5,is_stmt,isa 1
    1213                    ;----------------------------------------------------------------------
    1214                    ; 225 | mergeBlockWithBelow(blockStart);                                       
    1215                    ;----------------------------------------------------------------------
    1216 000001e4 9801              LDR       A1, [SP, #4]          ; [DPU_3_PIPE] |225|  ; [ORIG 16-BIT INS]
    1217                    $C$DW$64        .dwtag  DW_TAG_TI_branch
    1218                            .dwattr $C$DW$64, DW_AT_low_pc(0x00)
    1219                            .dwattr $C$DW$64, DW_AT_name("mergeBlockWithBelow")
    1220                            .dwattr $C$DW$64, DW_AT_TI_call
    1221                    
    1222 000001e6 FFFEF7FF!         BL        mergeBlockWithBelow   ; [DPU_3_PIPE] |225|  ; [KEEP 32-BIT INS]
    1223                            ; CALL OCCURS {mergeBlockWithBelow }  ; [] |225| 
    1224                    ;* --------------------------------------------------------------------------*
    1225 000001ea           ||$C$L26||:    
    1226                            .dwpsn  file "../heap.c",line 227,column 3,is_stmt,isa 1
    1227                    ;----------------------------------------------------------------------
    1228                    ; 227 | return HEAP_OK;                                                        
    1229                    ;----------------------------------------------------------------------
    1230 000001ea 2000              MOVS      A1, #0                ; [DPU_3_PIPE] |227|  ; [ORIG 16-BIT INS]
    1231                    ;* --------------------------------------------------------------------------*
    1232 000001ec           ||$C$L27||:    
    1233                            .dwpsn  file "../heap.c",line 228,column 1,is_stmt,isa 1
    1234 000001ec B005              ADD       SP, SP, #20           ; [DPU_3_PIPE]  ; [ORIG 16-BIT INS]
    1235                            .dwcfi  cfa_offset, 4
    1236                    $C$DW$65        .dwtag  DW_TAG_TI_branch
    1237                            .dwattr $C$DW$65, DW_AT_low_pc(0x00)
    1238                            .dwattr $C$DW$65, DW_AT_TI_return
    1239                    
    1240 000001ee BD00              POP       {PC}                  ; [DPU_3_PIPE]  ; [ORIG 16-BIT INS]
    1241                            .dwcfi  cfa_offset, 0
    1242                            ; BRANCH OCCURS                  ; [] 
    1243                            .dwattr $C$DW$44, DW_AT_TI_end_file("../heap.c")
    1244                            .dwattr $C$DW$44, DW_AT_TI_end_line(0xe4)
    1245                            .dwattr $C$DW$44, DW_AT_TI_end_column(0x01)
    1246                            .dwendentry
    1247                            .dwendtag $C$DW$44
    1248                    
    1249 000001f0                   .sect   ".text"
    1250                            .clink
    1251                            .thumbfunc Heap_Test
    1252 000001f0                   .thumb
    1253                            .global Heap_Test
    1254                    
    1255                    $C$DW$66        .dwtag  DW_TAG_subprogram
    1256                            .dwattr $C$DW$66, DW_AT_name("Heap_Test")
    1257                            .dwattr $C$DW$66, DW_AT_low_pc(Heap_Test)
    1258                            .dwattr $C$DW$66, DW_AT_high_pc(0x00)
    1259                            .dwattr $C$DW$66, DW_AT_TI_symbol_name("Heap_Test")
    1260                            .dwattr $C$DW$66, DW_AT_external
    1261                            .dwattr $C$DW$66, DW_AT_type(*$C$DW$T$19)
    1262                            .dwattr $C$DW$66, DW_AT_TI_begin_file("../heap.c")
    1263                            .dwattr $C$DW$66, DW_AT_TI_begin_line(0xeb)
    1264                            .dwattr $C$DW$66, DW_AT_TI_begin_column(0x09)
    1265                            .dwattr $C$DW$66, DW_AT_decl_file("../heap.c")
TI ARM Assembler PC v16.9.6 Sun Dec 02 13:28:42 2018

Tools Copyright (c) 1996-2017 Texas Instruments Incorporated
heap.asm                                                             PAGE   24

    1266                            .dwattr $C$DW$66, DW_AT_decl_line(0xeb)
    1267                            .dwattr $C$DW$66, DW_AT_decl_column(0x09)
    1268                            .dwattr $C$DW$66, DW_AT_TI_max_frame_size(0x10)
    1269                            .dwpsn  file "../heap.c",line 235,column 24,is_stmt,address Heap_Test,isa 1
    1270                    
    1271                            .dwfde $C$DW$CIE, Heap_Test
    1272                    ;----------------------------------------------------------------------
    1273                    ; 235 | int32_t Heap_Test(void){                                               
    1274                    ;----------------------------------------------------------------------
    1275                    
    1276                    ;*****************************************************************************
    1277                    ;* FUNCTION NAME: Heap_Test                                                  *
    1278                    ;*                                                                           *
    1279                    ;*   Regs Modified     : A1,A2,A3,A4,V9,SP,LR,SR,D0,D0_hi,D1,D1_hi,D2,D2_hi, *
    1280                    ;*                           D3,D3_hi,D4,D4_hi,D5,D5_hi,D6,D6_hi,D7,D7_hi,   *
    1281                    ;*                           FPEXC,FPSCR                                     *
    1282                    ;*   Regs Used         : A1,A2,A3,A4,V9,SP,LR,SR,D0,D0_hi,D1,D1_hi,D2,D2_hi, *
    1283                    ;*                           D3,D3_hi,D4,D4_hi,D5,D5_hi,D6,D6_hi,D7,D7_hi,   *
    1284                    ;*                           FPEXC,FPSCR                                     *
    1285                    ;*   Local Frame Size  : 0 Args + 12 Auto + 4 Save = 16 byte                 *
    1286                    ;*****************************************************************************
    1287 000001f0           Heap_Test:
    1288                    ;* --------------------------------------------------------------------------*
    1289                            .dwcfi  cfa_offset, 0
    1290 000001f0 B50E              PUSH      {A2, A3, A4, LR}      ; [DPU_3_PIPE]  ; [ORIG 16-BIT INS]
    1291                            .dwcfi  cfa_offset, 16
    1292                            .dwcfi  save_reg_to_mem, 14, -4
    1293                            .dwcfi  save_reg_to_mem, 3, -8
    1294                            .dwcfi  save_reg_to_mem, 2, -12
    1295                            .dwcfi  save_reg_to_mem, 1, -16
    1296                    $C$DW$67        .dwtag  DW_TAG_variable
    1297                            .dwattr $C$DW$67, DW_AT_name("lastBlockWasUnused")
    1298                            .dwattr $C$DW$67, DW_AT_TI_symbol_name("lastBlockWasUnused")
    1299                            .dwattr $C$DW$67, DW_AT_type(*$C$DW$T$19)
    1300                            .dwattr $C$DW$67, DW_AT_location[DW_OP_breg13 0]
    1301                    
    1302                    $C$DW$68        .dwtag  DW_TAG_variable
    1303                            .dwattr $C$DW$68, DW_AT_name("blockStart")
    1304                            .dwattr $C$DW$68, DW_AT_TI_symbol_name("blockStart")
    1305                            .dwattr $C$DW$68, DW_AT_type(*$C$DW$T$24)
    1306                            .dwattr $C$DW$68, DW_AT_location[DW_OP_breg13 4]
    1307                    
    1308                            .dwpsn  file "../heap.c",line 236,column 30,is_stmt,isa 1
    1309                    ;----------------------------------------------------------------------
    1310                    ; 236 | int32_t lastBlockWasUnused = 0;                                        
    1311                    ;----------------------------------------------------------------------
    1312 000001f2 2000              MOVS      A1, #0                ; [DPU_3_PIPE] |236|  ; [ORIG 16-BIT INS]
    1313 000001f4 9000              STR       A1, [SP, #0]          ; [DPU_3_PIPE] |236|  ; [ORIG 16-BIT INS]
    1314                            .dwpsn  file "../heap.c",line 237,column 23,is_stmt,isa 1
    1315                    ;----------------------------------------------------------------------
    1316                    ; 237 | int32_t* blockStart = HEAP_START;                                      
    1317                    ;----------------------------------------------------------------------
    1318 000001f6 481A              LDR       A1, $C$CON1           ; [DPU_3_PIPE] |237|  ; [ORIG 16-BIT INS]
    1319 000001f8 9001              STR       A1, [SP, #4]          ; [DPU_3_PIPE] |237|  ; [ORIG 16-BIT INS]
    1320                            .dwpsn  file "../heap.c",line 238,column 3,is_stmt,isa 1
TI ARM Assembler PC v16.9.6 Sun Dec 02 13:28:42 2018

Tools Copyright (c) 1996-2017 Texas Instruments Incorporated
heap.asm                                                             PAGE   25

    1321                    ;----------------------------------------------------------------------
    1322                    ; 238 | while(inHeapRange(blockStart)){                                        
    1323                    ; 239 |   int32_t* blockEnd;                                                   
    1324                    ; 241 |   //shouldn't have any blocks holding zero words                       
    1325                    ;----------------------------------------------------------------------
    1326 000001fa E023              B         ||$C$L33||            ; [DPU_3_PIPE] |238|  ; [ORIG 16-BIT INS]
    1327                            ; BRANCH OCCURS {||$C$L33||}     ; [] |238| 
    1328                    ;* --------------------------------------------------------------------------*
    1329                    ||$C$L28||:    
    1330                    
    1331                    $C$DW$69        .dwtag  DW_TAG_lexical_block
    1332                            .dwattr $C$DW$69, DW_AT_low_pc(0x00)
    1333                            .dwattr $C$DW$69, DW_AT_high_pc(0x00)
    1334                    $C$DW$70        .dwtag  DW_TAG_variable
    1335                            .dwattr $C$DW$70, DW_AT_name("blockEnd")
    1336                            .dwattr $C$DW$70, DW_AT_TI_symbol_name("blockEnd")
    1337                            .dwattr $C$DW$70, DW_AT_type(*$C$DW$T$24)
    1338                            .dwattr $C$DW$70, DW_AT_location[DW_OP_breg13 8]
    1339                    
    1340                            .dwpsn  file "../heap.c",line 242,column 5,is_stmt,isa 1
    1341                    ;----------------------------------------------------------------------
    1342                    ; 242 | if(*blockStart == 0){                                                  
    1343                    ;----------------------------------------------------------------------
    1344 000001fc 9801              LDR       A1, [SP, #4]          ; [DPU_3_PIPE] |242|  ; [ORIG 16-BIT INS]
    1345 000001fe 6800              LDR       A1, [A1, #0]          ; [DPU_3_PIPE] |242|  ; [ORIG 16-BIT INS]
    1346 00000200 B908              CBNZ      A1, ||$C$L29||        ; []  ; [ORIG 16-BIT INS]
    1347                            ; BRANCHCC OCCURS {||$C$L29||}   ; [] |242| 
    1348                    ;* --------------------------------------------------------------------------*
    1349                            .dwpsn  file "../heap.c",line 243,column 7,is_stmt,isa 1
    1350                    ;----------------------------------------------------------------------
    1351                    ; 243 | return HEAP_ERROR_CORRUPTED_HEAP;                                      
    1352                    ;----------------------------------------------------------------------
    1353 00000202 2001              MOVS      A1, #1                ; [DPU_3_PIPE] |243|  ; [ORIG 16-BIT INS]
    1354 00000204 E02A              B         ||$C$L35||            ; [DPU_3_PIPE] |243|  ; [ORIG 16-BIT INS]
    1355                            ; BRANCH OCCURS {||$C$L35||}     ; [] |243| 
    1356                    ;* --------------------------------------------------------------------------*
    1357 00000206           ||$C$L29||:    
    1358                            .dwpsn  file "../heap.c",line 245,column 5,is_stmt,isa 1
    1359                    ;----------------------------------------------------------------------
    1360                    ; 245 | blockEnd = blockTrailer(blockStart);                                   
    1361                    ; 246 | //error if blockEnd is not in the heap or blockend disagrees with block
    1362                    ;     | Start                                                                  
    1363                    ;----------------------------------------------------------------------
    1364 00000206 9801              LDR       A1, [SP, #4]          ; [DPU_3_PIPE] |245|  ; [ORIG 16-BIT INS]
    1365                    $C$DW$71        .dwtag  DW_TAG_TI_branch
    1366                            .dwattr $C$DW$71, DW_AT_low_pc(0x00)
    1367                            .dwattr $C$DW$71, DW_AT_name("blockTrailer")
    1368                            .dwattr $C$DW$71, DW_AT_TI_call
    1369                    
    1370 00000208 FFFEF7FF!         BL        blockTrailer          ; [DPU_3_PIPE] |245|  ; [KEEP 32-BIT INS]
    1371                            ; CALL OCCURS {blockTrailer }    ; [] |245| 
    1372 0000020c 9002              STR       A1, [SP, #8]          ; [DPU_3_PIPE] |245|  ; [ORIG 16-BIT INS]
    1373                            .dwpsn  file "../heap.c",line 247,column 5,is_stmt,isa 1
    1374                    ;----------------------------------------------------------------------
    1375                    ; 247 | if(!inHeapRange(blockEnd) || *blockStart != *blockEnd){                
TI ARM Assembler PC v16.9.6 Sun Dec 02 13:28:42 2018

Tools Copyright (c) 1996-2017 Texas Instruments Incorporated
heap.asm                                                             PAGE   26

    1376                    ;----------------------------------------------------------------------
    1377 0000020e 9802              LDR       A1, [SP, #8]          ; [DPU_3_PIPE] |247|  ; [ORIG 16-BIT INS]
    1378                    $C$DW$72        .dwtag  DW_TAG_TI_branch
    1379                            .dwattr $C$DW$72, DW_AT_low_pc(0x00)
    1380                            .dwattr $C$DW$72, DW_AT_name("inHeapRange")
    1381                            .dwattr $C$DW$72, DW_AT_TI_call
    1382                    
    1383 00000210 FFFEF7FF!         BL        inHeapRange           ; [DPU_3_PIPE] |247|  ; [KEEP 32-BIT INS]
    1384                            ; CALL OCCURS {inHeapRange }     ; [] |247| 
    1385 00000214 B128              CBZ       A1, ||$C$L30||        ; []  ; [ORIG 16-BIT INS]
    1386                            ; BRANCHCC OCCURS {||$C$L30||}   ; [] |247| 
    1387                    ;* --------------------------------------------------------------------------*
    1388 00000216 9802              LDR       A1, [SP, #8]          ; [DPU_3_PIPE] |247|  ; [ORIG 16-BIT INS]
    1389 00000218 9901              LDR       A2, [SP, #4]          ; [DPU_3_PIPE] |247|  ; [ORIG 16-BIT INS]
    1390 0000021a 6800              LDR       A1, [A1, #0]          ; [DPU_3_PIPE] |247|  ; [ORIG 16-BIT INS]
    1391 0000021c 6809              LDR       A2, [A2, #0]          ; [DPU_3_PIPE] |247|  ; [ORIG 16-BIT INS]
    1392 0000021e 4288              CMP       A1, A2                ; [DPU_3_PIPE] |247|  ; [ORIG 16-BIT INS]
    1393 00000220 D001              BEQ       ||$C$L31||            ; [DPU_3_PIPE] |247|  ; [ORIG 16-BIT INS]
    1394                            ; BRANCHCC OCCURS {||$C$L31||}   ; [] |247| 
    1395                    ;* --------------------------------------------------------------------------*
    1396 00000222           ||$C$L30||:    
    1397                            .dwpsn  file "../heap.c",line 248,column 7,is_stmt,isa 1
    1398                    ;----------------------------------------------------------------------
    1399                    ; 248 | return HEAP_ERROR_CORRUPTED_HEAP;                                      
    1400                    ; 250 | //error if we have two adjacent unused blocks                          
    1401                    ;----------------------------------------------------------------------
    1402 00000222 2001              MOVS      A1, #1                ; [DPU_3_PIPE] |248|  ; [ORIG 16-BIT INS]
    1403 00000224 E01A              B         ||$C$L35||            ; [DPU_3_PIPE] |248|  ; [ORIG 16-BIT INS]
    1404                            ; BRANCH OCCURS {||$C$L35||}     ; [] |248| 
    1405                    ;* --------------------------------------------------------------------------*
    1406 00000226           ||$C$L31||:    
    1407                            .dwpsn  file "../heap.c",line 251,column 5,is_stmt,isa 1
    1408                    ;----------------------------------------------------------------------
    1409                    ; 251 | if(lastBlockWasUnused && blockUnused(blockStart)){                     
    1410                    ;----------------------------------------------------------------------
    1411 00000226 9800              LDR       A1, [SP, #0]          ; [DPU_3_PIPE] |251|  ; [ORIG 16-BIT INS]
    1412 00000228 B128              CBZ       A1, ||$C$L32||        ; []  ; [ORIG 16-BIT INS]
    1413                            ; BRANCHCC OCCURS {||$C$L32||}   ; [] |251| 
    1414                    ;* --------------------------------------------------------------------------*
    1415 0000022a 9801              LDR       A1, [SP, #4]          ; [DPU_3_PIPE] |251|  ; [ORIG 16-BIT INS]
    1416                    $C$DW$73        .dwtag  DW_TAG_TI_branch
    1417                            .dwattr $C$DW$73, DW_AT_low_pc(0x00)
    1418                            .dwattr $C$DW$73, DW_AT_name("blockUnused")
    1419                            .dwattr $C$DW$73, DW_AT_TI_call
    1420                    
    1421 0000022c FFFEF7FF!         BL        blockUnused           ; [DPU_3_PIPE] |251|  ; [KEEP 32-BIT INS]
    1422                            ; CALL OCCURS {blockUnused }     ; [] |251| 
    1423 00000230 B108              CBZ       A1, ||$C$L32||        ; []  ; [ORIG 16-BIT INS]
    1424                            ; BRANCHCC OCCURS {||$C$L32||}   ; [] |251| 
    1425                    ;* --------------------------------------------------------------------------*
    1426                            .dwpsn  file "../heap.c",line 252,column 7,is_stmt,isa 1
    1427                    ;----------------------------------------------------------------------
    1428                    ; 252 | return HEAP_ERROR_CORRUPTED_HEAP;                                      
    1429                    ;----------------------------------------------------------------------
    1430 00000232 2001              MOVS      A1, #1                ; [DPU_3_PIPE] |252|  ; [ORIG 16-BIT INS]
TI ARM Assembler PC v16.9.6 Sun Dec 02 13:28:42 2018

Tools Copyright (c) 1996-2017 Texas Instruments Incorporated
heap.asm                                                             PAGE   27

    1431 00000234 E012              B         ||$C$L35||            ; [DPU_3_PIPE] |252|  ; [ORIG 16-BIT INS]
    1432                            ; BRANCH OCCURS {||$C$L35||}     ; [] |252| 
    1433                    ;* --------------------------------------------------------------------------*
    1434 00000236           ||$C$L32||:    
    1435                            .dwpsn  file "../heap.c",line 254,column 5,is_stmt,isa 1
    1436                    ;----------------------------------------------------------------------
    1437                    ; 254 | lastBlockWasUnused = blockUnused(blockStart);                          
    1438                    ;----------------------------------------------------------------------
    1439 00000236 9801              LDR       A1, [SP, #4]          ; [DPU_3_PIPE] |254|  ; [ORIG 16-BIT INS]
    1440                    $C$DW$74        .dwtag  DW_TAG_TI_branch
    1441                            .dwattr $C$DW$74, DW_AT_low_pc(0x00)
    1442                            .dwattr $C$DW$74, DW_AT_name("blockUnused")
    1443                            .dwattr $C$DW$74, DW_AT_TI_call
    1444                    
    1445 00000238 FFFEF7FF!         BL        blockUnused           ; [DPU_3_PIPE] |254|  ; [KEEP 32-BIT INS]
    1446                            ; CALL OCCURS {blockUnused }     ; [] |254| 
    1447 0000023c 9000              STR       A1, [SP, #0]          ; [DPU_3_PIPE] |254|  ; [ORIG 16-BIT INS]
    1448                            .dwpsn  file "../heap.c",line 255,column 5,is_stmt,isa 1
    1449                    ;----------------------------------------------------------------------
    1450                    ; 255 | blockStart = blockEnd + 1;                                             
    1451                    ; 257 | //traversing the heap should end exactly where the heap ends           
    1452                    ;----------------------------------------------------------------------
    1453 0000023e 9802              LDR       A1, [SP, #8]          ; [DPU_3_PIPE] |255|  ; [ORIG 16-BIT INS]
    1454 00000240 1D00              ADDS      A1, A1, #4            ; [DPU_3_PIPE] |255|  ; [ORIG 16-BIT INS]
    1455 00000242 9001              STR       A1, [SP, #4]          ; [DPU_3_PIPE] |255|  ; [ORIG 16-BIT INS]
    1456                            .dwendtag $C$DW$69
    1457                    
    1458                    ;* --------------------------------------------------------------------------*
    1459                    ;*   BEGIN LOOP ||$C$L33||
    1460                    ;* --------------------------------------------------------------------------*
    1461 00000244           ||$C$L33||:    
    1462                            .dwpsn  file "../heap.c",line 238,column 3,is_stmt,isa 1
    1463 00000244 9801              LDR       A1, [SP, #4]          ; [DPU_3_PIPE] |238|  ; [ORIG 16-BIT INS]
    1464                    $C$DW$75        .dwtag  DW_TAG_TI_branch
    1465                            .dwattr $C$DW$75, DW_AT_low_pc(0x00)
    1466                            .dwattr $C$DW$75, DW_AT_name("inHeapRange")
    1467                            .dwattr $C$DW$75, DW_AT_TI_call
    1468                    
    1469 00000246 FFFEF7FF!         BL        inHeapRange           ; [DPU_3_PIPE] |238|  ; [KEEP 32-BIT INS]
    1470                            ; CALL OCCURS {inHeapRange }     ; [] |238| 
    1471 0000024a 2800              CMP       A1, #0                ; [DPU_3_PIPE] |238|  ; [ORIG 16-BIT INS]
    1472 0000024c D1D6              BNE       ||$C$L28||            ; [DPU_3_PIPE] |238|  ; [ORIG 16-BIT INS]
    1473                            ; BRANCHCC OCCURS {||$C$L28||}   ; [] |238| 
    1474                    ;* --------------------------------------------------------------------------*
    1475                            .dwpsn  file "../heap.c",line 258,column 3,is_stmt,isa 1
    1476                    ;----------------------------------------------------------------------
    1477                    ; 258 | if(blockStart != HEAP_END){                                            
    1478                    ;----------------------------------------------------------------------
    1479 0000024e 4999              LDR       A2, $C$CON3           ; [DPU_3_PIPE] |258|  ; [ORIG 16-BIT INS]
    1480 00000250 9801              LDR       A1, [SP, #4]          ; [DPU_3_PIPE] |258|  ; [ORIG 16-BIT INS]
    1481 00000252 4281              CMP       A2, A1                ; [DPU_3_PIPE] |258|  ; [ORIG 16-BIT INS]
    1482 00000254 D001              BEQ       ||$C$L34||            ; [DPU_3_PIPE] |258|  ; [ORIG 16-BIT INS]
    1483                            ; BRANCHCC OCCURS {||$C$L34||}   ; [] |258| 
    1484                    ;* --------------------------------------------------------------------------*
    1485                            .dwpsn  file "../heap.c",line 259,column 5,is_stmt,isa 1
TI ARM Assembler PC v16.9.6 Sun Dec 02 13:28:42 2018

Tools Copyright (c) 1996-2017 Texas Instruments Incorporated
heap.asm                                                             PAGE   28

    1486                    ;----------------------------------------------------------------------
    1487                    ; 259 | return HEAP_ERROR_CORRUPTED_HEAP;                                      
    1488                    ;----------------------------------------------------------------------
    1489 00000256 2001              MOVS      A1, #1                ; [DPU_3_PIPE] |259|  ; [ORIG 16-BIT INS]
    1490 00000258 E000              B         ||$C$L35||            ; [DPU_3_PIPE] |259|  ; [ORIG 16-BIT INS]
    1491                            ; BRANCH OCCURS {||$C$L35||}     ; [] |259| 
    1492                    ;* --------------------------------------------------------------------------*
    1493 0000025a           ||$C$L34||:    
    1494                            .dwpsn  file "../heap.c",line 261,column 3,is_stmt,isa 1
    1495                    ;----------------------------------------------------------------------
    1496                    ; 261 | return HEAP_OK;                                                        
    1497                    ;----------------------------------------------------------------------
    1498 0000025a 2000              MOVS      A1, #0                ; [DPU_3_PIPE] |261|  ; [ORIG 16-BIT INS]
    1499                    ;* --------------------------------------------------------------------------*
    1500 0000025c           ||$C$L35||:    
    1501                            .dwpsn  file "../heap.c",line 262,column 1,is_stmt,isa 1
    1502                    $C$DW$76        .dwtag  DW_TAG_TI_branch
    1503                            .dwattr $C$DW$76, DW_AT_low_pc(0x00)
    1504                            .dwattr $C$DW$76, DW_AT_TI_return
    1505                    
    1506 0000025c BD0E              POP       {A2, A3, A4, PC}      ; [DPU_3_PIPE]  ; [ORIG 16-BIT INS]
    1507                            .dwcfi  cfa_offset, 0
    1508                            .dwcfi  restore_reg, 3
    1509                            .dwcfi  restore_reg, 2
    1510                            .dwcfi  restore_reg, 1
    1511                            ; BRANCH OCCURS                  ; [] 
    1512                            .dwattr $C$DW$66, DW_AT_TI_end_file("../heap.c")
    1513                            .dwattr $C$DW$66, DW_AT_TI_end_line(0x106)
    1514                            .dwattr $C$DW$66, DW_AT_TI_end_column(0x01)
    1515                            .dwendentry
    1516                            .dwendtag $C$DW$66
    1517                    
    1518                    ;******************************************************************************
    1519                    ;* CONSTANT TABLE                                                             *
    1520                    ;******************************************************************************
    1521 0000025e                   .sect   ".text"
    1522                            .align  4
    1523 0000025e 000046C0! ||$C$CON1||:    .bits   Heap,32
         00000262 00000000 
    1524                            .align  4
    1525 00000262 023C0000! ||$C$CON2||:    .bits   Heap+572,32
         00000266 00000000 
    1526 00000268                   .sect   ".text"
    1527                            .clink
    1528                            .thumbfunc Heap_Stats
    1529 00000268                   .thumb
    1530                            .global Heap_Stats
    1531                    
    1532                    $C$DW$77        .dwtag  DW_TAG_subprogram
    1533                            .dwattr $C$DW$77, DW_AT_name("Heap_Stats")
    1534                            .dwattr $C$DW$77, DW_AT_low_pc(Heap_Stats)
    1535                            .dwattr $C$DW$77, DW_AT_high_pc(0x00)
    1536                            .dwattr $C$DW$77, DW_AT_TI_symbol_name("Heap_Stats")
    1537                            .dwattr $C$DW$77, DW_AT_external
    1538                            .dwattr $C$DW$77, DW_AT_type(*$C$DW$T$64)
TI ARM Assembler PC v16.9.6 Sun Dec 02 13:28:42 2018

Tools Copyright (c) 1996-2017 Texas Instruments Incorporated
heap.asm                                                             PAGE   29

    1539                            .dwattr $C$DW$77, DW_AT_TI_begin_file("../heap.c")
    1540                            .dwattr $C$DW$77, DW_AT_TI_begin_line(0x10d)
    1541                            .dwattr $C$DW$77, DW_AT_TI_begin_column(0x0e)
    1542                            .dwattr $C$DW$77, DW_AT_decl_file("../heap.c")
    1543                            .dwattr $C$DW$77, DW_AT_decl_line(0x10d)
    1544                            .dwattr $C$DW$77, DW_AT_decl_column(0x0e)
    1545                            .dwattr $C$DW$77, DW_AT_TI_max_frame_size(0x20)
    1546                            .dwpsn  file "../heap.c",line 269,column 30,is_stmt,address Heap_Stats,isa 1
    1547                    
    1548                            .dwfde $C$DW$CIE, Heap_Stats
    1549                    ;----------------------------------------------------------------------
    1550                    ; 269 | heap_stats_t Heap_Stats(void){                                         
    1551                    ; 270 | int32_t* blockStart;                                                   
    1552                    ; 271 | heap_stats_t stats;                                                    
    1553                    ;----------------------------------------------------------------------
    1554                    
    1555                    ;*****************************************************************************
    1556                    ;* FUNCTION NAME: Heap_Stats                                                 *
    1557                    ;*                                                                           *
    1558                    ;*   Regs Modified     : A1,A2,A3,A4,V1,V9,SP,LR,SR,D0,D0_hi,D1,D1_hi,D2,    *
    1559                    ;*                           D2_hi,D3,D3_hi,D4,D4_hi,D5,D5_hi,D6,D6_hi,D7,   *
    1560                    ;*                           D7_hi,FPEXC,FPSCR                               *
    1561                    ;*   Regs Used         : A1,A2,A3,A4,V1,V9,SP,LR,SR,D0,D0_hi,D1,D1_hi,D2,    *
    1562                    ;*                           D2_hi,D3,D3_hi,D4,D4_hi,D5,D5_hi,D6,D6_hi,D7,   *
    1563                    ;*                           D7_hi,FPEXC,FPSCR                               *
    1564                    ;*   Local Frame Size  : 0 Args + 24 Auto + 8 Save = 32 byte                 *
    1565                    ;*****************************************************************************
    1566 00000268           Heap_Stats:
    1567                    ;* --------------------------------------------------------------------------*
    1568                            .dwcfi  cfa_offset, 0
    1569 00000268 B510              PUSH      {V1, LR}              ; [DPU_3_PIPE]  ; [ORIG 16-BIT INS]
    1570                            .dwcfi  cfa_offset, 8
    1571                            .dwcfi  save_reg_to_mem, 14, -4
    1572                            .dwcfi  save_reg_to_mem, 4, -8
    1573 0000026a 4604              MOV       V1, A1                ; [DPU_3_PIPE] |269|  ; [ORIG 16-BIT INS]
    1574 0000026c 0D18F1AD          SUB       SP, SP, #24           ; [DPU_3_PIPE]  ; [KEEP 32-BIT INS]
    1575                            .dwcfi  cfa_offset, 32
    1576                    $C$DW$78        .dwtag  DW_TAG_variable
    1577                            .dwattr $C$DW$78, DW_AT_name("stats")
    1578                            .dwattr $C$DW$78, DW_AT_TI_symbol_name("stats")
    1579                            .dwattr $C$DW$78, DW_AT_type(*$C$DW$T$64)
    1580                            .dwattr $C$DW$78, DW_AT_location[DW_OP_breg13 0]
    1581                    
    1582                    $C$DW$79        .dwtag  DW_TAG_variable
    1583                            .dwattr $C$DW$79, DW_AT_name("blockStart")
    1584                            .dwattr $C$DW$79, DW_AT_TI_symbol_name("blockStart")
    1585                            .dwattr $C$DW$79, DW_AT_type(*$C$DW$T$24)
    1586                            .dwattr $C$DW$79, DW_AT_location[DW_OP_breg13 20]
    1587                    
    1588                            .dwpsn  file "../heap.c",line 273,column 3,is_stmt,isa 1
    1589                    ;----------------------------------------------------------------------
    1590                    ; 273 | stats.wordsAllocated = 0;                                              
    1591                    ;----------------------------------------------------------------------
    1592 00000270 2000              MOVS      A1, #0                ; [DPU_3_PIPE] |273|  ; [ORIG 16-BIT INS]
    1593 00000272 9000              STR       A1, [SP, #0]          ; [DPU_3_PIPE] |273|  ; [ORIG 16-BIT INS]
TI ARM Assembler PC v16.9.6 Sun Dec 02 13:28:42 2018

Tools Copyright (c) 1996-2017 Texas Instruments Incorporated
heap.asm                                                             PAGE   30

    1594                            .dwpsn  file "../heap.c",line 274,column 3,is_stmt,isa 1
    1595                    ;----------------------------------------------------------------------
    1596                    ; 274 | stats.wordsAvailable = 0;                                              
    1597                    ;----------------------------------------------------------------------
    1598 00000274 2000              MOVS      A1, #0                ; [DPU_3_PIPE] |274|  ; [ORIG 16-BIT INS]
    1599 00000276 9001              STR       A1, [SP, #4]          ; [DPU_3_PIPE] |274|  ; [ORIG 16-BIT INS]
    1600                            .dwpsn  file "../heap.c",line 275,column 3,is_stmt,isa 1
    1601                    ;----------------------------------------------------------------------
    1602                    ; 275 | stats.blocksUsed = 0;                                                  
    1603                    ;----------------------------------------------------------------------
    1604 00000278 2000              MOVS      A1, #0                ; [DPU_3_PIPE] |275|  ; [ORIG 16-BIT INS]
    1605 0000027a 9003              STR       A1, [SP, #12]         ; [DPU_3_PIPE] |275|  ; [ORIG 16-BIT INS]
    1606                            .dwpsn  file "../heap.c",line 276,column 3,is_stmt,isa 1
    1607                    ;----------------------------------------------------------------------
    1608                    ; 276 | stats.blocksUnused = 0;                                                
    1609                    ; 278 | //just go through each block to get stats on heap usage                
    1610                    ;----------------------------------------------------------------------
    1611 0000027c 2000              MOVS      A1, #0                ; [DPU_3_PIPE] |276|  ; [ORIG 16-BIT INS]
    1612 0000027e 9004              STR       A1, [SP, #16]         ; [DPU_3_PIPE] |276|  ; [ORIG 16-BIT INS]
    1613                            .dwpsn  file "../heap.c",line 279,column 3,is_stmt,isa 1
    1614                    ;----------------------------------------------------------------------
    1615                    ; 279 | blockStart = HEAP_START;                                               
    1616                    ;----------------------------------------------------------------------
    1617 00000280 488D              LDR       A1, $C$CON4           ; [DPU_3_PIPE] |279|  ; [ORIG 16-BIT INS]
    1618 00000282 9005              STR       A1, [SP, #20]         ; [DPU_3_PIPE] |279|  ; [ORIG 16-BIT INS]
    1619                            .dwpsn  file "../heap.c",line 280,column 3,is_stmt,isa 1
    1620                    ;----------------------------------------------------------------------
    1621                    ; 280 | while(inHeapRange(blockStart)){                                        
    1622                    ;----------------------------------------------------------------------
    1623 00000284 E01A              B         ||$C$L39||            ; [DPU_3_PIPE] |280|  ; [ORIG 16-BIT INS]
    1624                            ; BRANCH OCCURS {||$C$L39||}     ; [] |280| 
    1625                    ;* --------------------------------------------------------------------------*
    1626 00000286           ||$C$L36||:    
    1627                            .dwpsn  file "../heap.c",line 281,column 5,is_stmt,isa 1
    1628                    ;----------------------------------------------------------------------
    1629                    ; 281 | if(blockUsed(blockStart)){                                             
    1630                    ;----------------------------------------------------------------------
    1631 00000286 9805              LDR       A1, [SP, #20]         ; [DPU_3_PIPE] |281|  ; [ORIG 16-BIT INS]
    1632                    $C$DW$80        .dwtag  DW_TAG_TI_branch
    1633                            .dwattr $C$DW$80, DW_AT_low_pc(0x00)
    1634                            .dwattr $C$DW$80, DW_AT_name("blockUsed")
    1635                            .dwattr $C$DW$80, DW_AT_TI_call
    1636                    
    1637 00000288 FFFEF7FF!         BL        blockUsed             ; [DPU_3_PIPE] |281|  ; [KEEP 32-BIT INS]
    1638                            ; CALL OCCURS {blockUsed }       ; [] |281| 
    1639 0000028c B148              CBZ       A1, ||$C$L37||        ; []  ; [ORIG 16-BIT INS]
    1640                            ; BRANCHCC OCCURS {||$C$L37||}   ; [] |281| 
    1641                    ;* --------------------------------------------------------------------------*
    1642                            .dwpsn  file "../heap.c",line 282,column 7,is_stmt,isa 1
    1643                    ;----------------------------------------------------------------------
    1644                    ; 282 | stats.wordsAllocated += blockRoom(blockStart);                         
    1645                    ;----------------------------------------------------------------------
    1646 0000028e 9805              LDR       A1, [SP, #20]         ; [DPU_3_PIPE] |282|  ; [ORIG 16-BIT INS]
    1647                    $C$DW$81        .dwtag  DW_TAG_TI_branch
    1648                            .dwattr $C$DW$81, DW_AT_low_pc(0x00)
TI ARM Assembler PC v16.9.6 Sun Dec 02 13:28:42 2018

Tools Copyright (c) 1996-2017 Texas Instruments Incorporated
heap.asm                                                             PAGE   31

    1649                            .dwattr $C$DW$81, DW_AT_name("blockRoom")
    1650                            .dwattr $C$DW$81, DW_AT_TI_call
    1651                    
    1652 00000290 FFFEF7FF!         BL        blockRoom             ; [DPU_3_PIPE] |282|  ; [KEEP 32-BIT INS]
    1653                            ; CALL OCCURS {blockRoom }       ; [] |282| 
    1654 00000294 9900              LDR       A2, [SP, #0]          ; [DPU_3_PIPE] |282|  ; [ORIG 16-BIT INS]
    1655 00000296 1808              ADDS      A1, A2, A1            ; [DPU_3_PIPE] |282|  ; [ORIG 16-BIT INS]
    1656 00000298 9000              STR       A1, [SP, #0]          ; [DPU_3_PIPE] |282|  ; [ORIG 16-BIT INS]
    1657                            .dwpsn  file "../heap.c",line 283,column 7,is_stmt,isa 1
    1658                    ;----------------------------------------------------------------------
    1659                    ; 283 | stats.blocksUsed++;                                                    
    1660                    ;----------------------------------------------------------------------
    1661 0000029a 9803              LDR       A1, [SP, #12]         ; [DPU_3_PIPE] |283|  ; [ORIG 16-BIT INS]
    1662 0000029c 1C40              ADDS      A1, A1, #1            ; [DPU_3_PIPE] |283|  ; [ORIG 16-BIT INS]
    1663 0000029e 9003              STR       A1, [SP, #12]         ; [DPU_3_PIPE] |283|  ; [ORIG 16-BIT INS]
    1664                            .dwpsn  file "../heap.c",line 284,column 5,is_stmt,isa 1
    1665                    ;----------------------------------------------------------------------
    1666                    ; 285 | else{                                                                  
    1667                    ;----------------------------------------------------------------------
    1668 000002a0 E008              B         ||$C$L38||            ; [DPU_3_PIPE] |284|  ; [ORIG 16-BIT INS]
    1669                            ; BRANCH OCCURS {||$C$L38||}     ; [] |284| 
    1670                    ;* --------------------------------------------------------------------------*
    1671 000002a2           ||$C$L37||:    
    1672                            .dwpsn  file "../heap.c",line 286,column 7,is_stmt,isa 1
    1673                    ;----------------------------------------------------------------------
    1674                    ; 286 | stats.wordsAvailable += blockRoom(blockStart);                         
    1675                    ;----------------------------------------------------------------------
    1676 000002a2 9805              LDR       A1, [SP, #20]         ; [DPU_3_PIPE] |286|  ; [ORIG 16-BIT INS]
    1677                    $C$DW$82        .dwtag  DW_TAG_TI_branch
    1678                            .dwattr $C$DW$82, DW_AT_low_pc(0x00)
    1679                            .dwattr $C$DW$82, DW_AT_name("blockRoom")
    1680                            .dwattr $C$DW$82, DW_AT_TI_call
    1681                    
    1682 000002a4 FFFEF7FF!         BL        blockRoom             ; [DPU_3_PIPE] |286|  ; [KEEP 32-BIT INS]
    1683                            ; CALL OCCURS {blockRoom }       ; [] |286| 
    1684 000002a8 9901              LDR       A2, [SP, #4]          ; [DPU_3_PIPE] |286|  ; [ORIG 16-BIT INS]
    1685 000002aa 1808              ADDS      A1, A2, A1            ; [DPU_3_PIPE] |286|  ; [ORIG 16-BIT INS]
    1686 000002ac 9001              STR       A1, [SP, #4]          ; [DPU_3_PIPE] |286|  ; [ORIG 16-BIT INS]
    1687                            .dwpsn  file "../heap.c",line 287,column 7,is_stmt,isa 1
    1688                    ;----------------------------------------------------------------------
    1689                    ; 287 | stats.blocksUnused++;                                                  
    1690                    ;----------------------------------------------------------------------
    1691 000002ae 9804              LDR       A1, [SP, #16]         ; [DPU_3_PIPE] |287|  ; [ORIG 16-BIT INS]
    1692 000002b0 1C40              ADDS      A1, A1, #1            ; [DPU_3_PIPE] |287|  ; [ORIG 16-BIT INS]
    1693 000002b2 9004              STR       A1, [SP, #16]         ; [DPU_3_PIPE] |287|  ; [ORIG 16-BIT INS]
    1694                    ;* --------------------------------------------------------------------------*
    1695 000002b4           ||$C$L38||:    
    1696                            .dwpsn  file "../heap.c",line 289,column 5,is_stmt,isa 1
    1697                    ;----------------------------------------------------------------------
    1698                    ; 289 | blockStart = nextBlockHeader(blockStart);                              
    1699                    ;----------------------------------------------------------------------
    1700 000002b4 9805              LDR       A1, [SP, #20]         ; [DPU_3_PIPE] |289|  ; [ORIG 16-BIT INS]
    1701                    $C$DW$83        .dwtag  DW_TAG_TI_branch
    1702                            .dwattr $C$DW$83, DW_AT_low_pc(0x00)
    1703                            .dwattr $C$DW$83, DW_AT_name("nextBlockHeader")
TI ARM Assembler PC v16.9.6 Sun Dec 02 13:28:42 2018

Tools Copyright (c) 1996-2017 Texas Instruments Incorporated
heap.asm                                                             PAGE   32

    1704                            .dwattr $C$DW$83, DW_AT_TI_call
    1705                    
    1706 000002b6 FFFEF7FF!         BL        nextBlockHeader       ; [DPU_3_PIPE] |289|  ; [KEEP 32-BIT INS]
    1707                            ; CALL OCCURS {nextBlockHeader }  ; [] |289| 
    1708 000002ba 9005              STR       A1, [SP, #20]         ; [DPU_3_PIPE] |289|  ; [ORIG 16-BIT INS]
    1709                    ;* --------------------------------------------------------------------------*
    1710                    ;*   BEGIN LOOP ||$C$L39||
    1711                    ;* --------------------------------------------------------------------------*
    1712 000002bc           ||$C$L39||:    
    1713                            .dwpsn  file "../heap.c",line 280,column 3,is_stmt,isa 1
    1714 000002bc 9805              LDR       A1, [SP, #20]         ; [DPU_3_PIPE] |280|  ; [ORIG 16-BIT INS]
    1715                    $C$DW$84        .dwtag  DW_TAG_TI_branch
    1716                            .dwattr $C$DW$84, DW_AT_low_pc(0x00)
    1717                            .dwattr $C$DW$84, DW_AT_name("inHeapRange")
    1718                            .dwattr $C$DW$84, DW_AT_TI_call
    1719                    
    1720 000002be FFFEF7FF!         BL        inHeapRange           ; [DPU_3_PIPE] |280|  ; [KEEP 32-BIT INS]
    1721                            ; CALL OCCURS {inHeapRange }     ; [] |280| 
    1722 000002c2 2800              CMP       A1, #0                ; [DPU_3_PIPE] |280|  ; [ORIG 16-BIT INS]
    1723 000002c4 D1DF              BNE       ||$C$L36||            ; [DPU_3_PIPE] |280|  ; [ORIG 16-BIT INS]
    1724                            ; BRANCHCC OCCURS {||$C$L36||}   ; [] |280| 
    1725                    ;* --------------------------------------------------------------------------*
    1726                            .dwpsn  file "../heap.c",line 291,column 3,is_stmt,isa 1
    1727                    ;----------------------------------------------------------------------
    1728                    ; 291 | stats.wordsOverhead = HEAP_SIZE_WORDS - stats.wordsAllocated - stats.wo
    1729                    ;     | rdsAvailable;                                                          
    1730                    ;----------------------------------------------------------------------
    1731 000002c6 9800              LDR       A1, [SP, #0]          ; [DPU_3_PIPE] |291|  ; [ORIG 16-BIT INS]
    1732 000002c8 9901              LDR       A2, [SP, #4]          ; [DPU_3_PIPE] |291|  ; [ORIG 16-BIT INS]
    1733 000002ca 0090F1C0          RSB       A1, A1, #144          ; [DPU_3_PIPE] |291|  ; [KEEP 32-BIT INS]
    1734 000002ce 1A40              SUBS      A1, A1, A2            ; [DPU_3_PIPE] |291|  ; [ORIG 16-BIT INS]
    1735 000002d0 9002              STR       A1, [SP, #8]          ; [DPU_3_PIPE] |291|  ; [ORIG 16-BIT INS]
    1736                            .dwpsn  file "../heap.c",line 292,column 3,is_stmt,isa 1
    1737                    ;----------------------------------------------------------------------
    1738                    ; 292 | return stats;                                                          
    1739                    ;----------------------------------------------------------------------
    1740 000002d2 4668              MOV       A1, SP                ; [DPU_3_PIPE] |292|  ; [ORIG 16-BIT INS]
    1741 000002d4 C80E              LDMIA     A1!, {A4, A3, A2}     ; [DPU_3_PIPE] |292|  ; [ORIG 16-BIT INS]
    1742 000002d6 C40E              STMIA     V1!, {A4, A3, A2}     ; [DPU_3_PIPE] |292|  ; [ORIG 16-BIT INS]
    1743 000002d8 C803              LDMIA     A1, {A2, A1}          ; [DPU_3_PIPE] |292|  ; [ORIG 16-BIT INS]
    1744 000002da 0003E884          STMIA     V1, {A2, A1}          ; [DPU_3_PIPE] |292|  ; [KEEP 32-BIT INS]
    1745                            .dwpsn  file "../heap.c",line 293,column 1,is_stmt,isa 1
    1746 000002de B006              ADD       SP, SP, #24           ; [DPU_3_PIPE]  ; [ORIG 16-BIT INS]
    1747                            .dwcfi  cfa_offset, 8
    1748                    $C$DW$85        .dwtag  DW_TAG_TI_branch
    1749                            .dwattr $C$DW$85, DW_AT_low_pc(0x00)
    1750                            .dwattr $C$DW$85, DW_AT_TI_return
    1751                    
    1752 000002e0 BD10              POP       {V1, PC}              ; [DPU_3_PIPE]  ; [ORIG 16-BIT INS]
    1753                            .dwcfi  cfa_offset, 0
    1754                            .dwcfi  restore_reg, 4
    1755                            ; BRANCH OCCURS                  ; [] 
    1756                            .dwattr $C$DW$77, DW_AT_TI_end_file("../heap.c")
    1757                            .dwattr $C$DW$77, DW_AT_TI_end_line(0x125)
    1758                            .dwattr $C$DW$77, DW_AT_TI_end_column(0x01)
TI ARM Assembler PC v16.9.6 Sun Dec 02 13:28:42 2018

Tools Copyright (c) 1996-2017 Texas Instruments Incorporated
heap.asm                                                             PAGE   33

    1759                            .dwendentry
    1760                            .dwendtag $C$DW$77
    1761                    
    1762 000002e2                   .sect   ".text"
    1763                            .clink
    1764                            .thumbfunc inHeapRange
    1765 000002e2                   .thumb
    1766                    
    1767                    $C$DW$86        .dwtag  DW_TAG_subprogram
    1768                            .dwattr $C$DW$86, DW_AT_name("inHeapRange")
    1769                            .dwattr $C$DW$86, DW_AT_low_pc(inHeapRange)
    1770                            .dwattr $C$DW$86, DW_AT_high_pc(0x00)
    1771                            .dwattr $C$DW$86, DW_AT_TI_symbol_name("inHeapRange")
    1772                            .dwattr $C$DW$86, DW_AT_type(*$C$DW$T$19)
    1773                            .dwattr $C$DW$86, DW_AT_TI_begin_file("../heap.c")
    1774                            .dwattr $C$DW$86, DW_AT_TI_begin_line(0x12b)
    1775                            .dwattr $C$DW$86, DW_AT_TI_begin_column(0x10)
    1776                            .dwattr $C$DW$86, DW_AT_decl_file("../heap.c")
    1777                            .dwattr $C$DW$86, DW_AT_decl_line(0x12b)
    1778                            .dwattr $C$DW$86, DW_AT_decl_column(0x10)
    1779                            .dwattr $C$DW$86, DW_AT_TI_max_frame_size(0x08)
    1780                            .dwpsn  file "../heap.c",line 299,column 45,is_stmt,address inHeapRange,isa 1
    1781                    
    1782                            .dwfde $C$DW$CIE, inHeapRange
    1783                    $C$DW$87        .dwtag  DW_TAG_formal_parameter
    1784                            .dwattr $C$DW$87, DW_AT_name("address")
    1785                            .dwattr $C$DW$87, DW_AT_TI_symbol_name("address")
    1786                            .dwattr $C$DW$87, DW_AT_type(*$C$DW$T$24)
    1787                            .dwattr $C$DW$87, DW_AT_location[DW_OP_reg0]
    1788                    
    1789                    
    1790                    ;*****************************************************************************
    1791                    ;* FUNCTION NAME: inHeapRange                                                *
    1792                    ;*                                                                           *
    1793                    ;*   Regs Modified     : A1,A2,A3,SP,SR                                      *
    1794                    ;*   Regs Used         : A1,A2,A3,SP,LR,SR                                   *
    1795                    ;*   Local Frame Size  : 0 Args + 4 Auto + 0 Save = 4 byte                   *
    1796                    ;*****************************************************************************
    1797 000002e2           inHeapRange:
    1798                    ;* --------------------------------------------------------------------------*
    1799                            .dwcfi  cfa_offset, 0
    1800 000002e2 0D08F1AD          SUB       SP, SP, #8            ; [DPU_3_PIPE]  ; [KEEP 32-BIT INS]
    1801                            .dwcfi  cfa_offset, 8
    1802                    $C$DW$88        .dwtag  DW_TAG_variable
    1803                            .dwattr $C$DW$88, DW_AT_name("address")
    1804                            .dwattr $C$DW$88, DW_AT_TI_symbol_name("address")
    1805                            .dwattr $C$DW$88, DW_AT_type(*$C$DW$T$24)
    1806                            .dwattr $C$DW$88, DW_AT_location[DW_OP_breg13 0]
    1807                    
    1808                    ;----------------------------------------------------------------------
    1809                    ; 299 | static int32_t inHeapRange(int32_t* address){                          
    1810                    ;----------------------------------------------------------------------
    1811 000002e6 9000              STR       A1, [SP, #0]          ; [DPU_3_PIPE] |299|  ; [ORIG 16-BIT INS]
    1812                            .dwpsn  file "../heap.c",line 300,column 3,is_stmt,isa 1
    1813                    ;----------------------------------------------------------------------
TI ARM Assembler PC v16.9.6 Sun Dec 02 13:28:42 2018

Tools Copyright (c) 1996-2017 Texas Instruments Incorporated
heap.asm                                                             PAGE   34

    1814                    ; 300 | return address >= HEAP_START && address < HEAP_END;                    
    1815                    ;----------------------------------------------------------------------
    1816 000002e8 4A73              LDR       A3, $C$CON4           ; [DPU_3_PIPE] |300|  ; [ORIG 16-BIT INS]
    1817 000002ea 9900              LDR       A2, [SP, #0]          ; [DPU_3_PIPE] |300|  ; [ORIG 16-BIT INS]
    1818 000002ec 2000              MOVS      A1, #0                ; [DPU_3_PIPE] |300|  ; [ORIG 16-BIT INS]
    1819 000002ee 428A              CMP       A3, A2                ; [DPU_3_PIPE] |300|  ; [ORIG 16-BIT INS]
    1820 000002f0 D804              BHI       ||$C$L40||            ; [DPU_3_PIPE] |300|  ; [ORIG 16-BIT INS]
    1821                            ; BRANCHCC OCCURS {||$C$L40||}   ; [] |300| 
    1822                    ;* --------------------------------------------------------------------------*
    1823 000002f2 4A70              LDR       A3, $C$CON3           ; [DPU_3_PIPE] |300|  ; [ORIG 16-BIT INS]
    1824 000002f4 9900              LDR       A2, [SP, #0]          ; [DPU_3_PIPE] |300|  ; [ORIG 16-BIT INS]
    1825 000002f6 428A              CMP       A3, A2                ; [DPU_3_PIPE] |300|  ; [ORIG 16-BIT INS]
    1826 000002f8 D900              BLS       ||$C$L40||            ; [DPU_3_PIPE] |300|  ; [ORIG 16-BIT INS]
    1827                            ; BRANCHCC OCCURS {||$C$L40||}   ; [] |300| 
    1828                    ;* --------------------------------------------------------------------------*
    1829 000002fa 2001              MOVS      A1, #1                ; [DPU_3_PIPE] |300|  ; [ORIG 16-BIT INS]
    1830                    ;* --------------------------------------------------------------------------*
    1831 000002fc           ||$C$L40||:    
    1832                            .dwpsn  file "../heap.c",line 301,column 1,is_stmt,isa 1
    1833 000002fc B002              ADD       SP, SP, #8            ; [DPU_3_PIPE]  ; [ORIG 16-BIT INS]
    1834                            .dwcfi  cfa_offset, 0
    1835                    $C$DW$89        .dwtag  DW_TAG_TI_branch
    1836                            .dwattr $C$DW$89, DW_AT_low_pc(0x00)
    1837                            .dwattr $C$DW$89, DW_AT_TI_return
    1838                    
    1839 000002fe 4770              BX        LR                    ; [DPU_3_PIPE]  ; [ORIG 16-BIT INS]
    1840                            ; BRANCH OCCURS                  ; [] 
    1841                            .dwattr $C$DW$86, DW_AT_TI_end_file("../heap.c")
    1842                            .dwattr $C$DW$86, DW_AT_TI_end_line(0x12d)
    1843                            .dwattr $C$DW$86, DW_AT_TI_end_column(0x01)
    1844                            .dwendentry
    1845                            .dwendtag $C$DW$86
    1846                    
    1847 00000300                   .sect   ".text"
    1848                            .clink
    1849                            .thumbfunc blockUsed
    1850 00000300                   .thumb
    1851                    
    1852                    $C$DW$90        .dwtag  DW_TAG_subprogram
    1853                            .dwattr $C$DW$90, DW_AT_name("blockUsed")
    1854                            .dwattr $C$DW$90, DW_AT_low_pc(blockUsed)
    1855                            .dwattr $C$DW$90, DW_AT_high_pc(0x00)
    1856                            .dwattr $C$DW$90, DW_AT_TI_symbol_name("blockUsed")
    1857                            .dwattr $C$DW$90, DW_AT_type(*$C$DW$T$19)
    1858                            .dwattr $C$DW$90, DW_AT_TI_begin_file("../heap.c")
    1859                            .dwattr $C$DW$90, DW_AT_TI_begin_line(0x133)
    1860                            .dwattr $C$DW$90, DW_AT_TI_begin_column(0x10)
    1861                            .dwattr $C$DW$90, DW_AT_decl_file("../heap.c")
    1862                            .dwattr $C$DW$90, DW_AT_decl_line(0x133)
    1863                            .dwattr $C$DW$90, DW_AT_decl_column(0x10)
    1864                            .dwattr $C$DW$90, DW_AT_TI_max_frame_size(0x08)
    1865                            .dwpsn  file "../heap.c",line 307,column 41,is_stmt,address blockUsed,isa 1
    1866                    
    1867                            .dwfde $C$DW$CIE, blockUsed
    1868                    $C$DW$91        .dwtag  DW_TAG_formal_parameter
TI ARM Assembler PC v16.9.6 Sun Dec 02 13:28:42 2018

Tools Copyright (c) 1996-2017 Texas Instruments Incorporated
heap.asm                                                             PAGE   35

    1869                            .dwattr $C$DW$91, DW_AT_name("block")
    1870                            .dwattr $C$DW$91, DW_AT_TI_symbol_name("block")
    1871                            .dwattr $C$DW$91, DW_AT_type(*$C$DW$T$24)
    1872                            .dwattr $C$DW$91, DW_AT_location[DW_OP_reg0]
    1873                    
    1874                    
    1875                    ;*****************************************************************************
    1876                    ;* FUNCTION NAME: blockUsed                                                  *
    1877                    ;*                                                                           *
    1878                    ;*   Regs Modified     : A1,A2,SP,SR                                         *
    1879                    ;*   Regs Used         : A1,A2,SP,LR,SR                                      *
    1880                    ;*   Local Frame Size  : 0 Args + 4 Auto + 0 Save = 4 byte                   *
    1881                    ;*****************************************************************************
    1882 00000300           blockUsed:
    1883                    ;* --------------------------------------------------------------------------*
    1884                            .dwcfi  cfa_offset, 0
    1885 00000300 0D08F1AD          SUB       SP, SP, #8            ; [DPU_3_PIPE]  ; [KEEP 32-BIT INS]
    1886                            .dwcfi  cfa_offset, 8
    1887                    $C$DW$92        .dwtag  DW_TAG_variable
    1888                            .dwattr $C$DW$92, DW_AT_name("block")
    1889                            .dwattr $C$DW$92, DW_AT_TI_symbol_name("block")
    1890                            .dwattr $C$DW$92, DW_AT_type(*$C$DW$T$24)
    1891                            .dwattr $C$DW$92, DW_AT_location[DW_OP_breg13 0]
    1892                    
    1893                    ;----------------------------------------------------------------------
    1894                    ; 307 | static int32_t blockUsed(int32_t* block){                              
    1895                    ;----------------------------------------------------------------------
    1896 00000304 9000              STR       A1, [SP, #0]          ; [DPU_3_PIPE] |307|  ; [ORIG 16-BIT INS]
    1897                            .dwpsn  file "../heap.c",line 308,column 3,is_stmt,isa 1
    1898                    ;----------------------------------------------------------------------
    1899                    ; 308 | return *block > 0;                                                     
    1900                    ;----------------------------------------------------------------------
    1901 00000306 9800              LDR       A1, [SP, #0]          ; [DPU_3_PIPE] |308|  ; [ORIG 16-BIT INS]
    1902 00000308 6801              LDR       A2, [A1, #0]          ; [DPU_3_PIPE] |308|  ; [ORIG 16-BIT INS]
    1903 0000030a 2900              CMP       A2, #0                ; [DPU_3_PIPE] |308|  ; [ORIG 16-BIT INS]
    1904 0000030c 0000F04F          MOV       A1, #0                ; [DPU_3_PIPE] |308|  ; [KEEP 32-BIT INS]
    1905 00000310 DD00              BLE       ||$C$L41||            ; [DPU_3_PIPE] |308|  ; [ORIG 16-BIT INS]
    1906                            ; BRANCHCC OCCURS {||$C$L41||}   ; [] |308| 
    1907                    ;* --------------------------------------------------------------------------*
    1908 00000312 2001              MOVS      A1, #1                ; [DPU_3_PIPE] |308|  ; [ORIG 16-BIT INS]
    1909                    ;* --------------------------------------------------------------------------*
    1910 00000314           ||$C$L41||:    
    1911                            .dwpsn  file "../heap.c",line 309,column 1,is_stmt,isa 1
    1912 00000314 B002              ADD       SP, SP, #8            ; [DPU_3_PIPE]  ; [ORIG 16-BIT INS]
    1913                            .dwcfi  cfa_offset, 0
    1914                    $C$DW$93        .dwtag  DW_TAG_TI_branch
    1915                            .dwattr $C$DW$93, DW_AT_low_pc(0x00)
    1916                            .dwattr $C$DW$93, DW_AT_TI_return
    1917                    
    1918 00000316 4770              BX        LR                    ; [DPU_3_PIPE]  ; [ORIG 16-BIT INS]
    1919                            ; BRANCH OCCURS                  ; [] 
    1920                            .dwattr $C$DW$90, DW_AT_TI_end_file("../heap.c")
    1921                            .dwattr $C$DW$90, DW_AT_TI_end_line(0x135)
    1922                            .dwattr $C$DW$90, DW_AT_TI_end_column(0x01)
    1923                            .dwendentry
TI ARM Assembler PC v16.9.6 Sun Dec 02 13:28:42 2018

Tools Copyright (c) 1996-2017 Texas Instruments Incorporated
heap.asm                                                             PAGE   36

    1924                            .dwendtag $C$DW$90
    1925                    
    1926 00000318                   .sect   ".text"
    1927                            .clink
    1928                            .thumbfunc blockUnused
    1929 00000318                   .thumb
    1930                    
    1931                    $C$DW$94        .dwtag  DW_TAG_subprogram
    1932                            .dwattr $C$DW$94, DW_AT_name("blockUnused")
    1933                            .dwattr $C$DW$94, DW_AT_low_pc(blockUnused)
    1934                            .dwattr $C$DW$94, DW_AT_high_pc(0x00)
    1935                            .dwattr $C$DW$94, DW_AT_TI_symbol_name("blockUnused")
    1936                            .dwattr $C$DW$94, DW_AT_type(*$C$DW$T$19)
    1937                            .dwattr $C$DW$94, DW_AT_TI_begin_file("../heap.c")
    1938                            .dwattr $C$DW$94, DW_AT_TI_begin_line(0x13b)
    1939                            .dwattr $C$DW$94, DW_AT_TI_begin_column(0x10)
    1940                            .dwattr $C$DW$94, DW_AT_decl_file("../heap.c")
    1941                            .dwattr $C$DW$94, DW_AT_decl_line(0x13b)
    1942                            .dwattr $C$DW$94, DW_AT_decl_column(0x10)
    1943                            .dwattr $C$DW$94, DW_AT_TI_max_frame_size(0x08)
    1944                            .dwpsn  file "../heap.c",line 315,column 43,is_stmt,address blockUnused,isa 1
    1945                    
    1946                            .dwfde $C$DW$CIE, blockUnused
    1947                    $C$DW$95        .dwtag  DW_TAG_formal_parameter
    1948                            .dwattr $C$DW$95, DW_AT_name("block")
    1949                            .dwattr $C$DW$95, DW_AT_TI_symbol_name("block")
    1950                            .dwattr $C$DW$95, DW_AT_type(*$C$DW$T$24)
    1951                            .dwattr $C$DW$95, DW_AT_location[DW_OP_reg0]
    1952                    
    1953                    
    1954                    ;*****************************************************************************
    1955                    ;* FUNCTION NAME: blockUnused                                                *
    1956                    ;*                                                                           *
    1957                    ;*   Regs Modified     : A1,A2,SP,SR                                         *
    1958                    ;*   Regs Used         : A1,A2,SP,LR,SR                                      *
    1959                    ;*   Local Frame Size  : 0 Args + 4 Auto + 0 Save = 4 byte                   *
    1960                    ;*****************************************************************************
    1961 00000318           blockUnused:
    1962                    ;* --------------------------------------------------------------------------*
    1963                            .dwcfi  cfa_offset, 0
    1964 00000318 0D08F1AD          SUB       SP, SP, #8            ; [DPU_3_PIPE]  ; [KEEP 32-BIT INS]
    1965                            .dwcfi  cfa_offset, 8
    1966                    $C$DW$96        .dwtag  DW_TAG_variable
    1967                            .dwattr $C$DW$96, DW_AT_name("block")
    1968                            .dwattr $C$DW$96, DW_AT_TI_symbol_name("block")
    1969                            .dwattr $C$DW$96, DW_AT_type(*$C$DW$T$24)
    1970                            .dwattr $C$DW$96, DW_AT_location[DW_OP_breg13 0]
    1971                    
    1972                    ;----------------------------------------------------------------------
    1973                    ; 315 | static int32_t blockUnused(int32_t* block){                            
    1974                    ;----------------------------------------------------------------------
    1975 0000031c 9000              STR       A1, [SP, #0]          ; [DPU_3_PIPE] |315|  ; [ORIG 16-BIT INS]
    1976                            .dwpsn  file "../heap.c",line 316,column 3,is_stmt,isa 1
    1977                    ;----------------------------------------------------------------------
    1978                    ; 316 | return *block < 0;                                                     
TI ARM Assembler PC v16.9.6 Sun Dec 02 13:28:42 2018

Tools Copyright (c) 1996-2017 Texas Instruments Incorporated
heap.asm                                                             PAGE   37

    1979                    ;----------------------------------------------------------------------
    1980 0000031e 9800              LDR       A1, [SP, #0]          ; [DPU_3_PIPE] |316|  ; [ORIG 16-BIT INS]
    1981 00000320 6801              LDR       A2, [A1, #0]          ; [DPU_3_PIPE] |316|  ; [ORIG 16-BIT INS]
    1982 00000322 2900              CMP       A2, #0                ; [DPU_3_PIPE] |316|  ; [ORIG 16-BIT INS]
    1983 00000324 0000F04F          MOV       A1, #0                ; [DPU_3_PIPE] |316|  ; [KEEP 32-BIT INS]
    1984 00000328 D500              BPL       ||$C$L42||            ; [DPU_3_PIPE] |316|  ; [ORIG 16-BIT INS]
    1985                            ; BRANCHCC OCCURS {||$C$L42||}   ; [] |316| 
    1986                    ;* --------------------------------------------------------------------------*
    1987 0000032a 2001              MOVS      A1, #1                ; [DPU_3_PIPE] |316|  ; [ORIG 16-BIT INS]
    1988                    ;* --------------------------------------------------------------------------*
    1989 0000032c           ||$C$L42||:    
    1990                            .dwpsn  file "../heap.c",line 317,column 1,is_stmt,isa 1
    1991 0000032c B002              ADD       SP, SP, #8            ; [DPU_3_PIPE]  ; [ORIG 16-BIT INS]
    1992                            .dwcfi  cfa_offset, 0
    1993                    $C$DW$97        .dwtag  DW_TAG_TI_branch
    1994                            .dwattr $C$DW$97, DW_AT_low_pc(0x00)
    1995                            .dwattr $C$DW$97, DW_AT_TI_return
    1996                    
    1997 0000032e 4770              BX        LR                    ; [DPU_3_PIPE]  ; [ORIG 16-BIT INS]
    1998                            ; BRANCH OCCURS                  ; [] 
    1999                            .dwattr $C$DW$94, DW_AT_TI_end_file("../heap.c")
    2000                            .dwattr $C$DW$94, DW_AT_TI_end_line(0x13d)
    2001                            .dwattr $C$DW$94, DW_AT_TI_end_column(0x01)
    2002                            .dwendentry
    2003                            .dwendtag $C$DW$94
    2004                    
    2005 00000330                   .sect   ".text"
    2006                            .clink
    2007                            .thumbfunc blockRoom
    2008 00000330                   .thumb
    2009                    
    2010                    $C$DW$98        .dwtag  DW_TAG_subprogram
    2011                            .dwattr $C$DW$98, DW_AT_name("blockRoom")
    2012                            .dwattr $C$DW$98, DW_AT_low_pc(blockRoom)
    2013                            .dwattr $C$DW$98, DW_AT_high_pc(0x00)
    2014                            .dwattr $C$DW$98, DW_AT_TI_symbol_name("blockRoom")
    2015                            .dwattr $C$DW$98, DW_AT_type(*$C$DW$T$19)
    2016                            .dwattr $C$DW$98, DW_AT_TI_begin_file("../heap.c")
    2017                            .dwattr $C$DW$98, DW_AT_TI_begin_line(0x143)
    2018                            .dwattr $C$DW$98, DW_AT_TI_begin_column(0x10)
    2019                            .dwattr $C$DW$98, DW_AT_decl_file("../heap.c")
    2020                            .dwattr $C$DW$98, DW_AT_decl_line(0x143)
    2021                            .dwattr $C$DW$98, DW_AT_decl_column(0x10)
    2022                            .dwattr $C$DW$98, DW_AT_TI_max_frame_size(0x08)
    2023                            .dwpsn  file "../heap.c",line 323,column 41,is_stmt,address blockRoom,isa 1
    2024                    
    2025                            .dwfde $C$DW$CIE, blockRoom
    2026                    $C$DW$99        .dwtag  DW_TAG_formal_parameter
    2027                            .dwattr $C$DW$99, DW_AT_name("block")
    2028                            .dwattr $C$DW$99, DW_AT_TI_symbol_name("block")
    2029                            .dwattr $C$DW$99, DW_AT_type(*$C$DW$T$24)
    2030                            .dwattr $C$DW$99, DW_AT_location[DW_OP_reg0]
    2031                    
    2032                    
    2033                    ;*****************************************************************************
TI ARM Assembler PC v16.9.6 Sun Dec 02 13:28:42 2018

Tools Copyright (c) 1996-2017 Texas Instruments Incorporated
heap.asm                                                             PAGE   38

    2034                    ;* FUNCTION NAME: blockRoom                                                  *
    2035                    ;*                                                                           *
    2036                    ;*   Regs Modified     : A1,SP,SR                                            *
    2037                    ;*   Regs Used         : A1,SP,LR,SR                                         *
    2038                    ;*   Local Frame Size  : 0 Args + 4 Auto + 0 Save = 4 byte                   *
    2039                    ;*****************************************************************************
    2040 00000330           blockRoom:
    2041                    ;* --------------------------------------------------------------------------*
    2042                            .dwcfi  cfa_offset, 0
    2043 00000330 0D08F1AD          SUB       SP, SP, #8            ; [DPU_3_PIPE]  ; [KEEP 32-BIT INS]
    2044                            .dwcfi  cfa_offset, 8
    2045                    $C$DW$100       .dwtag  DW_TAG_variable
    2046                            .dwattr $C$DW$100, DW_AT_name("block")
    2047                            .dwattr $C$DW$100, DW_AT_TI_symbol_name("block")
    2048                            .dwattr $C$DW$100, DW_AT_type(*$C$DW$T$24)
    2049                            .dwattr $C$DW$100, DW_AT_location[DW_OP_breg13 0]
    2050                    
    2051                    ;----------------------------------------------------------------------
    2052                    ; 323 | static int32_t blockRoom(int32_t* block){                              
    2053                    ;----------------------------------------------------------------------
    2054 00000334 9000              STR       A1, [SP, #0]          ; [DPU_3_PIPE] |323|  ; [ORIG 16-BIT INS]
    2055                            .dwpsn  file "../heap.c",line 324,column 3,is_stmt,isa 1
    2056                    ;----------------------------------------------------------------------
    2057                    ; 324 | if(*block > 0){                                                        
    2058                    ;----------------------------------------------------------------------
    2059 00000336 9800              LDR       A1, [SP, #0]          ; [DPU_3_PIPE] |324|  ; [ORIG 16-BIT INS]
    2060 00000338 6800              LDR       A1, [A1, #0]          ; [DPU_3_PIPE] |324|  ; [ORIG 16-BIT INS]
    2061 0000033a 2800              CMP       A1, #0                ; [DPU_3_PIPE] |324|  ; [ORIG 16-BIT INS]
    2062 0000033c DD02              BLE       ||$C$L43||            ; [DPU_3_PIPE] |324|  ; [ORIG 16-BIT INS]
    2063                            ; BRANCHCC OCCURS {||$C$L43||}   ; [] |324| 
    2064                    ;* --------------------------------------------------------------------------*
    2065                            .dwpsn  file "../heap.c",line 325,column 5,is_stmt,isa 1
    2066                    ;----------------------------------------------------------------------
    2067                    ; 325 | return *block;                                                         
    2068                    ;----------------------------------------------------------------------
    2069 0000033e 9800              LDR       A1, [SP, #0]          ; [DPU_3_PIPE] |325|  ; [ORIG 16-BIT INS]
    2070 00000340 6800              LDR       A1, [A1, #0]          ; [DPU_3_PIPE] |325|  ; [ORIG 16-BIT INS]
    2071 00000342 E002              B         ||$C$L44||            ; [DPU_3_PIPE] |325|  ; [ORIG 16-BIT INS]
    2072                            ; BRANCH OCCURS {||$C$L44||}     ; [] |325| 
    2073                    ;* --------------------------------------------------------------------------*
    2074 00000344           ||$C$L43||:    
    2075                            .dwpsn  file "../heap.c",line 327,column 3,is_stmt,isa 1
    2076                    ;----------------------------------------------------------------------
    2077                    ; 327 | return -*block;                                                        
    2078                    ;----------------------------------------------------------------------
    2079 00000344 9800              LDR       A1, [SP, #0]          ; [DPU_3_PIPE] |327|  ; [ORIG 16-BIT INS]
    2080 00000346 6800              LDR       A1, [A1, #0]          ; [DPU_3_PIPE] |327|  ; [ORIG 16-BIT INS]
    2081 00000348 4240              RSBS      A1, A1, #0            ; [DPU_3_PIPE] |327|  ; [ORIG 16-BIT INS]
    2082                    ;* --------------------------------------------------------------------------*
    2083 0000034a           ||$C$L44||:    
    2084                            .dwpsn  file "../heap.c",line 328,column 1,is_stmt,isa 1
    2085 0000034a B002              ADD       SP, SP, #8            ; [DPU_3_PIPE]  ; [ORIG 16-BIT INS]
    2086                            .dwcfi  cfa_offset, 0
    2087                    $C$DW$101       .dwtag  DW_TAG_TI_branch
    2088                            .dwattr $C$DW$101, DW_AT_low_pc(0x00)
TI ARM Assembler PC v16.9.6 Sun Dec 02 13:28:42 2018

Tools Copyright (c) 1996-2017 Texas Instruments Incorporated
heap.asm                                                             PAGE   39

    2089                            .dwattr $C$DW$101, DW_AT_TI_return
    2090                    
    2091 0000034c 4770              BX        LR                    ; [DPU_3_PIPE]  ; [ORIG 16-BIT INS]
    2092                            ; BRANCH OCCURS                  ; [] 
    2093                            .dwattr $C$DW$98, DW_AT_TI_end_file("../heap.c")
    2094                            .dwattr $C$DW$98, DW_AT_TI_end_line(0x148)
    2095                            .dwattr $C$DW$98, DW_AT_TI_end_column(0x01)
    2096                            .dwendentry
    2097                            .dwendtag $C$DW$98
    2098                    
    2099 0000034e                   .sect   ".text"
    2100                            .clink
    2101                            .thumbfunc blockHeader
    2102 0000034e                   .thumb
    2103                    
    2104                    $C$DW$102       .dwtag  DW_TAG_subprogram
    2105                            .dwattr $C$DW$102, DW_AT_name("blockHeader")
    2106                            .dwattr $C$DW$102, DW_AT_low_pc(blockHeader)
    2107                            .dwattr $C$DW$102, DW_AT_high_pc(0x00)
    2108                            .dwattr $C$DW$102, DW_AT_TI_symbol_name("blockHeader")
    2109                            .dwattr $C$DW$102, DW_AT_type(*$C$DW$T$24)
    2110                            .dwattr $C$DW$102, DW_AT_TI_begin_file("../heap.c")
    2111                            .dwattr $C$DW$102, DW_AT_TI_begin_line(0x159)
    2112                            .dwattr $C$DW$102, DW_AT_TI_begin_column(0x11)
    2113                            .dwattr $C$DW$102, DW_AT_decl_file("../heap.c")
    2114                            .dwattr $C$DW$102, DW_AT_decl_line(0x159)
    2115                            .dwattr $C$DW$102, DW_AT_decl_column(0x11)
    2116                            .dwattr $C$DW$102, DW_AT_TI_max_frame_size(0x08)
    2117                            .dwpsn  file "../heap.c",line 345,column 47,is_stmt,address blockHeader,isa 1
    2118                    
    2119                            .dwfde $C$DW$CIE, blockHeader
    2120                    $C$DW$103       .dwtag  DW_TAG_formal_parameter
    2121                            .dwattr $C$DW$103, DW_AT_name("blockEnd")
    2122                            .dwattr $C$DW$103, DW_AT_TI_symbol_name("blockEnd")
    2123                            .dwattr $C$DW$103, DW_AT_type(*$C$DW$T$24)
    2124                            .dwattr $C$DW$103, DW_AT_location[DW_OP_reg0]
    2125                    
    2126                    
    2127                    ;*****************************************************************************
    2128                    ;* FUNCTION NAME: blockHeader                                                *
    2129                    ;*                                                                           *
    2130                    ;*   Regs Modified     : A1,A2,A4,SP,LR,SR,FPEXC,FPSCR                       *
    2131                    ;*   Regs Used         : A1,A2,A4,SP,LR,SR,FPEXC,FPSCR                       *
    2132                    ;*   Local Frame Size  : 0 Args + 4 Auto + 4 Save = 8 byte                   *
    2133                    ;*****************************************************************************
    2134 0000034e           blockHeader:
    2135                    ;* --------------------------------------------------------------------------*
    2136                            .dwcfi  cfa_offset, 0
    2137 0000034e B508              PUSH      {A4, LR}              ; [DPU_3_PIPE]  ; [ORIG 16-BIT INS]
    2138                            .dwcfi  cfa_offset, 8
    2139                            .dwcfi  save_reg_to_mem, 14, -4
    2140                            .dwcfi  save_reg_to_mem, 3, -8
    2141                    $C$DW$104       .dwtag  DW_TAG_variable
    2142                            .dwattr $C$DW$104, DW_AT_name("blockEnd")
    2143                            .dwattr $C$DW$104, DW_AT_TI_symbol_name("blockEnd")
TI ARM Assembler PC v16.9.6 Sun Dec 02 13:28:42 2018

Tools Copyright (c) 1996-2017 Texas Instruments Incorporated
heap.asm                                                             PAGE   40

    2144                            .dwattr $C$DW$104, DW_AT_type(*$C$DW$T$24)
    2145                            .dwattr $C$DW$104, DW_AT_location[DW_OP_breg13 0]
    2146                    
    2147                    ;----------------------------------------------------------------------
    2148                    ; 345 | static int32_t* blockHeader(int32_t* blockEnd){                        
    2149                    ;----------------------------------------------------------------------
    2150 00000350 9000              STR       A1, [SP, #0]          ; [DPU_3_PIPE] |345|  ; [ORIG 16-BIT INS]
    2151                            .dwpsn  file "../heap.c",line 346,column 3,is_stmt,isa 1
    2152                    ;----------------------------------------------------------------------
    2153                    ; 346 | return blockEnd - blockRoom(blockEnd) - 1;                             
    2154                    ;----------------------------------------------------------------------
    2155 00000352 9800              LDR       A1, [SP, #0]          ; [DPU_3_PIPE] |346|  ; [ORIG 16-BIT INS]
    2156                    $C$DW$105       .dwtag  DW_TAG_TI_branch
    2157                            .dwattr $C$DW$105, DW_AT_low_pc(0x00)
    2158                            .dwattr $C$DW$105, DW_AT_name("blockRoom")
    2159                            .dwattr $C$DW$105, DW_AT_TI_call
    2160                    
    2161 00000354 FFFEF7FF!         BL        blockRoom             ; [DPU_3_PIPE] |346|  ; [KEEP 32-BIT INS]
    2162                            ; CALL OCCURS {blockRoom }       ; [] |346| 
    2163 00000358 4601              MOV       A2, A1                ; [DPU_3_PIPE] |346|  ; [ORIG 16-BIT INS]
    2164 0000035a 9800              LDR       A1, [SP, #0]          ; [DPU_3_PIPE] |346|  ; [ORIG 16-BIT INS]
    2165 0000035c 0081EBA0          SUB       A1, A1, A2, LSL #2    ; [DPU_3_PIPE] |346|  ; [KEEP 32-BIT INS]
    2166 00000360 1F00              SUBS      A1, A1, #4            ; [DPU_3_PIPE] |346|  ; [ORIG 16-BIT INS]
    2167                            .dwpsn  file "../heap.c",line 347,column 1,is_stmt,isa 1
    2168                    $C$DW$106       .dwtag  DW_TAG_TI_branch
    2169                            .dwattr $C$DW$106, DW_AT_low_pc(0x00)
    2170                            .dwattr $C$DW$106, DW_AT_TI_return
    2171                    
    2172 00000362 BD08              POP       {A4, PC}              ; [DPU_3_PIPE]  ; [ORIG 16-BIT INS]
    2173                            .dwcfi  cfa_offset, 0
    2174                            .dwcfi  restore_reg, 3
    2175                            ; BRANCH OCCURS                  ; [] 
    2176                            .dwattr $C$DW$102, DW_AT_TI_end_file("../heap.c")
    2177                            .dwattr $C$DW$102, DW_AT_TI_end_line(0x15b)
    2178                            .dwattr $C$DW$102, DW_AT_TI_end_column(0x01)
    2179                            .dwendentry
    2180                            .dwendtag $C$DW$102
    2181                    
    2182 00000364                   .sect   ".text"
    2183                            .clink
    2184                            .thumbfunc blockTrailer
    2185 00000364                   .thumb
    2186                    
    2187                    $C$DW$107       .dwtag  DW_TAG_subprogram
    2188                            .dwattr $C$DW$107, DW_AT_name("blockTrailer")
    2189                            .dwattr $C$DW$107, DW_AT_low_pc(blockTrailer)
    2190                            .dwattr $C$DW$107, DW_AT_high_pc(0x00)
    2191                            .dwattr $C$DW$107, DW_AT_TI_symbol_name("blockTrailer")
    2192                            .dwattr $C$DW$107, DW_AT_type(*$C$DW$T$24)
    2193                            .dwattr $C$DW$107, DW_AT_TI_begin_file("../heap.c")
    2194                            .dwattr $C$DW$107, DW_AT_TI_begin_line(0x161)
    2195                            .dwattr $C$DW$107, DW_AT_TI_begin_column(0x11)
    2196                            .dwattr $C$DW$107, DW_AT_decl_file("../heap.c")
    2197                            .dwattr $C$DW$107, DW_AT_decl_line(0x161)
    2198                            .dwattr $C$DW$107, DW_AT_decl_column(0x11)
TI ARM Assembler PC v16.9.6 Sun Dec 02 13:28:42 2018

Tools Copyright (c) 1996-2017 Texas Instruments Incorporated
heap.asm                                                             PAGE   41

    2199                            .dwattr $C$DW$107, DW_AT_TI_max_frame_size(0x08)
    2200                            .dwpsn  file "../heap.c",line 353,column 50,is_stmt,address blockTrailer,isa 1
    2201                    
    2202                            .dwfde $C$DW$CIE, blockTrailer
    2203                    $C$DW$108       .dwtag  DW_TAG_formal_parameter
    2204                            .dwattr $C$DW$108, DW_AT_name("blockStart")
    2205                            .dwattr $C$DW$108, DW_AT_TI_symbol_name("blockStart")
    2206                            .dwattr $C$DW$108, DW_AT_type(*$C$DW$T$24)
    2207                            .dwattr $C$DW$108, DW_AT_location[DW_OP_reg0]
    2208                    
    2209                    
    2210                    ;*****************************************************************************
    2211                    ;* FUNCTION NAME: blockTrailer                                               *
    2212                    ;*                                                                           *
    2213                    ;*   Regs Modified     : A1,A2,A4,SP,LR,SR,FPEXC,FPSCR                       *
    2214                    ;*   Regs Used         : A1,A2,A4,SP,LR,SR,FPEXC,FPSCR                       *
    2215                    ;*   Local Frame Size  : 0 Args + 4 Auto + 4 Save = 8 byte                   *
    2216                    ;*****************************************************************************
    2217 00000364           blockTrailer:
    2218                    ;* --------------------------------------------------------------------------*
    2219                            .dwcfi  cfa_offset, 0
    2220 00000364 B508              PUSH      {A4, LR}              ; [DPU_3_PIPE]  ; [ORIG 16-BIT INS]
    2221                            .dwcfi  cfa_offset, 8
    2222                            .dwcfi  save_reg_to_mem, 14, -4
    2223                            .dwcfi  save_reg_to_mem, 3, -8
    2224                    $C$DW$109       .dwtag  DW_TAG_variable
    2225                            .dwattr $C$DW$109, DW_AT_name("blockStart")
    2226                            .dwattr $C$DW$109, DW_AT_TI_symbol_name("blockStart")
    2227                            .dwattr $C$DW$109, DW_AT_type(*$C$DW$T$24)
    2228                            .dwattr $C$DW$109, DW_AT_location[DW_OP_breg13 0]
    2229                    
    2230                    ;----------------------------------------------------------------------
    2231                    ; 353 | static int32_t* blockTrailer(int32_t* blockStart){                     
    2232                    ;----------------------------------------------------------------------
    2233 00000366 9000              STR       A1, [SP, #0]          ; [DPU_3_PIPE] |353|  ; [ORIG 16-BIT INS]
    2234                            .dwpsn  file "../heap.c",line 354,column 3,is_stmt,isa 1
    2235                    ;----------------------------------------------------------------------
    2236                    ; 354 | return blockStart + blockRoom(blockStart) + 1;                         
    2237                    ;----------------------------------------------------------------------
    2238 00000368 9800              LDR       A1, [SP, #0]          ; [DPU_3_PIPE] |354|  ; [ORIG 16-BIT INS]
    2239                    $C$DW$110       .dwtag  DW_TAG_TI_branch
    2240                            .dwattr $C$DW$110, DW_AT_low_pc(0x00)
    2241                            .dwattr $C$DW$110, DW_AT_name("blockRoom")
    2242                            .dwattr $C$DW$110, DW_AT_TI_call
    2243                    
    2244 0000036a FFFEF7FF!         BL        blockRoom             ; [DPU_3_PIPE] |354|  ; [KEEP 32-BIT INS]
    2245                            ; CALL OCCURS {blockRoom }       ; [] |354| 
    2246 0000036e 4601              MOV       A2, A1                ; [DPU_3_PIPE] |354|  ; [ORIG 16-BIT INS]
    2247 00000370 9800              LDR       A1, [SP, #0]          ; [DPU_3_PIPE] |354|  ; [ORIG 16-BIT INS]
    2248 00000372 0081EB00          ADD       A1, A1, A2, LSL #2    ; [DPU_3_PIPE] |354|  ; [KEEP 32-BIT INS]
    2249 00000376 1D00              ADDS      A1, A1, #4            ; [DPU_3_PIPE] |354|  ; [ORIG 16-BIT INS]
    2250                            .dwpsn  file "../heap.c",line 355,column 1,is_stmt,isa 1
    2251                    $C$DW$111       .dwtag  DW_TAG_TI_branch
    2252                            .dwattr $C$DW$111, DW_AT_low_pc(0x00)
    2253                            .dwattr $C$DW$111, DW_AT_TI_return
TI ARM Assembler PC v16.9.6 Sun Dec 02 13:28:42 2018

Tools Copyright (c) 1996-2017 Texas Instruments Incorporated
heap.asm                                                             PAGE   42

    2254                    
    2255 00000378 BD08              POP       {A4, PC}              ; [DPU_3_PIPE]  ; [ORIG 16-BIT INS]
    2256                            .dwcfi  cfa_offset, 0
    2257                            .dwcfi  restore_reg, 3
    2258                            ; BRANCH OCCURS                  ; [] 
    2259                            .dwattr $C$DW$107, DW_AT_TI_end_file("../heap.c")
    2260                            .dwattr $C$DW$107, DW_AT_TI_end_line(0x163)
    2261                            .dwattr $C$DW$107, DW_AT_TI_end_column(0x01)
    2262                            .dwendentry
    2263                            .dwendtag $C$DW$107
    2264                    
    2265 0000037a                   .sect   ".text"
    2266                            .clink
    2267                            .thumbfunc nextBlockHeader
    2268 0000037a                   .thumb
    2269                    
    2270                    $C$DW$112       .dwtag  DW_TAG_subprogram
    2271                            .dwattr $C$DW$112, DW_AT_name("nextBlockHeader")
    2272                            .dwattr $C$DW$112, DW_AT_low_pc(nextBlockHeader)
    2273                            .dwattr $C$DW$112, DW_AT_high_pc(0x00)
    2274                            .dwattr $C$DW$112, DW_AT_TI_symbol_name("nextBlockHeader")
    2275                            .dwattr $C$DW$112, DW_AT_type(*$C$DW$T$24)
    2276                            .dwattr $C$DW$112, DW_AT_TI_begin_file("../heap.c")
    2277                            .dwattr $C$DW$112, DW_AT_TI_begin_line(0x16b)
    2278                            .dwattr $C$DW$112, DW_AT_TI_begin_column(0x11)
    2279                            .dwattr $C$DW$112, DW_AT_decl_file("../heap.c")
    2280                            .dwattr $C$DW$112, DW_AT_decl_line(0x16b)
    2281                            .dwattr $C$DW$112, DW_AT_decl_column(0x11)
    2282                            .dwattr $C$DW$112, DW_AT_TI_max_frame_size(0x08)
    2283                            .dwpsn  file "../heap.c",line 363,column 53,is_stmt,address nextBlockHeader,isa 1
    2284                    
    2285                            .dwfde $C$DW$CIE, nextBlockHeader
    2286                    $C$DW$113       .dwtag  DW_TAG_formal_parameter
    2287                            .dwattr $C$DW$113, DW_AT_name("blockStart")
    2288                            .dwattr $C$DW$113, DW_AT_TI_symbol_name("blockStart")
    2289                            .dwattr $C$DW$113, DW_AT_type(*$C$DW$T$24)
    2290                            .dwattr $C$DW$113, DW_AT_location[DW_OP_reg0]
    2291                    
    2292                    
    2293                    ;*****************************************************************************
    2294                    ;* FUNCTION NAME: nextBlockHeader                                            *
    2295                    ;*                                                                           *
    2296                    ;*   Regs Modified     : A1,A2,A4,SP,LR,SR,FPEXC,FPSCR                       *
    2297                    ;*   Regs Used         : A1,A2,A4,SP,LR,SR,FPEXC,FPSCR                       *
    2298                    ;*   Local Frame Size  : 0 Args + 4 Auto + 4 Save = 8 byte                   *
    2299                    ;*****************************************************************************
    2300 0000037a           nextBlockHeader:
    2301                    ;* --------------------------------------------------------------------------*
    2302                            .dwcfi  cfa_offset, 0
    2303 0000037a B508              PUSH      {A4, LR}              ; [DPU_3_PIPE]  ; [ORIG 16-BIT INS]
    2304                            .dwcfi  cfa_offset, 8
    2305                            .dwcfi  save_reg_to_mem, 14, -4
    2306                            .dwcfi  save_reg_to_mem, 3, -8
    2307                    $C$DW$114       .dwtag  DW_TAG_variable
    2308                            .dwattr $C$DW$114, DW_AT_name("blockStart")
TI ARM Assembler PC v16.9.6 Sun Dec 02 13:28:42 2018

Tools Copyright (c) 1996-2017 Texas Instruments Incorporated
heap.asm                                                             PAGE   43

    2309                            .dwattr $C$DW$114, DW_AT_TI_symbol_name("blockStart")
    2310                            .dwattr $C$DW$114, DW_AT_type(*$C$DW$T$24)
    2311                            .dwattr $C$DW$114, DW_AT_location[DW_OP_breg13 0]
    2312                    
    2313                    ;----------------------------------------------------------------------
    2314                    ; 363 | static int32_t* nextBlockHeader(int32_t* blockStart){                  
    2315                    ;----------------------------------------------------------------------
    2316 0000037c 9000              STR       A1, [SP, #0]          ; [DPU_3_PIPE] |363|  ; [ORIG 16-BIT INS]
    2317                            .dwpsn  file "../heap.c",line 364,column 3,is_stmt,isa 1
    2318                    ;----------------------------------------------------------------------
    2319                    ; 364 | return blockTrailer(blockStart) + 1;                                   
    2320                    ;----------------------------------------------------------------------
    2321 0000037e 9800              LDR       A1, [SP, #0]          ; [DPU_3_PIPE] |364|  ; [ORIG 16-BIT INS]
    2322                    $C$DW$115       .dwtag  DW_TAG_TI_branch
    2323                            .dwattr $C$DW$115, DW_AT_low_pc(0x00)
    2324                            .dwattr $C$DW$115, DW_AT_name("blockTrailer")
    2325                            .dwattr $C$DW$115, DW_AT_TI_call
    2326                    
    2327 00000380 FFFEF7FF!         BL        blockTrailer          ; [DPU_3_PIPE] |364|  ; [KEEP 32-BIT INS]
    2328                            ; CALL OCCURS {blockTrailer }    ; [] |364| 
    2329 00000384 1D00              ADDS      A1, A1, #4            ; [DPU_3_PIPE] |364|  ; [ORIG 16-BIT INS]
    2330                            .dwpsn  file "../heap.c",line 365,column 1,is_stmt,isa 1
    2331                    $C$DW$116       .dwtag  DW_TAG_TI_branch
    2332                            .dwattr $C$DW$116, DW_AT_low_pc(0x00)
    2333                            .dwattr $C$DW$116, DW_AT_TI_return
    2334                    
    2335 00000386 BD08              POP       {A4, PC}              ; [DPU_3_PIPE]  ; [ORIG 16-BIT INS]
    2336                            .dwcfi  cfa_offset, 0
    2337                            .dwcfi  restore_reg, 3
    2338                            ; BRANCH OCCURS                  ; [] 
    2339                            .dwattr $C$DW$112, DW_AT_TI_end_file("../heap.c")
    2340                            .dwattr $C$DW$112, DW_AT_TI_end_line(0x16d)
    2341                            .dwattr $C$DW$112, DW_AT_TI_end_column(0x01)
    2342                            .dwendentry
    2343                            .dwendtag $C$DW$112
    2344                    
    2345 00000388                   .sect   ".text"
    2346                            .clink
    2347                            .thumbfunc previousBlockHeader
    2348 00000388                   .thumb
    2349                    
    2350                    $C$DW$117       .dwtag  DW_TAG_subprogram
    2351                            .dwattr $C$DW$117, DW_AT_name("previousBlockHeader")
    2352                            .dwattr $C$DW$117, DW_AT_low_pc(previousBlockHeader)
    2353                            .dwattr $C$DW$117, DW_AT_high_pc(0x00)
    2354                            .dwattr $C$DW$117, DW_AT_TI_symbol_name("previousBlockHeader")
    2355                            .dwattr $C$DW$117, DW_AT_type(*$C$DW$T$24)
    2356                            .dwattr $C$DW$117, DW_AT_TI_begin_file("../heap.c")
    2357                            .dwattr $C$DW$117, DW_AT_TI_begin_line(0x175)
    2358                            .dwattr $C$DW$117, DW_AT_TI_begin_column(0x11)
    2359                            .dwattr $C$DW$117, DW_AT_decl_file("../heap.c")
    2360                            .dwattr $C$DW$117, DW_AT_decl_line(0x175)
    2361                            .dwattr $C$DW$117, DW_AT_decl_column(0x11)
    2362                            .dwattr $C$DW$117, DW_AT_TI_max_frame_size(0x08)
    2363                            .dwpsn  file "../heap.c",line 373,column 57,is_stmt,address previousBlockHeader,isa 1
TI ARM Assembler PC v16.9.6 Sun Dec 02 13:28:42 2018

Tools Copyright (c) 1996-2017 Texas Instruments Incorporated
heap.asm                                                             PAGE   44

    2364                    
    2365                            .dwfde $C$DW$CIE, previousBlockHeader
    2366                    $C$DW$118       .dwtag  DW_TAG_formal_parameter
    2367                            .dwattr $C$DW$118, DW_AT_name("blockStart")
    2368                            .dwattr $C$DW$118, DW_AT_TI_symbol_name("blockStart")
    2369                            .dwattr $C$DW$118, DW_AT_type(*$C$DW$T$24)
    2370                            .dwattr $C$DW$118, DW_AT_location[DW_OP_reg0]
    2371                    
    2372                    
    2373                    ;*****************************************************************************
    2374                    ;* FUNCTION NAME: previousBlockHeader                                        *
    2375                    ;*                                                                           *
    2376                    ;*   Regs Modified     : A1,A2,A4,SP,LR,SR,FPEXC,FPSCR                       *
    2377                    ;*   Regs Used         : A1,A2,A4,SP,LR,SR,FPEXC,FPSCR                       *
    2378                    ;*   Local Frame Size  : 0 Args + 4 Auto + 4 Save = 8 byte                   *
    2379                    ;*****************************************************************************
    2380 00000388           previousBlockHeader:
    2381                    ;* --------------------------------------------------------------------------*
    2382                            .dwcfi  cfa_offset, 0
    2383 00000388 B508              PUSH      {A4, LR}              ; [DPU_3_PIPE]  ; [ORIG 16-BIT INS]
    2384                            .dwcfi  cfa_offset, 8
    2385                            .dwcfi  save_reg_to_mem, 14, -4
    2386                            .dwcfi  save_reg_to_mem, 3, -8
    2387                    $C$DW$119       .dwtag  DW_TAG_variable
    2388                            .dwattr $C$DW$119, DW_AT_name("blockStart")
    2389                            .dwattr $C$DW$119, DW_AT_TI_symbol_name("blockStart")
    2390                            .dwattr $C$DW$119, DW_AT_type(*$C$DW$T$24)
    2391                            .dwattr $C$DW$119, DW_AT_location[DW_OP_breg13 0]
    2392                    
    2393                    ;----------------------------------------------------------------------
    2394                    ; 373 | static int32_t* previousBlockHeader(int32_t* blockStart){              
    2395                    ;----------------------------------------------------------------------
    2396 0000038a 9000              STR       A1, [SP, #0]          ; [DPU_3_PIPE] |373|  ; [ORIG 16-BIT INS]
    2397                            .dwpsn  file "../heap.c",line 374,column 3,is_stmt,isa 1
    2398                    ;----------------------------------------------------------------------
    2399                    ; 374 | return blockHeader(blockStart - 1);                                    
    2400                    ;----------------------------------------------------------------------
    2401 0000038c 9800              LDR       A1, [SP, #0]          ; [DPU_3_PIPE] |374|  ; [ORIG 16-BIT INS]
    2402 0000038e 1F00              SUBS      A1, A1, #4            ; [DPU_3_PIPE] |374|  ; [ORIG 16-BIT INS]
    2403                    $C$DW$120       .dwtag  DW_TAG_TI_branch
    2404                            .dwattr $C$DW$120, DW_AT_low_pc(0x00)
    2405                            .dwattr $C$DW$120, DW_AT_name("blockHeader")
    2406                            .dwattr $C$DW$120, DW_AT_TI_call
    2407                    
    2408 00000390 FFFEF7FF!         BL        blockHeader           ; [DPU_3_PIPE] |374|  ; [KEEP 32-BIT INS]
    2409                            ; CALL OCCURS {blockHeader }     ; [] |374| 
    2410                            .dwpsn  file "../heap.c",line 375,column 1,is_stmt,isa 1
    2411                    $C$DW$121       .dwtag  DW_TAG_TI_branch
    2412                            .dwattr $C$DW$121, DW_AT_low_pc(0x00)
    2413                            .dwattr $C$DW$121, DW_AT_TI_return
    2414                    
    2415 00000394 BD08              POP       {A4, PC}              ; [DPU_3_PIPE]  ; [ORIG 16-BIT INS]
    2416                            .dwcfi  cfa_offset, 0
    2417                            .dwcfi  restore_reg, 3
    2418                            ; BRANCH OCCURS                  ; [] 
TI ARM Assembler PC v16.9.6 Sun Dec 02 13:28:42 2018

Tools Copyright (c) 1996-2017 Texas Instruments Incorporated
heap.asm                                                             PAGE   45

    2419                            .dwattr $C$DW$117, DW_AT_TI_end_file("../heap.c")
    2420                            .dwattr $C$DW$117, DW_AT_TI_end_line(0x177)
    2421                            .dwattr $C$DW$117, DW_AT_TI_end_column(0x01)
    2422                            .dwendentry
    2423                            .dwendtag $C$DW$117
    2424                    
    2425 00000396                   .sect   ".text"
    2426                            .clink
    2427                            .thumbfunc markBlockUsed
    2428 00000396                   .thumb
    2429                    
    2430                    $C$DW$122       .dwtag  DW_TAG_subprogram
    2431                            .dwattr $C$DW$122, DW_AT_name("markBlockUsed")
    2432                            .dwattr $C$DW$122, DW_AT_low_pc(markBlockUsed)
    2433                            .dwattr $C$DW$122, DW_AT_high_pc(0x00)
    2434                            .dwattr $C$DW$122, DW_AT_TI_symbol_name("markBlockUsed")
    2435                            .dwattr $C$DW$122, DW_AT_type(*$C$DW$T$19)
    2436                            .dwattr $C$DW$122, DW_AT_TI_begin_file("../heap.c")
    2437                            .dwattr $C$DW$122, DW_AT_TI_begin_line(0x17f)
    2438                            .dwattr $C$DW$122, DW_AT_TI_begin_column(0x10)
    2439                            .dwattr $C$DW$122, DW_AT_decl_file("../heap.c")
    2440                            .dwattr $C$DW$122, DW_AT_decl_line(0x17f)
    2441                            .dwattr $C$DW$122, DW_AT_decl_column(0x10)
    2442                            .dwattr $C$DW$122, DW_AT_TI_max_frame_size(0x10)
    2443                            .dwpsn  file "../heap.c",line 383,column 50,is_stmt,address markBlockUsed,isa 1
    2444                    
    2445                            .dwfde $C$DW$CIE, markBlockUsed
    2446                    $C$DW$123       .dwtag  DW_TAG_formal_parameter
    2447                            .dwattr $C$DW$123, DW_AT_name("blockStart")
    2448                            .dwattr $C$DW$123, DW_AT_TI_symbol_name("blockStart")
    2449                            .dwattr $C$DW$123, DW_AT_type(*$C$DW$T$24)
    2450                            .dwattr $C$DW$123, DW_AT_location[DW_OP_reg0]
    2451                    
    2452                    
    2453                    ;*****************************************************************************
    2454                    ;* FUNCTION NAME: markBlockUsed                                              *
    2455                    ;*                                                                           *
    2456                    ;*   Regs Modified     : A1,A2,A3,A4,SP,LR,SR,FPEXC,FPSCR                    *
    2457                    ;*   Regs Used         : A1,A2,A3,A4,SP,LR,SR,FPEXC,FPSCR                    *
    2458                    ;*   Local Frame Size  : 0 Args + 8 Auto + 4 Save = 12 byte                  *
    2459                    ;*****************************************************************************
    2460 00000396           markBlockUsed:
    2461                    ;* --------------------------------------------------------------------------*
    2462                            .dwcfi  cfa_offset, 0
    2463 00000396 B50E              PUSH      {A2, A3, A4, LR}      ; [DPU_3_PIPE]  ; [ORIG 16-BIT INS]
    2464                            .dwcfi  cfa_offset, 16
    2465                            .dwcfi  save_reg_to_mem, 14, -4
    2466                            .dwcfi  save_reg_to_mem, 3, -8
    2467                            .dwcfi  save_reg_to_mem, 2, -12
    2468                            .dwcfi  save_reg_to_mem, 1, -16
    2469                    $C$DW$124       .dwtag  DW_TAG_variable
    2470                            .dwattr $C$DW$124, DW_AT_name("blockStart")
    2471                            .dwattr $C$DW$124, DW_AT_TI_symbol_name("blockStart")
    2472                            .dwattr $C$DW$124, DW_AT_type(*$C$DW$T$24)
    2473                            .dwattr $C$DW$124, DW_AT_location[DW_OP_breg13 0]
TI ARM Assembler PC v16.9.6 Sun Dec 02 13:28:42 2018

Tools Copyright (c) 1996-2017 Texas Instruments Incorporated
heap.asm                                                             PAGE   46

    2474                    
    2475                    $C$DW$125       .dwtag  DW_TAG_variable
    2476                            .dwattr $C$DW$125, DW_AT_name("blockEnd")
    2477                            .dwattr $C$DW$125, DW_AT_TI_symbol_name("blockEnd")
    2478                            .dwattr $C$DW$125, DW_AT_type(*$C$DW$T$24)
    2479                            .dwattr $C$DW$125, DW_AT_location[DW_OP_breg13 4]
    2480                    
    2481                    ;----------------------------------------------------------------------
    2482                    ; 383 | static int32_t markBlockUsed(int32_t* blockStart){                     
    2483                    ;----------------------------------------------------------------------
    2484 00000398 9000              STR       A1, [SP, #0]          ; [DPU_3_PIPE] |383|  ; [ORIG 16-BIT INS]
    2485                            .dwpsn  file "../heap.c",line 384,column 21,is_stmt,isa 1
    2486                    ;----------------------------------------------------------------------
    2487                    ; 384 | int32_t* blockEnd = blockTrailer(blockStart);                          
    2488                    ;----------------------------------------------------------------------
    2489 0000039a 9800              LDR       A1, [SP, #0]          ; [DPU_3_PIPE] |384|  ; [ORIG 16-BIT INS]
    2490                    $C$DW$126       .dwtag  DW_TAG_TI_branch
    2491                            .dwattr $C$DW$126, DW_AT_low_pc(0x00)
    2492                            .dwattr $C$DW$126, DW_AT_name("blockTrailer")
    2493                            .dwattr $C$DW$126, DW_AT_TI_call
    2494                    
    2495 0000039c FFFEF7FF!         BL        blockTrailer          ; [DPU_3_PIPE] |384|  ; [KEEP 32-BIT INS]
    2496                            ; CALL OCCURS {blockTrailer }    ; [] |384| 
    2497 000003a0 9001              STR       A1, [SP, #4]          ; [DPU_3_PIPE] |384|  ; [ORIG 16-BIT INS]
    2498                            .dwpsn  file "../heap.c",line 385,column 3,is_stmt,isa 1
    2499                    ;----------------------------------------------------------------------
    2500                    ; 385 | if(blockUsed(blockStart) || *blockStart != *blockEnd){                 
    2501                    ;----------------------------------------------------------------------
    2502 000003a2 9800              LDR       A1, [SP, #0]          ; [DPU_3_PIPE] |385|  ; [ORIG 16-BIT INS]
    2503                    $C$DW$127       .dwtag  DW_TAG_TI_branch
    2504                            .dwattr $C$DW$127, DW_AT_low_pc(0x00)
    2505                            .dwattr $C$DW$127, DW_AT_name("blockUsed")
    2506                            .dwattr $C$DW$127, DW_AT_TI_call
    2507                    
    2508 000003a4 FFFEF7FF!         BL        blockUsed             ; [DPU_3_PIPE] |385|  ; [KEEP 32-BIT INS]
    2509                            ; CALL OCCURS {blockUsed }       ; [] |385| 
    2510 000003a8 B928              CBNZ      A1, ||$C$L45||        ; []  ; [ORIG 16-BIT INS]
    2511                            ; BRANCHCC OCCURS {||$C$L45||}   ; [] |385| 
    2512                    ;* --------------------------------------------------------------------------*
    2513 000003aa 9801              LDR       A1, [SP, #4]          ; [DPU_3_PIPE] |385|  ; [ORIG 16-BIT INS]
    2514 000003ac 9900              LDR       A2, [SP, #0]          ; [DPU_3_PIPE] |385|  ; [ORIG 16-BIT INS]
    2515 000003ae 6800              LDR       A1, [A1, #0]          ; [DPU_3_PIPE] |385|  ; [ORIG 16-BIT INS]
    2516 000003b0 6809              LDR       A2, [A2, #0]          ; [DPU_3_PIPE] |385|  ; [ORIG 16-BIT INS]
    2517 000003b2 4288              CMP       A1, A2                ; [DPU_3_PIPE] |385|  ; [ORIG 16-BIT INS]
    2518 000003b4 D001              BEQ       ||$C$L46||            ; [DPU_3_PIPE] |385|  ; [ORIG 16-BIT INS]
    2519                            ; BRANCHCC OCCURS {||$C$L46||}   ; [] |385| 
    2520                    ;* --------------------------------------------------------------------------*
    2521 000003b6           ||$C$L45||:    
    2522                            .dwpsn  file "../heap.c",line 386,column 5,is_stmt,isa 1
    2523                    ;----------------------------------------------------------------------
    2524                    ; 386 | return HEAP_ERROR_CORRUPTED_HEAP;                                      
    2525                    ;----------------------------------------------------------------------
    2526 000003b6 2001              MOVS      A1, #1                ; [DPU_3_PIPE] |386|  ; [ORIG 16-BIT INS]
    2527 000003b8 E00A              B         ||$C$L47||            ; [DPU_3_PIPE] |386|  ; [ORIG 16-BIT INS]
    2528                            ; BRANCH OCCURS {||$C$L47||}     ; [] |386| 
TI ARM Assembler PC v16.9.6 Sun Dec 02 13:28:42 2018

Tools Copyright (c) 1996-2017 Texas Instruments Incorporated
heap.asm                                                             PAGE   47

    2529                    ;* --------------------------------------------------------------------------*
    2530 000003ba           ||$C$L46||:    
    2531                            .dwpsn  file "../heap.c",line 388,column 3,is_stmt,isa 1
    2532                    ;----------------------------------------------------------------------
    2533                    ; 388 | *blockStart = -*blockStart;                                            
    2534                    ;----------------------------------------------------------------------
    2535 000003ba 9800              LDR       A1, [SP, #0]          ; [DPU_3_PIPE] |388|  ; [ORIG 16-BIT INS]
    2536 000003bc 9900              LDR       A2, [SP, #0]          ; [DPU_3_PIPE] |388|  ; [ORIG 16-BIT INS]
    2537 000003be 6800              LDR       A1, [A1, #0]          ; [DPU_3_PIPE] |388|  ; [ORIG 16-BIT INS]
    2538 000003c0 4240              RSBS      A1, A1, #0            ; [DPU_3_PIPE] |388|  ; [ORIG 16-BIT INS]
    2539 000003c2 6008              STR       A1, [A2, #0]          ; [DPU_3_PIPE] |388|  ; [ORIG 16-BIT INS]
    2540                            .dwpsn  file "../heap.c",line 389,column 3,is_stmt,isa 1
    2541                    ;----------------------------------------------------------------------
    2542                    ; 389 | *blockEnd = -*blockEnd;                                                
    2543                    ;----------------------------------------------------------------------
    2544 000003c4 9801              LDR       A1, [SP, #4]          ; [DPU_3_PIPE] |389|  ; [ORIG 16-BIT INS]
    2545 000003c6 9901              LDR       A2, [SP, #4]          ; [DPU_3_PIPE] |389|  ; [ORIG 16-BIT INS]
    2546 000003c8 6800              LDR       A1, [A1, #0]          ; [DPU_3_PIPE] |389|  ; [ORIG 16-BIT INS]
    2547 000003ca 4240              RSBS      A1, A1, #0            ; [DPU_3_PIPE] |389|  ; [ORIG 16-BIT INS]
    2548 000003cc 6008              STR       A1, [A2, #0]          ; [DPU_3_PIPE] |389|  ; [ORIG 16-BIT INS]
    2549                            .dwpsn  file "../heap.c",line 390,column 3,is_stmt,isa 1
    2550                    ;----------------------------------------------------------------------
    2551                    ; 390 | return HEAP_OK;                                                        
    2552                    ;----------------------------------------------------------------------
    2553 000003ce 2000              MOVS      A1, #0                ; [DPU_3_PIPE] |390|  ; [ORIG 16-BIT INS]
    2554                    ;* --------------------------------------------------------------------------*
    2555 000003d0           ||$C$L47||:    
    2556                            .dwpsn  file "../heap.c",line 391,column 1,is_stmt,isa 1
    2557                    $C$DW$128       .dwtag  DW_TAG_TI_branch
    2558                            .dwattr $C$DW$128, DW_AT_low_pc(0x00)
    2559                            .dwattr $C$DW$128, DW_AT_TI_return
    2560                    
    2561 000003d0 BD0E              POP       {A2, A3, A4, PC}      ; [DPU_3_PIPE]  ; [ORIG 16-BIT INS]
    2562                            .dwcfi  cfa_offset, 0
    2563                            .dwcfi  restore_reg, 3
    2564                            .dwcfi  restore_reg, 2
    2565                            .dwcfi  restore_reg, 1
    2566                            ; BRANCH OCCURS                  ; [] 
    2567                            .dwattr $C$DW$122, DW_AT_TI_end_file("../heap.c")
    2568                            .dwattr $C$DW$122, DW_AT_TI_end_line(0x187)
    2569                            .dwattr $C$DW$122, DW_AT_TI_end_column(0x01)
    2570                            .dwendentry
    2571                            .dwendtag $C$DW$122
    2572                    
    2573 000003d2                   .sect   ".text"
    2574                            .clink
    2575                            .thumbfunc markBlockUnused
    2576 000003d2                   .thumb
    2577                    
    2578                    $C$DW$129       .dwtag  DW_TAG_subprogram
    2579                            .dwattr $C$DW$129, DW_AT_name("markBlockUnused")
    2580                            .dwattr $C$DW$129, DW_AT_low_pc(markBlockUnused)
    2581                            .dwattr $C$DW$129, DW_AT_high_pc(0x00)
    2582                            .dwattr $C$DW$129, DW_AT_TI_symbol_name("markBlockUnused")
    2583                            .dwattr $C$DW$129, DW_AT_type(*$C$DW$T$19)
TI ARM Assembler PC v16.9.6 Sun Dec 02 13:28:42 2018

Tools Copyright (c) 1996-2017 Texas Instruments Incorporated
heap.asm                                                             PAGE   48

    2584                            .dwattr $C$DW$129, DW_AT_TI_begin_file("../heap.c")
    2585                            .dwattr $C$DW$129, DW_AT_TI_begin_line(0x18f)
    2586                            .dwattr $C$DW$129, DW_AT_TI_begin_column(0x10)
    2587                            .dwattr $C$DW$129, DW_AT_decl_file("../heap.c")
    2588                            .dwattr $C$DW$129, DW_AT_decl_line(0x18f)
    2589                            .dwattr $C$DW$129, DW_AT_decl_column(0x10)
    2590                            .dwattr $C$DW$129, DW_AT_TI_max_frame_size(0x10)
    2591                            .dwpsn  file "../heap.c",line 399,column 52,is_stmt,address markBlockUnused,isa 1
    2592                    
    2593                            .dwfde $C$DW$CIE, markBlockUnused
    2594                    $C$DW$130       .dwtag  DW_TAG_formal_parameter
    2595                            .dwattr $C$DW$130, DW_AT_name("blockStart")
    2596                            .dwattr $C$DW$130, DW_AT_TI_symbol_name("blockStart")
    2597                            .dwattr $C$DW$130, DW_AT_type(*$C$DW$T$24)
    2598                            .dwattr $C$DW$130, DW_AT_location[DW_OP_reg0]
    2599                    
    2600                    
    2601                    ;*****************************************************************************
    2602                    ;* FUNCTION NAME: markBlockUnused                                            *
    2603                    ;*                                                                           *
    2604                    ;*   Regs Modified     : A1,A2,A3,A4,SP,LR,SR,FPEXC,FPSCR                    *
    2605                    ;*   Regs Used         : A1,A2,A3,A4,SP,LR,SR,FPEXC,FPSCR                    *
    2606                    ;*   Local Frame Size  : 0 Args + 8 Auto + 4 Save = 12 byte                  *
    2607                    ;*****************************************************************************
    2608 000003d2           markBlockUnused:
    2609                    ;* --------------------------------------------------------------------------*
    2610                            .dwcfi  cfa_offset, 0
    2611 000003d2 B50E              PUSH      {A2, A3, A4, LR}      ; [DPU_3_PIPE]  ; [ORIG 16-BIT INS]
    2612                            .dwcfi  cfa_offset, 16
    2613                            .dwcfi  save_reg_to_mem, 14, -4
    2614                            .dwcfi  save_reg_to_mem, 3, -8
    2615                            .dwcfi  save_reg_to_mem, 2, -12
    2616                            .dwcfi  save_reg_to_mem, 1, -16
    2617                    $C$DW$131       .dwtag  DW_TAG_variable
    2618                            .dwattr $C$DW$131, DW_AT_name("blockStart")
    2619                            .dwattr $C$DW$131, DW_AT_TI_symbol_name("blockStart")
    2620                            .dwattr $C$DW$131, DW_AT_type(*$C$DW$T$24)
    2621                            .dwattr $C$DW$131, DW_AT_location[DW_OP_breg13 0]
    2622                    
    2623                    $C$DW$132       .dwtag  DW_TAG_variable
    2624                            .dwattr $C$DW$132, DW_AT_name("blockEnd")
    2625                            .dwattr $C$DW$132, DW_AT_TI_symbol_name("blockEnd")
    2626                            .dwattr $C$DW$132, DW_AT_type(*$C$DW$T$24)
    2627                            .dwattr $C$DW$132, DW_AT_location[DW_OP_breg13 4]
    2628                    
    2629                    ;----------------------------------------------------------------------
    2630                    ; 399 | static int32_t markBlockUnused(int32_t* blockStart){                   
    2631                    ;----------------------------------------------------------------------
    2632 000003d4 9000              STR       A1, [SP, #0]          ; [DPU_3_PIPE] |399|  ; [ORIG 16-BIT INS]
    2633                            .dwpsn  file "../heap.c",line 400,column 21,is_stmt,isa 1
    2634                    ;----------------------------------------------------------------------
    2635                    ; 400 | int32_t* blockEnd = blockTrailer(blockStart);                          
    2636                    ;----------------------------------------------------------------------
    2637 000003d6 9800              LDR       A1, [SP, #0]          ; [DPU_3_PIPE] |400|  ; [ORIG 16-BIT INS]
    2638                    $C$DW$133       .dwtag  DW_TAG_TI_branch
TI ARM Assembler PC v16.9.6 Sun Dec 02 13:28:42 2018

Tools Copyright (c) 1996-2017 Texas Instruments Incorporated
heap.asm                                                             PAGE   49

    2639                            .dwattr $C$DW$133, DW_AT_low_pc(0x00)
    2640                            .dwattr $C$DW$133, DW_AT_name("blockTrailer")
    2641                            .dwattr $C$DW$133, DW_AT_TI_call
    2642                    
    2643 000003d8 FFFEF7FF!         BL        blockTrailer          ; [DPU_3_PIPE] |400|  ; [KEEP 32-BIT INS]
    2644                            ; CALL OCCURS {blockTrailer }    ; [] |400| 
    2645 000003dc 9001              STR       A1, [SP, #4]          ; [DPU_3_PIPE] |400|  ; [ORIG 16-BIT INS]
    2646                            .dwpsn  file "../heap.c",line 401,column 3,is_stmt,isa 1
    2647                    ;----------------------------------------------------------------------
    2648                    ; 401 | if(blockUnused(blockStart) || *blockStart != *blockEnd){               
    2649                    ;----------------------------------------------------------------------
    2650 000003de 9800              LDR       A1, [SP, #0]          ; [DPU_3_PIPE] |401|  ; [ORIG 16-BIT INS]
    2651                    $C$DW$134       .dwtag  DW_TAG_TI_branch
    2652                            .dwattr $C$DW$134, DW_AT_low_pc(0x00)
    2653                            .dwattr $C$DW$134, DW_AT_name("blockUnused")
    2654                            .dwattr $C$DW$134, DW_AT_TI_call
    2655                    
    2656 000003e0 FFFEF7FF!         BL        blockUnused           ; [DPU_3_PIPE] |401|  ; [KEEP 32-BIT INS]
    2657                            ; CALL OCCURS {blockUnused }     ; [] |401| 
    2658 000003e4 B928              CBNZ      A1, ||$C$L48||        ; []  ; [ORIG 16-BIT INS]
    2659                            ; BRANCHCC OCCURS {||$C$L48||}   ; [] |401| 
    2660                    ;* --------------------------------------------------------------------------*
    2661 000003e6 9801              LDR       A1, [SP, #4]          ; [DPU_3_PIPE] |401|  ; [ORIG 16-BIT INS]
    2662 000003e8 9900              LDR       A2, [SP, #0]          ; [DPU_3_PIPE] |401|  ; [ORIG 16-BIT INS]
    2663 000003ea 6800              LDR       A1, [A1, #0]          ; [DPU_3_PIPE] |401|  ; [ORIG 16-BIT INS]
    2664 000003ec 6809              LDR       A2, [A2, #0]          ; [DPU_3_PIPE] |401|  ; [ORIG 16-BIT INS]
    2665 000003ee 4288              CMP       A1, A2                ; [DPU_3_PIPE] |401|  ; [ORIG 16-BIT INS]
    2666 000003f0 D001              BEQ       ||$C$L49||            ; [DPU_3_PIPE] |401|  ; [ORIG 16-BIT INS]
    2667                            ; BRANCHCC OCCURS {||$C$L49||}   ; [] |401| 
    2668                    ;* --------------------------------------------------------------------------*
    2669 000003f2           ||$C$L48||:    
    2670                            .dwpsn  file "../heap.c",line 402,column 5,is_stmt,isa 1
    2671                    ;----------------------------------------------------------------------
    2672                    ; 402 | return HEAP_ERROR_CORRUPTED_HEAP;                                      
    2673                    ;----------------------------------------------------------------------
    2674 000003f2 2001              MOVS      A1, #1                ; [DPU_3_PIPE] |402|  ; [ORIG 16-BIT INS]
    2675 000003f4 E00A              B         ||$C$L50||            ; [DPU_3_PIPE] |402|  ; [ORIG 16-BIT INS]
    2676                            ; BRANCH OCCURS {||$C$L50||}     ; [] |402| 
    2677                    ;* --------------------------------------------------------------------------*
    2678 000003f6           ||$C$L49||:    
    2679                            .dwpsn  file "../heap.c",line 404,column 3,is_stmt,isa 1
    2680                    ;----------------------------------------------------------------------
    2681                    ; 404 | *blockStart = -*blockStart;                                            
    2682                    ;----------------------------------------------------------------------
    2683 000003f6 9800              LDR       A1, [SP, #0]          ; [DPU_3_PIPE] |404|  ; [ORIG 16-BIT INS]
    2684 000003f8 9900              LDR       A2, [SP, #0]          ; [DPU_3_PIPE] |404|  ; [ORIG 16-BIT INS]
    2685 000003fa 6800              LDR       A1, [A1, #0]          ; [DPU_3_PIPE] |404|  ; [ORIG 16-BIT INS]
    2686 000003fc 4240              RSBS      A1, A1, #0            ; [DPU_3_PIPE] |404|  ; [ORIG 16-BIT INS]
    2687 000003fe 6008              STR       A1, [A2, #0]          ; [DPU_3_PIPE] |404|  ; [ORIG 16-BIT INS]
    2688                            .dwpsn  file "../heap.c",line 405,column 3,is_stmt,isa 1
    2689                    ;----------------------------------------------------------------------
    2690                    ; 405 | *blockEnd = -*blockEnd;                                                
    2691                    ;----------------------------------------------------------------------
    2692 00000400 9801              LDR       A1, [SP, #4]          ; [DPU_3_PIPE] |405|  ; [ORIG 16-BIT INS]
    2693 00000402 9901              LDR       A2, [SP, #4]          ; [DPU_3_PIPE] |405|  ; [ORIG 16-BIT INS]
TI ARM Assembler PC v16.9.6 Sun Dec 02 13:28:42 2018

Tools Copyright (c) 1996-2017 Texas Instruments Incorporated
heap.asm                                                             PAGE   50

    2694 00000404 6800              LDR       A1, [A1, #0]          ; [DPU_3_PIPE] |405|  ; [ORIG 16-BIT INS]
    2695 00000406 4240              RSBS      A1, A1, #0            ; [DPU_3_PIPE] |405|  ; [ORIG 16-BIT INS]
    2696 00000408 6008              STR       A1, [A2, #0]          ; [DPU_3_PIPE] |405|  ; [ORIG 16-BIT INS]
    2697                            .dwpsn  file "../heap.c",line 406,column 3,is_stmt,isa 1
    2698                    ;----------------------------------------------------------------------
    2699                    ; 406 | return HEAP_OK;                                                        
    2700                    ;----------------------------------------------------------------------
    2701 0000040a 2000              MOVS      A1, #0                ; [DPU_3_PIPE] |406|  ; [ORIG 16-BIT INS]
    2702                    ;* --------------------------------------------------------------------------*
    2703 0000040c           ||$C$L50||:    
    2704                            .dwpsn  file "../heap.c",line 407,column 1,is_stmt,isa 1
    2705                    $C$DW$135       .dwtag  DW_TAG_TI_branch
    2706                            .dwattr $C$DW$135, DW_AT_low_pc(0x00)
    2707                            .dwattr $C$DW$135, DW_AT_TI_return
    2708                    
    2709 0000040c BD0E              POP       {A2, A3, A4, PC}      ; [DPU_3_PIPE]  ; [ORIG 16-BIT INS]
    2710                            .dwcfi  cfa_offset, 0
    2711                            .dwcfi  restore_reg, 3
    2712                            .dwcfi  restore_reg, 2
    2713                            .dwcfi  restore_reg, 1
    2714                            ; BRANCH OCCURS                  ; [] 
    2715                            .dwattr $C$DW$129, DW_AT_TI_end_file("../heap.c")
    2716                            .dwattr $C$DW$129, DW_AT_TI_end_line(0x197)
    2717                            .dwattr $C$DW$129, DW_AT_TI_end_column(0x01)
    2718                            .dwendentry
    2719                            .dwendtag $C$DW$129
    2720                    
    2721 0000040e                   .sect   ".text"
    2722                            .clink
    2723                            .thumbfunc splitAndMarkBlockUsed
    2724 0000040e                   .thumb
    2725                    
    2726                    $C$DW$136       .dwtag  DW_TAG_subprogram
    2727                            .dwattr $C$DW$136, DW_AT_name("splitAndMarkBlockUsed")
    2728                            .dwattr $C$DW$136, DW_AT_low_pc(splitAndMarkBlockUsed)
    2729                            .dwattr $C$DW$136, DW_AT_high_pc(0x00)
    2730                            .dwattr $C$DW$136, DW_AT_TI_symbol_name("splitAndMarkBlockUsed")
    2731                            .dwattr $C$DW$136, DW_AT_type(*$C$DW$T$19)
    2732                            .dwattr $C$DW$136, DW_AT_TI_begin_file("../heap.c")
    2733                            .dwattr $C$DW$136, DW_AT_TI_begin_line(0x1a3)
    2734                            .dwattr $C$DW$136, DW_AT_TI_begin_column(0x10)
    2735                            .dwattr $C$DW$136, DW_AT_decl_file("../heap.c")
    2736                            .dwattr $C$DW$136, DW_AT_decl_line(0x1a3)
    2737                            .dwattr $C$DW$136, DW_AT_decl_column(0x10)
    2738                            .dwattr $C$DW$136, DW_AT_TI_max_frame_size(0x20)
    2739                            .dwpsn  file "../heap.c",line 419,column 84,is_stmt,address splitAndMarkBlockUsed,isa 1
    2740                    
    2741                            .dwfde $C$DW$CIE, splitAndMarkBlockUsed
    2742                    $C$DW$137       .dwtag  DW_TAG_formal_parameter
    2743                            .dwattr $C$DW$137, DW_AT_name("upperBlockStart")
    2744                            .dwattr $C$DW$137, DW_AT_TI_symbol_name("upperBlockStart")
    2745                            .dwattr $C$DW$137, DW_AT_type(*$C$DW$T$24)
    2746                            .dwattr $C$DW$137, DW_AT_location[DW_OP_reg0]
    2747                    
    2748                    $C$DW$138       .dwtag  DW_TAG_formal_parameter
TI ARM Assembler PC v16.9.6 Sun Dec 02 13:28:42 2018

Tools Copyright (c) 1996-2017 Texas Instruments Incorporated
heap.asm                                                             PAGE   51

    2749                            .dwattr $C$DW$138, DW_AT_name("desiredRoom")
    2750                            .dwattr $C$DW$138, DW_AT_TI_symbol_name("desiredRoom")
    2751                            .dwattr $C$DW$138, DW_AT_type(*$C$DW$T$19)
    2752                            .dwattr $C$DW$138, DW_AT_location[DW_OP_reg1]
    2753                    
    2754                    
    2755                    ;*****************************************************************************
    2756                    ;* FUNCTION NAME: splitAndMarkBlockUsed                                      *
    2757                    ;*                                                                           *
    2758                    ;*   Regs Modified     : A1,A2,A3,A4,SP,LR,SR,FPEXC,FPSCR                    *
    2759                    ;*   Regs Used         : A1,A2,A3,A4,SP,LR,SR,FPEXC,FPSCR                    *
    2760                    ;*   Local Frame Size  : 0 Args + 24 Auto + 4 Save = 28 byte                 *
    2761                    ;*****************************************************************************
    2762 0000040e           splitAndMarkBlockUsed:
    2763                    ;* --------------------------------------------------------------------------*
    2764                            .dwcfi  cfa_offset, 0
    2765 0000040e B500              PUSH      {LR}                  ; [DPU_3_PIPE]  ; [ORIG 16-BIT INS]
    2766                            .dwcfi  cfa_offset, 4
    2767                            .dwcfi  save_reg_to_mem, 14, -4
    2768 00000410 0D1CF1AD          SUB       SP, SP, #28           ; [DPU_3_PIPE]  ; [KEEP 32-BIT INS]
    2769                            .dwcfi  cfa_offset, 32
    2770                    $C$DW$139       .dwtag  DW_TAG_variable
    2771                            .dwattr $C$DW$139, DW_AT_name("upperBlockStart")
    2772                            .dwattr $C$DW$139, DW_AT_TI_symbol_name("upperBlockStart")
    2773                            .dwattr $C$DW$139, DW_AT_type(*$C$DW$T$24)
    2774                            .dwattr $C$DW$139, DW_AT_location[DW_OP_breg13 0]
    2775                    
    2776                    $C$DW$140       .dwtag  DW_TAG_variable
    2777                            .dwattr $C$DW$140, DW_AT_name("desiredRoom")
    2778                            .dwattr $C$DW$140, DW_AT_TI_symbol_name("desiredRoom")
    2779                            .dwattr $C$DW$140, DW_AT_type(*$C$DW$T$19)
    2780                            .dwattr $C$DW$140, DW_AT_location[DW_OP_breg13 4]
    2781                    
    2782                    $C$DW$141       .dwtag  DW_TAG_variable
    2783                            .dwattr $C$DW$141, DW_AT_name("leftoverRoom")
    2784                            .dwattr $C$DW$141, DW_AT_TI_symbol_name("leftoverRoom")
    2785                            .dwattr $C$DW$141, DW_AT_type(*$C$DW$T$19)
    2786                            .dwattr $C$DW$141, DW_AT_location[DW_OP_breg13 8]
    2787                    
    2788                    ;----------------------------------------------------------------------
    2789                    ; 419 | static int32_t splitAndMarkBlockUsed(int32_t* upperBlockStart, int32_t
    2790                    ;     | desiredRoom){                                                          
    2791                    ;----------------------------------------------------------------------
    2792 00000414 9101              STR       A2, [SP, #4]          ; [DPU_3_PIPE] |419|  ; [ORIG 16-BIT INS]
    2793 00000416 9000              STR       A1, [SP, #0]          ; [DPU_3_PIPE] |419|  ; [ORIG 16-BIT INS]
    2794                            .dwpsn  file "../heap.c",line 420,column 24,is_stmt,isa 1
    2795                    ;----------------------------------------------------------------------
    2796                    ; 420 | int32_t leftoverRoom = blockRoom(upperBlockStart) - desiredRoom - 2;   
    2797                    ; 421 | // only split block if leftovers could actually make another useful blo
    2798                    ;     | ck                                                                     
    2799                    ;----------------------------------------------------------------------
    2800 00000418 9800              LDR       A1, [SP, #0]          ; [DPU_3_PIPE] |420|  ; [ORIG 16-BIT INS]
    2801                    $C$DW$142       .dwtag  DW_TAG_TI_branch
    2802                            .dwattr $C$DW$142, DW_AT_low_pc(0x00)
    2803                            .dwattr $C$DW$142, DW_AT_name("blockRoom")
TI ARM Assembler PC v16.9.6 Sun Dec 02 13:28:42 2018

Tools Copyright (c) 1996-2017 Texas Instruments Incorporated
heap.asm                                                             PAGE   52

    2804                            .dwattr $C$DW$142, DW_AT_TI_call
    2805                    
    2806 0000041a FFFEF7FF!         BL        blockRoom             ; [DPU_3_PIPE] |420|  ; [KEEP 32-BIT INS]
    2807                            ; CALL OCCURS {blockRoom }       ; [] |420| 
    2808 0000041e 9901              LDR       A2, [SP, #4]          ; [DPU_3_PIPE] |420|  ; [ORIG 16-BIT INS]
    2809 00000420 1A40              SUBS      A1, A1, A2            ; [DPU_3_PIPE] |420|  ; [ORIG 16-BIT INS]
    2810 00000422 1E80              SUBS      A1, A1, #2            ; [DPU_3_PIPE] |420|  ; [ORIG 16-BIT INS]
    2811 00000424 9002              STR       A1, [SP, #8]          ; [DPU_3_PIPE] |420|  ; [ORIG 16-BIT INS]
    2812                            .dwpsn  file "../heap.c",line 422,column 3,is_stmt,isa 1
    2813                    ;----------------------------------------------------------------------
    2814                    ; 422 | if(leftoverRoom > 0){                                                  
    2815                    ;----------------------------------------------------------------------
    2816 00000426 9802              LDR       A1, [SP, #8]          ; [DPU_3_PIPE] |422|  ; [ORIG 16-BIT INS]
    2817 00000428 2800              CMP       A1, #0                ; [DPU_3_PIPE] |422|  ; [ORIG 16-BIT INS]
    2818 0000042a DD1B              BLE       ||$C$L51||            ; [DPU_3_PIPE] |422|  ; [ORIG 16-BIT INS]
    2819                            ; BRANCHCC OCCURS {||$C$L51||}   ; [] |422| 
    2820                    ;* --------------------------------------------------------------------------*
    2821                    
    2822                    $C$DW$143       .dwtag  DW_TAG_lexical_block
    2823                            .dwattr $C$DW$143, DW_AT_low_pc(0x00)
    2824                            .dwattr $C$DW$143, DW_AT_high_pc(0x00)
    2825                    $C$DW$144       .dwtag  DW_TAG_variable
    2826                            .dwattr $C$DW$144, DW_AT_name("upperBlockEnd")
    2827                            .dwattr $C$DW$144, DW_AT_TI_symbol_name("upperBlockEnd")
    2828                            .dwattr $C$DW$144, DW_AT_type(*$C$DW$T$24)
    2829                            .dwattr $C$DW$144, DW_AT_location[DW_OP_breg13 12]
    2830                    
    2831                    $C$DW$145       .dwtag  DW_TAG_variable
    2832                            .dwattr $C$DW$145, DW_AT_name("lowerBlockStart")
    2833                            .dwattr $C$DW$145, DW_AT_TI_symbol_name("lowerBlockStart")
    2834                            .dwattr $C$DW$145, DW_AT_type(*$C$DW$T$24)
    2835                            .dwattr $C$DW$145, DW_AT_location[DW_OP_breg13 16]
    2836                    
    2837                    $C$DW$146       .dwtag  DW_TAG_variable
    2838                            .dwattr $C$DW$146, DW_AT_name("lowerBlockEnd")
    2839                            .dwattr $C$DW$146, DW_AT_TI_symbol_name("lowerBlockEnd")
    2840                            .dwattr $C$DW$146, DW_AT_type(*$C$DW$T$24)
