;******************************************************************************
;* TI ARM C/C++ Codegen                                        PC v16.9.6.LTS *
;* Date/Time created: Sun Dec 02 13:28:43 2018                                *
;******************************************************************************
	.compiler_opts --abi=eabi --arm_vmrs_si_workaround=off --code_state=16 --diag_wrap=off --embedded_constants=on --endian=little --float_support=FPv4SPD16 --hll_source=on --object_format=elf --silicon_version=7M4 --symdebug:dwarf --symdebug:dwarf_version=3 --unaligned_access=on 
	.thumb

$C$DW$CU	.dwtag  DW_TAG_compile_unit
	.dwattr $C$DW$CU, DW_AT_name("../picojpeg.c")
	.dwattr $C$DW$CU, DW_AT_producer("TI TI ARM C/C++ Codegen PC v16.9.6.LTS Copyright (c) 1996-2017 Texas Instruments Incorporated")
	.dwattr $C$DW$CU, DW_AT_TI_version(0x01)
	.dwattr $C$DW$CU, DW_AT_comp_dir("C:\Users\brian\Documents\EE445L\Lab11\Test\Debug")
	.sect	".const:.string:ZAG"
	.clink
	.align	1
	.elfsym	ZAG,SYM_SIZE(64)
ZAG:
	.bits	0,8			; ZAG[0] @ 0
	.bits	1,8			; ZAG[1] @ 8
	.bits	8,8			; ZAG[2] @ 16
	.bits	16,8			; ZAG[3] @ 24
	.bits	9,8			; ZAG[4] @ 32
	.bits	2,8			; ZAG[5] @ 40
	.bits	3,8			; ZAG[6] @ 48
	.bits	10,8			; ZAG[7] @ 56
	.bits	17,8			; ZAG[8] @ 64
	.bits	24,8			; ZAG[9] @ 72
	.bits	32,8			; ZAG[10] @ 80
	.bits	25,8			; ZAG[11] @ 88
	.bits	18,8			; ZAG[12] @ 96
	.bits	11,8			; ZAG[13] @ 104
	.bits	4,8			; ZAG[14] @ 112
	.bits	5,8			; ZAG[15] @ 120
	.bits	12,8			; ZAG[16] @ 128
	.bits	19,8			; ZAG[17] @ 136
	.bits	26,8			; ZAG[18] @ 144
	.bits	33,8			; ZAG[19] @ 152
	.bits	40,8			; ZAG[20] @ 160
	.bits	48,8			; ZAG[21] @ 168
	.bits	41,8			; ZAG[22] @ 176
	.bits	34,8			; ZAG[23] @ 184
	.bits	27,8			; ZAG[24] @ 192
	.bits	20,8			; ZAG[25] @ 200
	.bits	13,8			; ZAG[26] @ 208
	.bits	6,8			; ZAG[27] @ 216
	.bits	7,8			; ZAG[28] @ 224
	.bits	14,8			; ZAG[29] @ 232
	.bits	21,8			; ZAG[30] @ 240
	.bits	28,8			; ZAG[31] @ 248
	.bits	35,8			; ZAG[32] @ 256
	.bits	42,8			; ZAG[33] @ 264
	.bits	49,8			; ZAG[34] @ 272
	.bits	56,8			; ZAG[35] @ 280
	.bits	57,8			; ZAG[36] @ 288
	.bits	50,8			; ZAG[37] @ 296
	.bits	43,8			; ZAG[38] @ 304
	.bits	36,8			; ZAG[39] @ 312
	.bits	29,8			; ZAG[40] @ 320
	.bits	22,8			; ZAG[41] @ 328
	.bits	15,8			; ZAG[42] @ 336
	.bits	23,8			; ZAG[43] @ 344
	.bits	30,8			; ZAG[44] @ 352
	.bits	37,8			; ZAG[45] @ 360
	.bits	44,8			; ZAG[46] @ 368
	.bits	51,8			; ZAG[47] @ 376
	.bits	58,8			; ZAG[48] @ 384
	.bits	59,8			; ZAG[49] @ 392
	.bits	52,8			; ZAG[50] @ 400
	.bits	45,8			; ZAG[51] @ 408
	.bits	38,8			; ZAG[52] @ 416
	.bits	31,8			; ZAG[53] @ 424
	.bits	39,8			; ZAG[54] @ 432
	.bits	46,8			; ZAG[55] @ 440
	.bits	53,8			; ZAG[56] @ 448
	.bits	60,8			; ZAG[57] @ 456
	.bits	61,8			; ZAG[58] @ 464
	.bits	54,8			; ZAG[59] @ 472
	.bits	47,8			; ZAG[60] @ 480
	.bits	55,8			; ZAG[61] @ 488
	.bits	62,8			; ZAG[62] @ 496
	.bits	63,8			; ZAG[63] @ 504

$C$DW$1	.dwtag  DW_TAG_variable
	.dwattr $C$DW$1, DW_AT_name("ZAG")
	.dwattr $C$DW$1, DW_AT_TI_symbol_name("ZAG")
	.dwattr $C$DW$1, DW_AT_type(*$C$DW$T$56)
	.dwattr $C$DW$1, DW_AT_location[DW_OP_addr ZAG]
	.dwattr $C$DW$1, DW_AT_decl_file("../picojpeg.c")
	.dwattr $C$DW$1, DW_AT_decl_line(0x81)
	.dwattr $C$DW$1, DW_AT_decl_column(0x13)

gCoeffBuf:	.usect	".bss:gCoeffBuf",128,2
	.clink ".bss:gCoeffBuf"
$C$DW$2	.dwtag  DW_TAG_variable
	.dwattr $C$DW$2, DW_AT_name("gCoeffBuf")
	.dwattr $C$DW$2, DW_AT_TI_symbol_name("gCoeffBuf")
	.dwattr $C$DW$2, DW_AT_type(*$C$DW$T$94)
	.dwattr $C$DW$2, DW_AT_location[DW_OP_addr gCoeffBuf]
	.dwattr $C$DW$2, DW_AT_decl_file("../picojpeg.c")
	.dwattr $C$DW$2, DW_AT_decl_line(0x8e)
	.dwattr $C$DW$2, DW_AT_decl_column(0x0e)

gMCUBufR:	.usect	".bss:gMCUBufR",256,1
	.clink ".bss:gMCUBufR"
$C$DW$3	.dwtag  DW_TAG_variable
	.dwattr $C$DW$3, DW_AT_name("gMCUBufR")
	.dwattr $C$DW$3, DW_AT_TI_symbol_name("gMCUBufR")
	.dwattr $C$DW$3, DW_AT_type(*$C$DW$T$78)
	.dwattr $C$DW$3, DW_AT_location[DW_OP_addr gMCUBufR]
	.dwattr $C$DW$3, DW_AT_decl_file("../picojpeg.c")
	.dwattr $C$DW$3, DW_AT_decl_line(0x91)
	.dwattr $C$DW$3, DW_AT_decl_column(0x0e)

gMCUBufG:	.usect	".bss:gMCUBufG",256,1
	.clink ".bss:gMCUBufG"
$C$DW$4	.dwtag  DW_TAG_variable
	.dwattr $C$DW$4, DW_AT_name("gMCUBufG")
	.dwattr $C$DW$4, DW_AT_TI_symbol_name("gMCUBufG")
	.dwattr $C$DW$4, DW_AT_type(*$C$DW$T$78)
	.dwattr $C$DW$4, DW_AT_location[DW_OP_addr gMCUBufG]
	.dwattr $C$DW$4, DW_AT_decl_file("../picojpeg.c")
	.dwattr $C$DW$4, DW_AT_decl_line(0x92)
	.dwattr $C$DW$4, DW_AT_decl_column(0x0e)

gMCUBufB:	.usect	".bss:gMCUBufB",256,1
	.clink ".bss:gMCUBufB"
$C$DW$5	.dwtag  DW_TAG_variable
	.dwattr $C$DW$5, DW_AT_name("gMCUBufB")
	.dwattr $C$DW$5, DW_AT_TI_symbol_name("gMCUBufB")
	.dwattr $C$DW$5, DW_AT_type(*$C$DW$T$78)
	.dwattr $C$DW$5, DW_AT_location[DW_OP_addr gMCUBufB]
	.dwattr $C$DW$5, DW_AT_decl_file("../picojpeg.c")
	.dwattr $C$DW$5, DW_AT_decl_line(0x93)
	.dwattr $C$DW$5, DW_AT_decl_column(0x0e)

gQuant0:	.usect	".bss:gQuant0",128,2
	.clink ".bss:gQuant0"
$C$DW$6	.dwtag  DW_TAG_variable
	.dwattr $C$DW$6, DW_AT_name("gQuant0")
	.dwattr $C$DW$6, DW_AT_TI_symbol_name("gQuant0")
	.dwattr $C$DW$6, DW_AT_type(*$C$DW$T$94)
	.dwattr $C$DW$6, DW_AT_location[DW_OP_addr gQuant0]
	.dwattr $C$DW$6, DW_AT_decl_file("../picojpeg.c")
	.dwattr $C$DW$6, DW_AT_decl_line(0x96)
	.dwattr $C$DW$6, DW_AT_decl_column(0x0e)

gQuant1:	.usect	".bss:gQuant1",128,2
	.clink ".bss:gQuant1"
$C$DW$7	.dwtag  DW_TAG_variable
	.dwattr $C$DW$7, DW_AT_name("gQuant1")
	.dwattr $C$DW$7, DW_AT_TI_symbol_name("gQuant1")
	.dwattr $C$DW$7, DW_AT_type(*$C$DW$T$94)
	.dwattr $C$DW$7, DW_AT_location[DW_OP_addr gQuant1]
	.dwattr $C$DW$7, DW_AT_decl_file("../picojpeg.c")
	.dwattr $C$DW$7, DW_AT_decl_line(0x97)
	.dwattr $C$DW$7, DW_AT_decl_column(0x0e)

gLastDC:	.usect	".bss:gLastDC",8,2
	.clink ".bss:gLastDC"
$C$DW$8	.dwtag  DW_TAG_variable
	.dwattr $C$DW$8, DW_AT_name("gLastDC")
	.dwattr $C$DW$8, DW_AT_TI_symbol_name("gLastDC")
	.dwattr $C$DW$8, DW_AT_type(*$C$DW$T$95)
	.dwattr $C$DW$8, DW_AT_location[DW_OP_addr gLastDC]
	.dwattr $C$DW$8, DW_AT_decl_file("../picojpeg.c")
	.dwattr $C$DW$8, DW_AT_decl_line(0x9a)
	.dwattr $C$DW$8, DW_AT_decl_column(0x0e)

gHuffTab0:	.usect	".bss:gHuffTab0",80,2
	.clink ".bss:gHuffTab0"
$C$DW$9	.dwtag  DW_TAG_variable
	.dwattr $C$DW$9, DW_AT_name("gHuffTab0")
	.dwattr $C$DW$9, DW_AT_TI_symbol_name("gHuffTab0")
	.dwattr $C$DW$9, DW_AT_type(*$C$DW$T$33)
	.dwattr $C$DW$9, DW_AT_location[DW_OP_addr gHuffTab0]
	.dwattr $C$DW$9, DW_AT_decl_file("../picojpeg.c")
	.dwattr $C$DW$9, DW_AT_decl_line(0xa4)
	.dwattr $C$DW$9, DW_AT_decl_column(0x12)

gHuffVal0:	.usect	".bss:gHuffVal0",16,1
	.clink ".bss:gHuffVal0"
$C$DW$10	.dwtag  DW_TAG_variable
	.dwattr $C$DW$10, DW_AT_name("gHuffVal0")
	.dwattr $C$DW$10, DW_AT_TI_symbol_name("gHuffVal0")
	.dwattr $C$DW$10, DW_AT_type(*$C$DW$T$26)
	.dwattr $C$DW$10, DW_AT_location[DW_OP_addr gHuffVal0]
	.dwattr $C$DW$10, DW_AT_decl_file("../picojpeg.c")
	.dwattr $C$DW$10, DW_AT_decl_line(0xa6)
	.dwattr $C$DW$10, DW_AT_decl_column(0x0e)

gHuffTab1:	.usect	".bss:gHuffTab1",80,2
	.clink ".bss:gHuffTab1"
$C$DW$11	.dwtag  DW_TAG_variable
	.dwattr $C$DW$11, DW_AT_name("gHuffTab1")
	.dwattr $C$DW$11, DW_AT_TI_symbol_name("gHuffTab1")
	.dwattr $C$DW$11, DW_AT_type(*$C$DW$T$33)
	.dwattr $C$DW$11, DW_AT_location[DW_OP_addr gHuffTab1]
	.dwattr $C$DW$11, DW_AT_decl_file("../picojpeg.c")
	.dwattr $C$DW$11, DW_AT_decl_line(0xa8)
	.dwattr $C$DW$11, DW_AT_decl_column(0x12)

gHuffVal1:	.usect	".bss:gHuffVal1",16,1
	.clink ".bss:gHuffVal1"
$C$DW$12	.dwtag  DW_TAG_variable
	.dwattr $C$DW$12, DW_AT_name("gHuffVal1")
	.dwattr $C$DW$12, DW_AT_TI_symbol_name("gHuffVal1")
	.dwattr $C$DW$12, DW_AT_type(*$C$DW$T$26)
	.dwattr $C$DW$12, DW_AT_location[DW_OP_addr gHuffVal1]
	.dwattr $C$DW$12, DW_AT_decl_file("../picojpeg.c")
	.dwattr $C$DW$12, DW_AT_decl_line(0xa9)
	.dwattr $C$DW$12, DW_AT_decl_column(0x0e)

gHuffTab2:	.usect	".bss:gHuffTab2",80,2
	.clink ".bss:gHuffTab2"
$C$DW$13	.dwtag  DW_TAG_variable
	.dwattr $C$DW$13, DW_AT_name("gHuffTab2")
	.dwattr $C$DW$13, DW_AT_TI_symbol_name("gHuffTab2")
	.dwattr $C$DW$13, DW_AT_type(*$C$DW$T$33)
	.dwattr $C$DW$13, DW_AT_location[DW_OP_addr gHuffTab2]
	.dwattr $C$DW$13, DW_AT_decl_file("../picojpeg.c")
	.dwattr $C$DW$13, DW_AT_decl_line(0xac)
	.dwattr $C$DW$13, DW_AT_decl_column(0x12)

gHuffVal2:	.usect	".bss:gHuffVal2",256,1
	.clink ".bss:gHuffVal2"
$C$DW$14	.dwtag  DW_TAG_variable
	.dwattr $C$DW$14, DW_AT_name("gHuffVal2")
	.dwattr $C$DW$14, DW_AT_TI_symbol_name("gHuffVal2")
	.dwattr $C$DW$14, DW_AT_type(*$C$DW$T$78)
	.dwattr $C$DW$14, DW_AT_location[DW_OP_addr gHuffVal2]
	.dwattr $C$DW$14, DW_AT_decl_file("../picojpeg.c")
	.dwattr $C$DW$14, DW_AT_decl_line(0xad)
	.dwattr $C$DW$14, DW_AT_decl_column(0x0e)

gHuffTab3:	.usect	".bss:gHuffTab3",80,2
	.clink ".bss:gHuffTab3"
$C$DW$15	.dwtag  DW_TAG_variable
	.dwattr $C$DW$15, DW_AT_name("gHuffTab3")
	.dwattr $C$DW$15, DW_AT_TI_symbol_name("gHuffTab3")
	.dwattr $C$DW$15, DW_AT_type(*$C$DW$T$33)
	.dwattr $C$DW$15, DW_AT_location[DW_OP_addr gHuffTab3]
	.dwattr $C$DW$15, DW_AT_decl_file("../picojpeg.c")
	.dwattr $C$DW$15, DW_AT_decl_line(0xaf)
	.dwattr $C$DW$15, DW_AT_decl_column(0x12)

gHuffVal3:	.usect	".bss:gHuffVal3",256,1
	.clink ".bss:gHuffVal3"
$C$DW$16	.dwtag  DW_TAG_variable
	.dwattr $C$DW$16, DW_AT_name("gHuffVal3")
	.dwattr $C$DW$16, DW_AT_TI_symbol_name("gHuffVal3")
	.dwattr $C$DW$16, DW_AT_type(*$C$DW$T$78)
	.dwattr $C$DW$16, DW_AT_location[DW_OP_addr gHuffVal3]
	.dwattr $C$DW$16, DW_AT_decl_file("../picojpeg.c")
	.dwattr $C$DW$16, DW_AT_decl_line(0xb0)
	.dwattr $C$DW$16, DW_AT_decl_column(0x0e)

	.bss	gValidHuffTables,1,1
$C$DW$17	.dwtag  DW_TAG_variable
	.dwattr $C$DW$17, DW_AT_name("gValidHuffTables")
	.dwattr $C$DW$17, DW_AT_TI_symbol_name("gValidHuffTables")
	.dwattr $C$DW$17, DW_AT_type(*$C$DW$T$25)
	.dwattr $C$DW$17, DW_AT_location[DW_OP_addr gValidHuffTables]
	.dwattr $C$DW$17, DW_AT_decl_file("../picojpeg.c")
	.dwattr $C$DW$17, DW_AT_decl_line(0xb2)
	.dwattr $C$DW$17, DW_AT_decl_column(0x0e)

	.bss	gValidQuantTables,1,1
$C$DW$18	.dwtag  DW_TAG_variable
	.dwattr $C$DW$18, DW_AT_name("gValidQuantTables")
	.dwattr $C$DW$18, DW_AT_TI_symbol_name("gValidQuantTables")
	.dwattr $C$DW$18, DW_AT_type(*$C$DW$T$25)
	.dwattr $C$DW$18, DW_AT_location[DW_OP_addr gValidQuantTables]
	.dwattr $C$DW$18, DW_AT_decl_file("../picojpeg.c")
	.dwattr $C$DW$18, DW_AT_decl_line(0xb3)
	.dwattr $C$DW$18, DW_AT_decl_column(0x0e)

	.bss	gTemFlag,1,1
$C$DW$19	.dwtag  DW_TAG_variable
	.dwattr $C$DW$19, DW_AT_name("gTemFlag")
	.dwattr $C$DW$19, DW_AT_TI_symbol_name("gTemFlag")
	.dwattr $C$DW$19, DW_AT_type(*$C$DW$T$25)
	.dwattr $C$DW$19, DW_AT_location[DW_OP_addr gTemFlag]
	.dwattr $C$DW$19, DW_AT_decl_file("../picojpeg.c")
	.dwattr $C$DW$19, DW_AT_decl_line(0xb5)
	.dwattr $C$DW$19, DW_AT_decl_column(0x0e)

gInBuf:	.usect	".bss:gInBuf",256,1
	.clink ".bss:gInBuf"
$C$DW$20	.dwtag  DW_TAG_variable
	.dwattr $C$DW$20, DW_AT_name("gInBuf")
	.dwattr $C$DW$20, DW_AT_TI_symbol_name("gInBuf")
	.dwattr $C$DW$20, DW_AT_type(*$C$DW$T$78)
	.dwattr $C$DW$20, DW_AT_location[DW_OP_addr gInBuf]
	.dwattr $C$DW$20, DW_AT_decl_file("../picojpeg.c")
	.dwattr $C$DW$20, DW_AT_decl_line(0xb7)
	.dwattr $C$DW$20, DW_AT_decl_column(0x0e)

	.bss	gInBufOfs,1,1
$C$DW$21	.dwtag  DW_TAG_variable
	.dwattr $C$DW$21, DW_AT_name("gInBufOfs")
	.dwattr $C$DW$21, DW_AT_TI_symbol_name("gInBufOfs")
	.dwattr $C$DW$21, DW_AT_type(*$C$DW$T$25)
	.dwattr $C$DW$21, DW_AT_location[DW_OP_addr gInBufOfs]
	.dwattr $C$DW$21, DW_AT_decl_file("../picojpeg.c")
	.dwattr $C$DW$21, DW_AT_decl_line(0xb8)
	.dwattr $C$DW$21, DW_AT_decl_column(0x0e)

	.bss	gInBufLeft,1,1
$C$DW$22	.dwtag  DW_TAG_variable
	.dwattr $C$DW$22, DW_AT_name("gInBufLeft")
	.dwattr $C$DW$22, DW_AT_TI_symbol_name("gInBufLeft")
	.dwattr $C$DW$22, DW_AT_type(*$C$DW$T$25)
	.dwattr $C$DW$22, DW_AT_location[DW_OP_addr gInBufLeft]
	.dwattr $C$DW$22, DW_AT_decl_file("../picojpeg.c")
	.dwattr $C$DW$22, DW_AT_decl_line(0xb9)
	.dwattr $C$DW$22, DW_AT_decl_column(0x0e)

	.bss	gBitBuf,2,2
$C$DW$23	.dwtag  DW_TAG_variable
	.dwattr $C$DW$23, DW_AT_name("gBitBuf")
	.dwattr $C$DW$23, DW_AT_TI_symbol_name("gBitBuf")
	.dwattr $C$DW$23, DW_AT_type(*$C$DW$T$23)
	.dwattr $C$DW$23, DW_AT_location[DW_OP_addr gBitBuf]
	.dwattr $C$DW$23, DW_AT_decl_file("../picojpeg.c")
	.dwattr $C$DW$23, DW_AT_decl_line(0xbb)
	.dwattr $C$DW$23, DW_AT_decl_column(0x0f)

	.bss	gBitsLeft,1,1
$C$DW$24	.dwtag  DW_TAG_variable
	.dwattr $C$DW$24, DW_AT_name("gBitsLeft")
	.dwattr $C$DW$24, DW_AT_TI_symbol_name("gBitsLeft")
	.dwattr $C$DW$24, DW_AT_type(*$C$DW$T$25)
	.dwattr $C$DW$24, DW_AT_location[DW_OP_addr gBitsLeft]
	.dwattr $C$DW$24, DW_AT_decl_file("../picojpeg.c")
	.dwattr $C$DW$24, DW_AT_decl_line(0xbc)
	.dwattr $C$DW$24, DW_AT_decl_column(0x0e)

	.bss	gImageXSize,2,2
$C$DW$25	.dwtag  DW_TAG_variable
	.dwattr $C$DW$25, DW_AT_name("gImageXSize")
	.dwattr $C$DW$25, DW_AT_TI_symbol_name("gImageXSize")
	.dwattr $C$DW$25, DW_AT_type(*$C$DW$T$23)
	.dwattr $C$DW$25, DW_AT_location[DW_OP_addr gImageXSize]
	.dwattr $C$DW$25, DW_AT_decl_file("../picojpeg.c")
	.dwattr $C$DW$25, DW_AT_decl_line(0xbe)
	.dwattr $C$DW$25, DW_AT_decl_column(0x0f)

	.bss	gImageYSize,2,2
$C$DW$26	.dwtag  DW_TAG_variable
	.dwattr $C$DW$26, DW_AT_name("gImageYSize")
	.dwattr $C$DW$26, DW_AT_TI_symbol_name("gImageYSize")
	.dwattr $C$DW$26, DW_AT_type(*$C$DW$T$23)
	.dwattr $C$DW$26, DW_AT_location[DW_OP_addr gImageYSize]
	.dwattr $C$DW$26, DW_AT_decl_file("../picojpeg.c")
	.dwattr $C$DW$26, DW_AT_decl_line(0xbf)
	.dwattr $C$DW$26, DW_AT_decl_column(0x0f)

	.bss	gCompsInFrame,1,1
$C$DW$27	.dwtag  DW_TAG_variable
	.dwattr $C$DW$27, DW_AT_name("gCompsInFrame")
	.dwattr $C$DW$27, DW_AT_TI_symbol_name("gCompsInFrame")
	.dwattr $C$DW$27, DW_AT_type(*$C$DW$T$25)
	.dwattr $C$DW$27, DW_AT_location[DW_OP_addr gCompsInFrame]
	.dwattr $C$DW$27, DW_AT_decl_file("../picojpeg.c")
	.dwattr $C$DW$27, DW_AT_decl_line(0xc0)
	.dwattr $C$DW$27, DW_AT_decl_column(0x0e)

gCompIdent:	.usect	".bss:gCompIdent",4,1
	.clink ".bss:gCompIdent"
$C$DW$28	.dwtag  DW_TAG_variable
	.dwattr $C$DW$28, DW_AT_name("gCompIdent")
	.dwattr $C$DW$28, DW_AT_TI_symbol_name("gCompIdent")
	.dwattr $C$DW$28, DW_AT_type(*$C$DW$T$79)
	.dwattr $C$DW$28, DW_AT_location[DW_OP_addr gCompIdent]
	.dwattr $C$DW$28, DW_AT_decl_file("../picojpeg.c")
	.dwattr $C$DW$28, DW_AT_decl_line(0xc1)
	.dwattr $C$DW$28, DW_AT_decl_column(0x0e)

gCompHSamp:	.usect	".bss:gCompHSamp",4,1
	.clink ".bss:gCompHSamp"
$C$DW$29	.dwtag  DW_TAG_variable
	.dwattr $C$DW$29, DW_AT_name("gCompHSamp")
	.dwattr $C$DW$29, DW_AT_TI_symbol_name("gCompHSamp")
	.dwattr $C$DW$29, DW_AT_type(*$C$DW$T$79)
	.dwattr $C$DW$29, DW_AT_location[DW_OP_addr gCompHSamp]
	.dwattr $C$DW$29, DW_AT_decl_file("../picojpeg.c")
	.dwattr $C$DW$29, DW_AT_decl_line(0xc2)
	.dwattr $C$DW$29, DW_AT_decl_column(0x0e)

gCompVSamp:	.usect	".bss:gCompVSamp",4,1
	.clink ".bss:gCompVSamp"
$C$DW$30	.dwtag  DW_TAG_variable
	.dwattr $C$DW$30, DW_AT_name("gCompVSamp")
	.dwattr $C$DW$30, DW_AT_TI_symbol_name("gCompVSamp")
	.dwattr $C$DW$30, DW_AT_type(*$C$DW$T$79)
	.dwattr $C$DW$30, DW_AT_location[DW_OP_addr gCompVSamp]
	.dwattr $C$DW$30, DW_AT_decl_file("../picojpeg.c")
	.dwattr $C$DW$30, DW_AT_decl_line(0xc3)
	.dwattr $C$DW$30, DW_AT_decl_column(0x0e)

gCompQuant:	.usect	".bss:gCompQuant",4,1
	.clink ".bss:gCompQuant"
$C$DW$31	.dwtag  DW_TAG_variable
	.dwattr $C$DW$31, DW_AT_name("gCompQuant")
	.dwattr $C$DW$31, DW_AT_TI_symbol_name("gCompQuant")
	.dwattr $C$DW$31, DW_AT_type(*$C$DW$T$79)
	.dwattr $C$DW$31, DW_AT_location[DW_OP_addr gCompQuant]
	.dwattr $C$DW$31, DW_AT_decl_file("../picojpeg.c")
	.dwattr $C$DW$31, DW_AT_decl_line(0xc4)
	.dwattr $C$DW$31, DW_AT_decl_column(0x0e)

	.bss	gRestartInterval,2,2
$C$DW$32	.dwtag  DW_TAG_variable
	.dwattr $C$DW$32, DW_AT_name("gRestartInterval")
	.dwattr $C$DW$32, DW_AT_TI_symbol_name("gRestartInterval")
	.dwattr $C$DW$32, DW_AT_type(*$C$DW$T$23)
	.dwattr $C$DW$32, DW_AT_location[DW_OP_addr gRestartInterval]
	.dwattr $C$DW$32, DW_AT_decl_file("../picojpeg.c")
	.dwattr $C$DW$32, DW_AT_decl_line(0xc6)
	.dwattr $C$DW$32, DW_AT_decl_column(0x0f)

	.bss	gNextRestartNum,2,2
$C$DW$33	.dwtag  DW_TAG_variable
	.dwattr $C$DW$33, DW_AT_name("gNextRestartNum")
	.dwattr $C$DW$33, DW_AT_TI_symbol_name("gNextRestartNum")
	.dwattr $C$DW$33, DW_AT_type(*$C$DW$T$23)
	.dwattr $C$DW$33, DW_AT_location[DW_OP_addr gNextRestartNum]
	.dwattr $C$DW$33, DW_AT_decl_file("../picojpeg.c")
	.dwattr $C$DW$33, DW_AT_decl_line(0xc7)
	.dwattr $C$DW$33, DW_AT_decl_column(0x0f)

	.bss	gRestartsLeft,2,2
$C$DW$34	.dwtag  DW_TAG_variable
	.dwattr $C$DW$34, DW_AT_name("gRestartsLeft")
	.dwattr $C$DW$34, DW_AT_TI_symbol_name("gRestartsLeft")
	.dwattr $C$DW$34, DW_AT_type(*$C$DW$T$23)
	.dwattr $C$DW$34, DW_AT_location[DW_OP_addr gRestartsLeft]
	.dwattr $C$DW$34, DW_AT_decl_file("../picojpeg.c")
	.dwattr $C$DW$34, DW_AT_decl_line(0xc8)
	.dwattr $C$DW$34, DW_AT_decl_column(0x0f)

	.bss	gCompsInScan,1,1
$C$DW$35	.dwtag  DW_TAG_variable
	.dwattr $C$DW$35, DW_AT_name("gCompsInScan")
	.dwattr $C$DW$35, DW_AT_TI_symbol_name("gCompsInScan")
	.dwattr $C$DW$35, DW_AT_type(*$C$DW$T$25)
	.dwattr $C$DW$35, DW_AT_location[DW_OP_addr gCompsInScan]
	.dwattr $C$DW$35, DW_AT_decl_file("../picojpeg.c")
	.dwattr $C$DW$35, DW_AT_decl_line(0xca)
	.dwattr $C$DW$35, DW_AT_decl_column(0x0e)

gCompList:	.usect	".bss:gCompList",4,1
	.clink ".bss:gCompList"
$C$DW$36	.dwtag  DW_TAG_variable
	.dwattr $C$DW$36, DW_AT_name("gCompList")
	.dwattr $C$DW$36, DW_AT_TI_symbol_name("gCompList")
	.dwattr $C$DW$36, DW_AT_type(*$C$DW$T$79)
	.dwattr $C$DW$36, DW_AT_location[DW_OP_addr gCompList]
	.dwattr $C$DW$36, DW_AT_decl_file("../picojpeg.c")
	.dwattr $C$DW$36, DW_AT_decl_line(0xcb)
	.dwattr $C$DW$36, DW_AT_decl_column(0x0e)

gCompDCTab:	.usect	".bss:gCompDCTab",4,1
	.clink ".bss:gCompDCTab"
$C$DW$37	.dwtag  DW_TAG_variable
	.dwattr $C$DW$37, DW_AT_name("gCompDCTab")
	.dwattr $C$DW$37, DW_AT_TI_symbol_name("gCompDCTab")
	.dwattr $C$DW$37, DW_AT_type(*$C$DW$T$79)
	.dwattr $C$DW$37, DW_AT_location[DW_OP_addr gCompDCTab]
	.dwattr $C$DW$37, DW_AT_decl_file("../picojpeg.c")
	.dwattr $C$DW$37, DW_AT_decl_line(0xcc)
	.dwattr $C$DW$37, DW_AT_decl_column(0x0e)

gCompACTab:	.usect	".bss:gCompACTab",4,1
	.clink ".bss:gCompACTab"
$C$DW$38	.dwtag  DW_TAG_variable
	.dwattr $C$DW$38, DW_AT_name("gCompACTab")
	.dwattr $C$DW$38, DW_AT_TI_symbol_name("gCompACTab")
	.dwattr $C$DW$38, DW_AT_type(*$C$DW$T$79)
	.dwattr $C$DW$38, DW_AT_location[DW_OP_addr gCompACTab]
	.dwattr $C$DW$38, DW_AT_decl_file("../picojpeg.c")
	.dwattr $C$DW$38, DW_AT_decl_line(0xcd)
	.dwattr $C$DW$38, DW_AT_decl_column(0x0e)

	.bss	gScanType,1,1
$C$DW$39	.dwtag  DW_TAG_variable
	.dwattr $C$DW$39, DW_AT_name("gScanType")
	.dwattr $C$DW$39, DW_AT_TI_symbol_name("gScanType")
	.dwattr $C$DW$39, DW_AT_type(*$C$DW$T$20)
	.dwattr $C$DW$39, DW_AT_location[DW_OP_addr gScanType]
	.dwattr $C$DW$39, DW_AT_decl_file("../picojpeg.c")
	.dwattr $C$DW$39, DW_AT_decl_line(0xcf)
	.dwattr $C$DW$39, DW_AT_decl_column(0x1a)

	.bss	gMaxBlocksPerMCU,1,1
$C$DW$40	.dwtag  DW_TAG_variable
	.dwattr $C$DW$40, DW_AT_name("gMaxBlocksPerMCU")
	.dwattr $C$DW$40, DW_AT_TI_symbol_name("gMaxBlocksPerMCU")
	.dwattr $C$DW$40, DW_AT_type(*$C$DW$T$25)
	.dwattr $C$DW$40, DW_AT_location[DW_OP_addr gMaxBlocksPerMCU]
	.dwattr $C$DW$40, DW_AT_decl_file("../picojpeg.c")
	.dwattr $C$DW$40, DW_AT_decl_line(0xd1)
	.dwattr $C$DW$40, DW_AT_decl_column(0x0e)

	.bss	gMaxMCUXSize,1,1
$C$DW$41	.dwtag  DW_TAG_variable
	.dwattr $C$DW$41, DW_AT_name("gMaxMCUXSize")
	.dwattr $C$DW$41, DW_AT_TI_symbol_name("gMaxMCUXSize")
	.dwattr $C$DW$41, DW_AT_type(*$C$DW$T$25)
	.dwattr $C$DW$41, DW_AT_location[DW_OP_addr gMaxMCUXSize]
	.dwattr $C$DW$41, DW_AT_decl_file("../picojpeg.c")
	.dwattr $C$DW$41, DW_AT_decl_line(0xd2)
	.dwattr $C$DW$41, DW_AT_decl_column(0x0e)

	.bss	gMaxMCUYSize,1,1
$C$DW$42	.dwtag  DW_TAG_variable
	.dwattr $C$DW$42, DW_AT_name("gMaxMCUYSize")
	.dwattr $C$DW$42, DW_AT_TI_symbol_name("gMaxMCUYSize")
	.dwattr $C$DW$42, DW_AT_type(*$C$DW$T$25)
	.dwattr $C$DW$42, DW_AT_location[DW_OP_addr gMaxMCUYSize]
	.dwattr $C$DW$42, DW_AT_decl_file("../picojpeg.c")
	.dwattr $C$DW$42, DW_AT_decl_line(0xd3)
	.dwattr $C$DW$42, DW_AT_decl_column(0x0e)

	.bss	gMaxMCUSPerRow,2,2
$C$DW$43	.dwtag  DW_TAG_variable
	.dwattr $C$DW$43, DW_AT_name("gMaxMCUSPerRow")
	.dwattr $C$DW$43, DW_AT_TI_symbol_name("gMaxMCUSPerRow")
	.dwattr $C$DW$43, DW_AT_type(*$C$DW$T$23)
	.dwattr $C$DW$43, DW_AT_location[DW_OP_addr gMaxMCUSPerRow]
	.dwattr $C$DW$43, DW_AT_decl_file("../picojpeg.c")
	.dwattr $C$DW$43, DW_AT_decl_line(0xd4)
	.dwattr $C$DW$43, DW_AT_decl_column(0x0f)

	.bss	gMaxMCUSPerCol,2,2
$C$DW$44	.dwtag  DW_TAG_variable
	.dwattr $C$DW$44, DW_AT_name("gMaxMCUSPerCol")
	.dwattr $C$DW$44, DW_AT_TI_symbol_name("gMaxMCUSPerCol")
	.dwattr $C$DW$44, DW_AT_type(*$C$DW$T$23)
	.dwattr $C$DW$44, DW_AT_location[DW_OP_addr gMaxMCUSPerCol]
	.dwattr $C$DW$44, DW_AT_decl_file("../picojpeg.c")
	.dwattr $C$DW$44, DW_AT_decl_line(0xd5)
	.dwattr $C$DW$44, DW_AT_decl_column(0x0f)

	.bss	gNumMCUSRemaining,2,2
$C$DW$45	.dwtag  DW_TAG_variable
	.dwattr $C$DW$45, DW_AT_name("gNumMCUSRemaining")
	.dwattr $C$DW$45, DW_AT_TI_symbol_name("gNumMCUSRemaining")
	.dwattr $C$DW$45, DW_AT_type(*$C$DW$T$23)
	.dwattr $C$DW$45, DW_AT_location[DW_OP_addr gNumMCUSRemaining]
	.dwattr $C$DW$45, DW_AT_decl_file("../picojpeg.c")
	.dwattr $C$DW$45, DW_AT_decl_line(0xd6)
	.dwattr $C$DW$45, DW_AT_decl_column(0x0f)

gMCUOrg:	.usect	".bss:gMCUOrg",8,1
	.clink ".bss:gMCUOrg"
$C$DW$46	.dwtag  DW_TAG_variable
	.dwattr $C$DW$46, DW_AT_name("gMCUOrg")
	.dwattr $C$DW$46, DW_AT_TI_symbol_name("gMCUOrg")
	.dwattr $C$DW$46, DW_AT_type(*$C$DW$T$80)
	.dwattr $C$DW$46, DW_AT_location[DW_OP_addr gMCUOrg]
	.dwattr $C$DW$46, DW_AT_decl_file("../picojpeg.c")
	.dwattr $C$DW$46, DW_AT_decl_line(0xd7)
	.dwattr $C$DW$46, DW_AT_decl_column(0x0e)

	.bss	g_pNeedBytesCallback,4,4
$C$DW$47	.dwtag  DW_TAG_variable
	.dwattr $C$DW$47, DW_AT_name("g_pNeedBytesCallback")
	.dwattr $C$DW$47, DW_AT_TI_symbol_name("g_pNeedBytesCallback")
	.dwattr $C$DW$47, DW_AT_type(*$C$DW$T$61)
	.dwattr $C$DW$47, DW_AT_location[DW_OP_addr g_pNeedBytesCallback]
	.dwattr $C$DW$47, DW_AT_decl_file("../picojpeg.c")
	.dwattr $C$DW$47, DW_AT_decl_line(0xd9)
	.dwattr $C$DW$47, DW_AT_decl_column(0x24)

	.bss	g_pCallback_data,4,4
$C$DW$48	.dwtag  DW_TAG_variable
	.dwattr $C$DW$48, DW_AT_name("g_pCallback_data")
	.dwattr $C$DW$48, DW_AT_TI_symbol_name("g_pCallback_data")
	.dwattr $C$DW$48, DW_AT_type(*$C$DW$T$3)
	.dwattr $C$DW$48, DW_AT_location[DW_OP_addr g_pCallback_data]
	.dwattr $C$DW$48, DW_AT_decl_file("../picojpeg.c")
	.dwattr $C$DW$48, DW_AT_decl_line(0xda)
	.dwattr $C$DW$48, DW_AT_decl_column(0x0e)

	.bss	gCallbackStatus,1,1
$C$DW$49	.dwtag  DW_TAG_variable
	.dwattr $C$DW$49, DW_AT_name("gCallbackStatus")
	.dwattr $C$DW$49, DW_AT_TI_symbol_name("gCallbackStatus")
	.dwattr $C$DW$49, DW_AT_type(*$C$DW$T$25)
	.dwattr $C$DW$49, DW_AT_location[DW_OP_addr gCallbackStatus]
	.dwattr $C$DW$49, DW_AT_decl_file("../picojpeg.c")
	.dwattr $C$DW$49, DW_AT_decl_line(0xdb)
	.dwattr $C$DW$49, DW_AT_decl_column(0x0e)

	.bss	gReduce,1,1
$C$DW$50	.dwtag  DW_TAG_variable
	.dwattr $C$DW$50, DW_AT_name("gReduce")
	.dwattr $C$DW$50, DW_AT_TI_symbol_name("gReduce")
	.dwattr $C$DW$50, DW_AT_type(*$C$DW$T$25)
	.dwattr $C$DW$50, DW_AT_location[DW_OP_addr gReduce]
	.dwattr $C$DW$50, DW_AT_decl_file("../picojpeg.c")
	.dwattr $C$DW$50, DW_AT_decl_line(0xdc)
	.dwattr $C$DW$50, DW_AT_decl_column(0x0e)

	.global	gWinogradQuant
	.sect	".const:.string:gWinogradQuant"
	.clink
	.align	1
	.elfsym	gWinogradQuant,SYM_SIZE(64)
gWinogradQuant:
	.bits	128,8			; gWinogradQuant[0] @ 0
	.bits	178,8			; gWinogradQuant[1] @ 8
	.bits	178,8			; gWinogradQuant[2] @ 16
	.bits	167,8			; gWinogradQuant[3] @ 24
	.bits	246,8			; gWinogradQuant[4] @ 32
	.bits	167,8			; gWinogradQuant[5] @ 40
	.bits	151,8			; gWinogradQuant[6] @ 48
	.bits	232,8			; gWinogradQuant[7] @ 56
	.bits	232,8			; gWinogradQuant[8] @ 64
	.bits	151,8			; gWinogradQuant[9] @ 72
	.bits	128,8			; gWinogradQuant[10] @ 80
	.bits	209,8			; gWinogradQuant[11] @ 88
	.bits	219,8			; gWinogradQuant[12] @ 96
	.bits	209,8			; gWinogradQuant[13] @ 104
	.bits	128,8			; gWinogradQuant[14] @ 112
	.bits	101,8			; gWinogradQuant[15] @ 120
	.bits	178,8			; gWinogradQuant[16] @ 128
	.bits	197,8			; gWinogradQuant[17] @ 136
	.bits	197,8			; gWinogradQuant[18] @ 144
	.bits	178,8			; gWinogradQuant[19] @ 152
	.bits	101,8			; gWinogradQuant[20] @ 160
	.bits	69,8			; gWinogradQuant[21] @ 168
	.bits	139,8			; gWinogradQuant[22] @ 176
	.bits	167,8			; gWinogradQuant[23] @ 184
	.bits	177,8			; gWinogradQuant[24] @ 192
	.bits	167,8			; gWinogradQuant[25] @ 200
	.bits	139,8			; gWinogradQuant[26] @ 208
	.bits	69,8			; gWinogradQuant[27] @ 216
	.bits	35,8			; gWinogradQuant[28] @ 224
	.bits	96,8			; gWinogradQuant[29] @ 232
	.bits	131,8			; gWinogradQuant[30] @ 240
	.bits	151,8			; gWinogradQuant[31] @ 248
	.bits	151,8			; gWinogradQuant[32] @ 256
	.bits	131,8			; gWinogradQuant[33] @ 264
	.bits	96,8			; gWinogradQuant[34] @ 272
	.bits	35,8			; gWinogradQuant[35] @ 280
	.bits	49,8			; gWinogradQuant[36] @ 288
	.bits	91,8			; gWinogradQuant[37] @ 296
	.bits	118,8			; gWinogradQuant[38] @ 304
	.bits	128,8			; gWinogradQuant[39] @ 312
	.bits	118,8			; gWinogradQuant[40] @ 320
	.bits	91,8			; gWinogradQuant[41] @ 328
	.bits	49,8			; gWinogradQuant[42] @ 336
	.bits	46,8			; gWinogradQuant[43] @ 344
	.bits	81,8			; gWinogradQuant[44] @ 352
	.bits	101,8			; gWinogradQuant[45] @ 360
	.bits	101,8			; gWinogradQuant[46] @ 368
	.bits	81,8			; gWinogradQuant[47] @ 376
	.bits	46,8			; gWinogradQuant[48] @ 384
	.bits	42,8			; gWinogradQuant[49] @ 392
	.bits	69,8			; gWinogradQuant[50] @ 400
	.bits	79,8			; gWinogradQuant[51] @ 408
	.bits	69,8			; gWinogradQuant[52] @ 416
	.bits	42,8			; gWinogradQuant[53] @ 424
	.bits	35,8			; gWinogradQuant[54] @ 432
	.bits	54,8			; gWinogradQuant[55] @ 440
	.bits	54,8			; gWinogradQuant[56] @ 448
	.bits	35,8			; gWinogradQuant[57] @ 456
	.bits	28,8			; gWinogradQuant[58] @ 464
	.bits	37,8			; gWinogradQuant[59] @ 472
	.bits	28,8			; gWinogradQuant[60] @ 480
	.bits	19,8			; gWinogradQuant[61] @ 488
	.bits	19,8			; gWinogradQuant[62] @ 496
	.bits	10,8			; gWinogradQuant[63] @ 504

$C$DW$51	.dwtag  DW_TAG_variable
	.dwattr $C$DW$51, DW_AT_name("gWinogradQuant")
	.dwattr $C$DW$51, DW_AT_TI_symbol_name("gWinogradQuant")
	.dwattr $C$DW$51, DW_AT_location[DW_OP_addr gWinogradQuant]
	.dwattr $C$DW$51, DW_AT_type(*$C$DW$T$81)
	.dwattr $C$DW$51, DW_AT_external
	.dwattr $C$DW$51, DW_AT_decl_file("../picojpeg.c")
	.dwattr $C$DW$51, DW_AT_decl_line(0x4c0)
	.dwattr $C$DW$51, DW_AT_decl_column(0x0d)

;	C:\ti\ccsv7\tools\compiler\ti-cgt-arm_16.9.6.LTS\bin\armacpia.exe -@C:\\Users\\brian\\AppData\\Local\\Temp\\{E7C94F47-12FE-4921-B837-B8785AA8111E} 
	.sect	".text"
	.clink
	.thumbfunc replicateSignBit16
	.thumb

$C$DW$52	.dwtag  DW_TAG_subprogram
	.dwattr $C$DW$52, DW_AT_name("replicateSignBit16")
	.dwattr $C$DW$52, DW_AT_low_pc(replicateSignBit16)
	.dwattr $C$DW$52, DW_AT_high_pc(0x00)
	.dwattr $C$DW$52, DW_AT_TI_symbol_name("replicateSignBit16")
	.dwattr $C$DW$52, DW_AT_type(*$C$DW$T$48)
	.dwattr $C$DW$52, DW_AT_TI_begin_file("../picojpeg.c")
	.dwattr $C$DW$52, DW_AT_TI_begin_line(0x17)
	.dwattr $C$DW$52, DW_AT_TI_begin_column(0x0e)
	.dwattr $C$DW$52, DW_AT_decl_file("../picojpeg.c")
	.dwattr $C$DW$52, DW_AT_decl_line(0x17)
	.dwattr $C$DW$52, DW_AT_decl_column(0x0e)
	.dwattr $C$DW$52, DW_AT_TI_max_frame_size(0x08)
	.dwpsn	file "../picojpeg.c",line 24,column 1,is_stmt,address replicateSignBit16,isa 1

	.dwfde $C$DW$CIE, replicateSignBit16
$C$DW$53	.dwtag  DW_TAG_formal_parameter
	.dwattr $C$DW$53, DW_AT_name("n")
	.dwattr $C$DW$53, DW_AT_TI_symbol_name("n")
	.dwattr $C$DW$53, DW_AT_type(*$C$DW$T$54)
	.dwattr $C$DW$53, DW_AT_location[DW_OP_reg0]

;----------------------------------------------------------------------
;  23 | static int16 replicateSignBit16(int8 n)                                
;----------------------------------------------------------------------

;*****************************************************************************
;* FUNCTION NAME: replicateSignBit16                                         *
;*                                                                           *
;*   Regs Modified     : A1,A2,SP,SR                                         *
;*   Regs Used         : A1,A2,SP,LR,SR                                      *
;*   Local Frame Size  : 0 Args + 4 Auto + 0 Save = 4 byte                   *
;*****************************************************************************
replicateSignBit16:
;* --------------------------------------------------------------------------*
	.dwcfi	cfa_offset, 0
        SUB       SP, SP, #8            ; [DPU_3_PIPE] 
	.dwcfi	cfa_offset, 8
$C$DW$54	.dwtag  DW_TAG_variable
	.dwattr $C$DW$54, DW_AT_name("n")
	.dwattr $C$DW$54, DW_AT_TI_symbol_name("n")
	.dwattr $C$DW$54, DW_AT_type(*$C$DW$T$54)
	.dwattr $C$DW$54, DW_AT_location[DW_OP_breg13 0]

        STRB      A1, [SP, #0]          ; [DPU_3_PIPE] |24| 
	.dwpsn	file "../picojpeg.c",line 25,column 4,is_stmt,isa 1
;----------------------------------------------------------------------
;  25 | switch (n)                                                             
;----------------------------------------------------------------------
        B         ||$C$L18||            ; [DPU_3_PIPE] |25| 
        ; BRANCH OCCURS {||$C$L18||}     ; [] |25| 
;* --------------------------------------------------------------------------*
||$C$L1||:    
	.dwpsn	file "../picojpeg.c",line 27,column 16,is_stmt,isa 1
;----------------------------------------------------------------------
;  27 | case 0:  return 0x0000;                                                
;----------------------------------------------------------------------
        MOVS      A1, #0                ; [DPU_3_PIPE] |27| 
        B         ||$C$L19||            ; [DPU_3_PIPE] |27| 
        ; BRANCH OCCURS {||$C$L19||}     ; [] |27| 
;* --------------------------------------------------------------------------*
||$C$L2||:    
	.dwpsn	file "../picojpeg.c",line 28,column 16,is_stmt,isa 1
;----------------------------------------------------------------------
;  28 | case 1:  return 0x8000;                                                
;----------------------------------------------------------------------
        LDR       A1, $C$CON1           ; [DPU_3_PIPE] |28| 
        B         ||$C$L19||            ; [DPU_3_PIPE] |28| 
        ; BRANCH OCCURS {||$C$L19||}     ; [] |28| 
;* --------------------------------------------------------------------------*
||$C$L3||:    
	.dwpsn	file "../picojpeg.c",line 29,column 16,is_stmt,isa 1
;----------------------------------------------------------------------
;  29 | case 2:  return 0xC000;                                                
;----------------------------------------------------------------------
        LDR       A1, $C$CON2           ; [DPU_3_PIPE] |29| 
        B         ||$C$L19||            ; [DPU_3_PIPE] |29| 
        ; BRANCH OCCURS {||$C$L19||}     ; [] |29| 
;* --------------------------------------------------------------------------*
||$C$L4||:    
	.dwpsn	file "../picojpeg.c",line 30,column 16,is_stmt,isa 1
;----------------------------------------------------------------------
;  30 | case 3:  return 0xE000;                                                
;----------------------------------------------------------------------
        LDR       A1, $C$CON3           ; [DPU_3_PIPE] |30| 
        B         ||$C$L19||            ; [DPU_3_PIPE] |30| 
        ; BRANCH OCCURS {||$C$L19||}     ; [] |30| 
;* --------------------------------------------------------------------------*
||$C$L5||:    
	.dwpsn	file "../picojpeg.c",line 31,column 16,is_stmt,isa 1
;----------------------------------------------------------------------
;  31 | case 4:  return 0xF000;                                                
;----------------------------------------------------------------------
        LDR       A1, $C$CON4           ; [DPU_3_PIPE] |31| 
        B         ||$C$L19||            ; [DPU_3_PIPE] |31| 
        ; BRANCH OCCURS {||$C$L19||}     ; [] |31| 
;* --------------------------------------------------------------------------*
||$C$L6||:    
	.dwpsn	file "../picojpeg.c",line 32,column 16,is_stmt,isa 1
;----------------------------------------------------------------------
;  32 | case 5:  return 0xF800;                                                
;----------------------------------------------------------------------
        LDR       A1, $C$CON5           ; [DPU_3_PIPE] |32| 
        B         ||$C$L19||            ; [DPU_3_PIPE] |32| 
        ; BRANCH OCCURS {||$C$L19||}     ; [] |32| 
;* --------------------------------------------------------------------------*
||$C$L7||:    
	.dwpsn	file "../picojpeg.c",line 33,column 16,is_stmt,isa 1
;----------------------------------------------------------------------
;  33 | case 6:  return 0xFC00;                                                
;----------------------------------------------------------------------
        LDR       A1, $C$CON6           ; [DPU_3_PIPE] |33| 
        B         ||$C$L19||            ; [DPU_3_PIPE] |33| 
        ; BRANCH OCCURS {||$C$L19||}     ; [] |33| 
;* --------------------------------------------------------------------------*
||$C$L8||:    
	.dwpsn	file "../picojpeg.c",line 34,column 16,is_stmt,isa 1
;----------------------------------------------------------------------
;  34 | case 7:  return 0xFE00;                                                
;----------------------------------------------------------------------
        LDR       A1, $C$CON7           ; [DPU_3_PIPE] |34| 
        B         ||$C$L19||            ; [DPU_3_PIPE] |34| 
        ; BRANCH OCCURS {||$C$L19||}     ; [] |34| 
;* --------------------------------------------------------------------------*
||$C$L9||:    
	.dwpsn	file "../picojpeg.c",line 35,column 16,is_stmt,isa 1
;----------------------------------------------------------------------
;  35 | case 8:  return 0xFF00;                                                
;----------------------------------------------------------------------
        MVN       A1, #255              ; [DPU_3_PIPE] |35| 
        B         ||$C$L19||            ; [DPU_3_PIPE] |35| 
        ; BRANCH OCCURS {||$C$L19||}     ; [] |35| 
;* --------------------------------------------------------------------------*
||$C$L10||:    
	.dwpsn	file "../picojpeg.c",line 36,column 16,is_stmt,isa 1
;----------------------------------------------------------------------
;  36 | case 9:  return 0xFF80;                                                
;----------------------------------------------------------------------
        MVN       A1, #127              ; [DPU_3_PIPE] |36| 
        B         ||$C$L19||            ; [DPU_3_PIPE] |36| 
        ; BRANCH OCCURS {||$C$L19||}     ; [] |36| 
;* --------------------------------------------------------------------------*
||$C$L11||:    
	.dwpsn	file "../picojpeg.c",line 37,column 16,is_stmt,isa 1
;----------------------------------------------------------------------
;  37 | case 10: return 0xFFC0;                                                
;----------------------------------------------------------------------
        MVN       A1, #63               ; [DPU_3_PIPE] |37| 
        B         ||$C$L19||            ; [DPU_3_PIPE] |37| 
        ; BRANCH OCCURS {||$C$L19||}     ; [] |37| 
;* --------------------------------------------------------------------------*
||$C$L12||:    
	.dwpsn	file "../picojpeg.c",line 38,column 16,is_stmt,isa 1
;----------------------------------------------------------------------
;  38 | case 11: return 0xFFE0;                                                
;----------------------------------------------------------------------
        MVN       A1, #31               ; [DPU_3_PIPE] |38| 
        B         ||$C$L19||            ; [DPU_3_PIPE] |38| 
        ; BRANCH OCCURS {||$C$L19||}     ; [] |38| 
;* --------------------------------------------------------------------------*
||$C$L13||:    
	.dwpsn	file "../picojpeg.c",line 39,column 16,is_stmt,isa 1
;----------------------------------------------------------------------
;  39 | case 12: return 0xFFF0;                                                
;----------------------------------------------------------------------
        MVN       A1, #15               ; [DPU_3_PIPE] |39| 
        B         ||$C$L19||            ; [DPU_3_PIPE] |39| 
        ; BRANCH OCCURS {||$C$L19||}     ; [] |39| 
;* --------------------------------------------------------------------------*
||$C$L14||:    
	.dwpsn	file "../picojpeg.c",line 40,column 16,is_stmt,isa 1
;----------------------------------------------------------------------
;  40 | case 13: return 0xFFF8;                                                
;----------------------------------------------------------------------
        MVN       A1, #7                ; [DPU_3_PIPE] |40| 
        B         ||$C$L19||            ; [DPU_3_PIPE] |40| 
        ; BRANCH OCCURS {||$C$L19||}     ; [] |40| 
;* --------------------------------------------------------------------------*
||$C$L15||:    
	.dwpsn	file "../picojpeg.c",line 41,column 16,is_stmt,isa 1
;----------------------------------------------------------------------
;  41 | case 14: return 0xFFFC;                                                
;----------------------------------------------------------------------
        MVN       A1, #3                ; [DPU_3_PIPE] |41| 
        B         ||$C$L19||            ; [DPU_3_PIPE] |41| 
        ; BRANCH OCCURS {||$C$L19||}     ; [] |41| 
;* --------------------------------------------------------------------------*
||$C$L16||:    
	.dwpsn	file "../picojpeg.c",line 42,column 16,is_stmt,isa 1
;----------------------------------------------------------------------
;  42 | case 15: return 0xFFFE;                                                
;----------------------------------------------------------------------
        MVN       A1, #1                ; [DPU_3_PIPE] |42| 
        B         ||$C$L19||            ; [DPU_3_PIPE] |42| 
        ; BRANCH OCCURS {||$C$L19||}     ; [] |42| 
;* --------------------------------------------------------------------------*
||$C$L17||:    
	.dwpsn	file "../picojpeg.c",line 43,column 16,is_stmt,isa 1
;----------------------------------------------------------------------
;  43 | default: return 0xFFFF;                                                
;----------------------------------------------------------------------
        MOV       A1, #-1               ; [DPU_3_PIPE] |43| 
        B         ||$C$L19||            ; [DPU_3_PIPE] |43| 
        ; BRANCH OCCURS {||$C$L19||}     ; [] |43| 
;* --------------------------------------------------------------------------*
;* --------------------------------------------------------------------------*
||$C$L18||:    
	.dwpsn	file "../picojpeg.c",line 25,column 4,is_stmt,isa 1
        LDRSB     A1, [SP, #0]          ; [DPU_3_PIPE] |25| 
        CMP       A1, #15               ; [DPU_3_PIPE] |25| 
        BHI       ||$C$L17||            ; [DPU_3_PIPE] |25| 
        ; BRANCHCC OCCURS {||$C$L17||}   ; [] |25| 
;* --------------------------------------------------------------------------*
        ADR       A2, ||$C$SW1||        ; [DPU_3_PIPE] |25| 
        LDR       A1, [A2, +A1, LSL #2] ; [DPU_3_PIPE] |25| 
        MOV       PC, A1                ; [DPU_3_PIPE] |25| 
        ; BRANCH OCCURS                  ; [] |25| 
||$C$SW1||:	.word	||$C$L1||	; 0
	.word	||$C$L2||	; 1
	.word	||$C$L3||	; 2
	.word	||$C$L4||	; 3
	.word	||$C$L5||	; 4
	.word	||$C$L6||	; 5
	.word	||$C$L7||	; 6
	.word	||$C$L8||	; 7
	.word	||$C$L9||	; 8
	.word	||$C$L10||	; 9
	.word	||$C$L11||	; 10
	.word	||$C$L12||	; 11
	.word	||$C$L13||	; 12
	.word	||$C$L14||	; 13
	.word	||$C$L15||	; 14
	.word	||$C$L16||	; 15
;* --------------------------------------------------------------------------*
||$C$L19||:    
	.dwpsn	file "../picojpeg.c",line 45,column 1,is_stmt,isa 1
        ADD       SP, SP, #8            ; [DPU_3_PIPE] 
	.dwcfi	cfa_offset, 0
$C$DW$55	.dwtag  DW_TAG_TI_branch
	.dwattr $C$DW$55, DW_AT_low_pc(0x00)
	.dwattr $C$DW$55, DW_AT_TI_return

        BX        LR                    ; [DPU_3_PIPE] 
        ; BRANCH OCCURS                  ; [] 
	.dwattr $C$DW$52, DW_AT_TI_end_file("../picojpeg.c")
	.dwattr $C$DW$52, DW_AT_TI_end_line(0x2d)
	.dwattr $C$DW$52, DW_AT_TI_end_column(0x01)
	.dwendentry
	.dwendtag $C$DW$52

	.sect	".text"
	.clink
	.thumbfunc arithmeticRightShiftN16
	.thumb

$C$DW$56	.dwtag  DW_TAG_subprogram
	.dwattr $C$DW$56, DW_AT_name("arithmeticRightShiftN16")
	.dwattr $C$DW$56, DW_AT_low_pc(arithmeticRightShiftN16)
	.dwattr $C$DW$56, DW_AT_high_pc(0x00)
	.dwattr $C$DW$56, DW_AT_TI_symbol_name("arithmeticRightShiftN16")
	.dwattr $C$DW$56, DW_AT_type(*$C$DW$T$48)
	.dwattr $C$DW$56, DW_AT_TI_begin_file("../picojpeg.c")
	.dwattr $C$DW$56, DW_AT_TI_begin_line(0x2e)
	.dwattr $C$DW$56, DW_AT_TI_begin_column(0x1a)
	.dwattr $C$DW$56, DW_AT_decl_file("../picojpeg.c")
	.dwattr $C$DW$56, DW_AT_decl_line(0x2e)
	.dwattr $C$DW$56, DW_AT_decl_column(0x1a)
	.dwattr $C$DW$56, DW_AT_TI_max_frame_size(0x10)
	.dwpsn	file "../picojpeg.c",line 47,column 1,is_stmt,address arithmeticRightShiftN16,isa 1

	.dwfde $C$DW$CIE, arithmeticRightShiftN16
$C$DW$57	.dwtag  DW_TAG_formal_parameter
	.dwattr $C$DW$57, DW_AT_name("x")
	.dwattr $C$DW$57, DW_AT_TI_symbol_name("x")
	.dwattr $C$DW$57, DW_AT_type(*$C$DW$T$48)
	.dwattr $C$DW$57, DW_AT_location[DW_OP_reg0]

$C$DW$58	.dwtag  DW_TAG_formal_parameter
	.dwattr $C$DW$58, DW_AT_name("n")
	.dwattr $C$DW$58, DW_AT_TI_symbol_name("n")
	.dwattr $C$DW$58, DW_AT_type(*$C$DW$T$54)
	.dwattr $C$DW$58, DW_AT_location[DW_OP_reg1]

;----------------------------------------------------------------------
;  46 | static PJPG_INLINE int16 arithmeticRightShiftN16(int16 x, int8 n)      
;----------------------------------------------------------------------

;*****************************************************************************
;* FUNCTION NAME: arithmeticRightShiftN16                                    *
;*                                                                           *
;*   Regs Modified     : A1,A2,A3,A4,SP,LR,SR,FPEXC,FPSCR                    *
;*   Regs Used         : A1,A2,A3,A4,SP,LR,SR,FPEXC,FPSCR                    *
;*   Local Frame Size  : 0 Args + 8 Auto + 4 Save = 12 byte                  *
;*****************************************************************************
arithmeticRightShiftN16:
;* --------------------------------------------------------------------------*
	.dwcfi	cfa_offset, 0
        PUSH      {A2, A3, A4, LR}      ; [DPU_3_PIPE] 
	.dwcfi	cfa_offset, 16
	.dwcfi	save_reg_to_mem, 14, -4
	.dwcfi	save_reg_to_mem, 3, -8
	.dwcfi	save_reg_to_mem, 2, -12
	.dwcfi	save_reg_to_mem, 1, -16
$C$DW$59	.dwtag  DW_TAG_variable
	.dwattr $C$DW$59, DW_AT_name("x")
	.dwattr $C$DW$59, DW_AT_TI_symbol_name("x")
	.dwattr $C$DW$59, DW_AT_type(*$C$DW$T$48)
	.dwattr $C$DW$59, DW_AT_location[DW_OP_breg13 0]

$C$DW$60	.dwtag  DW_TAG_variable
	.dwattr $C$DW$60, DW_AT_name("r")
	.dwattr $C$DW$60, DW_AT_TI_symbol_name("r")
	.dwattr $C$DW$60, DW_AT_type(*$C$DW$T$48)
	.dwattr $C$DW$60, DW_AT_location[DW_OP_breg13 2]

$C$DW$61	.dwtag  DW_TAG_variable
	.dwattr $C$DW$61, DW_AT_name("n")
	.dwattr $C$DW$61, DW_AT_TI_symbol_name("n")
	.dwattr $C$DW$61, DW_AT_type(*$C$DW$T$54)
	.dwattr $C$DW$61, DW_AT_location[DW_OP_breg13 4]

        STRB      A2, [SP, #4]          ; [DPU_3_PIPE] |47| 
        STRH      A1, [SP, #0]          ; [DPU_3_PIPE] |47| 
	.dwpsn	file "../picojpeg.c",line 48,column 12,is_stmt,isa 1
;----------------------------------------------------------------------
;  48 | int16 r = (uint16)x >> (uint8)n;                                       
;----------------------------------------------------------------------
        LDRH      A1, [SP, #0]          ; [DPU_3_PIPE] |48| 
        LDRB      A2, [SP, #4]          ; [DPU_3_PIPE] |48| 
        ASRS      A1, A1, A2            ; [DPU_3_PIPE] |48| 
        STRH      A1, [SP, #2]          ; [DPU_3_PIPE] |48| 
	.dwpsn	file "../picojpeg.c",line 49,column 4,is_stmt,isa 1
;----------------------------------------------------------------------
;  49 | if (x < 0)                                                             
;----------------------------------------------------------------------
        LDRSH     A1, [SP, #0]          ; [DPU_3_PIPE] |49| 
        CMP       A1, #0                ; [DPU_3_PIPE] |49| 
        BPL       ||$C$L20||            ; [DPU_3_PIPE] |49| 
        ; BRANCHCC OCCURS {||$C$L20||}   ; [] |49| 
;* --------------------------------------------------------------------------*
	.dwpsn	file "../picojpeg.c",line 50,column 7,is_stmt,isa 1
;----------------------------------------------------------------------
;  50 | r |= replicateSignBit16(n);                                            
;----------------------------------------------------------------------
        LDRSB     A1, [SP, #4]          ; [DPU_3_PIPE] |50| 
$C$DW$62	.dwtag  DW_TAG_TI_branch
	.dwattr $C$DW$62, DW_AT_low_pc(0x00)
	.dwattr $C$DW$62, DW_AT_name("replicateSignBit16")
	.dwattr $C$DW$62, DW_AT_TI_call

        BL        replicateSignBit16    ; [DPU_3_PIPE] |50| 
        ; CALL OCCURS {replicateSignBit16 }  ; [] |50| 
        LDRSH     A2, [SP, #2]          ; [DPU_3_PIPE] |50| 
        ORRS      A1, A1, A2            ; [DPU_3_PIPE] |50| 
        STRH      A1, [SP, #2]          ; [DPU_3_PIPE] |50| 
;* --------------------------------------------------------------------------*
||$C$L20||:    
	.dwpsn	file "../picojpeg.c",line 51,column 4,is_stmt,isa 1
;----------------------------------------------------------------------
;  51 | return r;                                                              
;----------------------------------------------------------------------
        LDRSH     A1, [SP, #2]          ; [DPU_3_PIPE] |51| 
	.dwpsn	file "../picojpeg.c",line 52,column 1,is_stmt,isa 1
$C$DW$63	.dwtag  DW_TAG_TI_branch
	.dwattr $C$DW$63, DW_AT_low_pc(0x00)
	.dwattr $C$DW$63, DW_AT_TI_return

        POP       {A2, A3, A4, PC}      ; [DPU_3_PIPE] 
	.dwcfi	cfa_offset, 0
	.dwcfi	restore_reg, 3
	.dwcfi	restore_reg, 2
	.dwcfi	restore_reg, 1
        ; BRANCH OCCURS                  ; [] 
	.dwattr $C$DW$56, DW_AT_TI_end_file("../picojpeg.c")
	.dwattr $C$DW$56, DW_AT_TI_end_line(0x34)
	.dwattr $C$DW$56, DW_AT_TI_end_column(0x01)
	.dwendentry
	.dwendtag $C$DW$56

	.sect	".text"
	.clink
	.thumbfunc arithmeticRightShift8L
	.thumb

$C$DW$64	.dwtag  DW_TAG_subprogram
	.dwattr $C$DW$64, DW_AT_name("arithmeticRightShift8L")
	.dwattr $C$DW$64, DW_AT_low_pc(arithmeticRightShift8L)
	.dwattr $C$DW$64, DW_AT_high_pc(0x00)
	.dwattr $C$DW$64, DW_AT_TI_symbol_name("arithmeticRightShift8L")
	.dwattr $C$DW$64, DW_AT_type(*$C$DW$T$12)
	.dwattr $C$DW$64, DW_AT_TI_begin_file("../picojpeg.c")
	.dwattr $C$DW$64, DW_AT_TI_begin_line(0x35)
	.dwattr $C$DW$64, DW_AT_TI_begin_column(0x19)
	.dwattr $C$DW$64, DW_AT_decl_file("../picojpeg.c")
	.dwattr $C$DW$64, DW_AT_decl_line(0x35)
	.dwattr $C$DW$64, DW_AT_decl_column(0x19)
	.dwattr $C$DW$64, DW_AT_TI_max_frame_size(0x08)
	.dwpsn	file "../picojpeg.c",line 54,column 1,is_stmt,address arithmeticRightShift8L,isa 1

	.dwfde $C$DW$CIE, arithmeticRightShift8L
$C$DW$65	.dwtag  DW_TAG_formal_parameter
	.dwattr $C$DW$65, DW_AT_name("x")
	.dwattr $C$DW$65, DW_AT_TI_symbol_name("x")
	.dwattr $C$DW$65, DW_AT_type(*$C$DW$T$12)
	.dwattr $C$DW$65, DW_AT_location[DW_OP_reg0]

;----------------------------------------------------------------------
;  53 | static PJPG_INLINE long arithmeticRightShift8L(long x)                 
;----------------------------------------------------------------------

;*****************************************************************************
;* FUNCTION NAME: arithmeticRightShift8L                                     *
;*                                                                           *
;*   Regs Modified     : A1,SP,SR                                            *
;*   Regs Used         : A1,SP,LR,SR                                         *
;*   Local Frame Size  : 0 Args + 8 Auto + 0 Save = 8 byte                   *
;*****************************************************************************
arithmeticRightShift8L:
;* --------------------------------------------------------------------------*
	.dwcfi	cfa_offset, 0
        SUB       SP, SP, #8            ; [DPU_3_PIPE] 
	.dwcfi	cfa_offset, 8
$C$DW$66	.dwtag  DW_TAG_variable
	.dwattr $C$DW$66, DW_AT_name("x")
	.dwattr $C$DW$66, DW_AT_TI_symbol_name("x")
	.dwattr $C$DW$66, DW_AT_type(*$C$DW$T$12)
	.dwattr $C$DW$66, DW_AT_location[DW_OP_breg13 0]

$C$DW$67	.dwtag  DW_TAG_variable
	.dwattr $C$DW$67, DW_AT_name("r")
	.dwattr $C$DW$67, DW_AT_TI_symbol_name("r")
	.dwattr $C$DW$67, DW_AT_type(*$C$DW$T$12)
	.dwattr $C$DW$67, DW_AT_location[DW_OP_breg13 4]

        STR       A1, [SP, #0]          ; [DPU_3_PIPE] |54| 
	.dwpsn	file "../picojpeg.c",line 55,column 11,is_stmt,isa 1
;----------------------------------------------------------------------
;  55 | long r = (unsigned long)x >> 8U;                                       
;----------------------------------------------------------------------
        LDR       A1, [SP, #0]          ; [DPU_3_PIPE] |55| 
        LSRS      A1, A1, #8            ; [DPU_3_PIPE] |55| 
        STR       A1, [SP, #4]          ; [DPU_3_PIPE] |55| 
	.dwpsn	file "../picojpeg.c",line 56,column 4,is_stmt,isa 1
;----------------------------------------------------------------------
;  56 | if (x < 0)                                                             
;----------------------------------------------------------------------
        LDR       A1, [SP, #0]          ; [DPU_3_PIPE] |56| 
        CMP       A1, #0                ; [DPU_3_PIPE] |56| 
        BPL       ||$C$L21||            ; [DPU_3_PIPE] |56| 
        ; BRANCHCC OCCURS {||$C$L21||}   ; [] |56| 
;* --------------------------------------------------------------------------*
	.dwpsn	file "../picojpeg.c",line 57,column 7,is_stmt,isa 1
;----------------------------------------------------------------------
;  57 | r |= ~(~(unsigned long)0U >> 8U);                                      
;----------------------------------------------------------------------
        LDR       A1, [SP, #4]          ; [DPU_3_PIPE] |57| 
        ORR       A1, A1, #-16777216    ; [DPU_3_PIPE] |57| 
        STR       A1, [SP, #4]          ; [DPU_3_PIPE] |57| 
;* --------------------------------------------------------------------------*
||$C$L21||:    
	.dwpsn	file "../picojpeg.c",line 58,column 4,is_stmt,isa 1
;----------------------------------------------------------------------
;  58 | return r;                                                              
;----------------------------------------------------------------------
        LDR       A1, [SP, #4]          ; [DPU_3_PIPE] |58| 
	.dwpsn	file "../picojpeg.c",line 59,column 1,is_stmt,isa 1
        ADD       SP, SP, #8            ; [DPU_3_PIPE] 
	.dwcfi	cfa_offset, 0
$C$DW$68	.dwtag  DW_TAG_TI_branch
	.dwattr $C$DW$68, DW_AT_low_pc(0x00)
	.dwattr $C$DW$68, DW_AT_TI_return

        BX        LR                    ; [DPU_3_PIPE] 
        ; BRANCH OCCURS                  ; [] 
	.dwattr $C$DW$64, DW_AT_TI_end_file("../picojpeg.c")
	.dwattr $C$DW$64, DW_AT_TI_end_line(0x3b)
	.dwattr $C$DW$64, DW_AT_TI_end_column(0x01)
	.dwendentry
	.dwendtag $C$DW$64

	.sect	".text"
	.clink
	.thumbfunc fillInBuf
	.thumb

$C$DW$69	.dwtag  DW_TAG_subprogram
	.dwattr $C$DW$69, DW_AT_name("fillInBuf")
	.dwattr $C$DW$69, DW_AT_low_pc(fillInBuf)
	.dwattr $C$DW$69, DW_AT_high_pc(0x00)
	.dwattr $C$DW$69, DW_AT_TI_symbol_name("fillInBuf")
	.dwattr $C$DW$69, DW_AT_TI_begin_file("../picojpeg.c")
	.dwattr $C$DW$69, DW_AT_TI_begin_line(0xde)
	.dwattr $C$DW$69, DW_AT_TI_begin_column(0x0d)
	.dwattr $C$DW$69, DW_AT_decl_file("../picojpeg.c")
	.dwattr $C$DW$69, DW_AT_decl_line(0xde)
	.dwattr $C$DW$69, DW_AT_decl_column(0x0d)
	.dwattr $C$DW$69, DW_AT_TI_max_frame_size(0x10)
	.dwpsn	file "../picojpeg.c",line 223,column 1,is_stmt,address fillInBuf,isa 1

	.dwfde $C$DW$CIE, fillInBuf
;----------------------------------------------------------------------
; 222 | static void fillInBuf(void)                                            
; 224 | unsigned char status;                                                  
; 226 | // Reserve a few bytes at the beginning of the buffer for putting back
;     | ("stuffing") chars.                                                    
;----------------------------------------------------------------------

;*****************************************************************************
;* FUNCTION NAME: fillInBuf                                                  *
;*                                                                           *
;*   Regs Modified     : A1,A2,A3,A4,V1,V9,SP,LR,SR,D0,D0_hi,D1,D1_hi,D2,    *
;*                           D2_hi,D3,D3_hi,D4,D4_hi,D5,D5_hi,D6,D6_hi,D7,   *
;*                           D7_hi,FPEXC,FPSCR                               *
;*   Regs Used         : A1,A2,A3,A4,V1,V9,SP,LR,SR,D0,D0_hi,D1,D1_hi,D2,    *
;*                           D2_hi,D3,D3_hi,D4,D4_hi,D5,D5_hi,D6,D6_hi,D7,   *
;*                           D7_hi,FPEXC,FPSCR                               *
;*   Local Frame Size  : 0 Args + 4 Auto + 8 Save = 12 byte                  *
;*****************************************************************************
fillInBuf:
;* --------------------------------------------------------------------------*
	.dwcfi	cfa_offset, 0
        PUSH      {A3, A4, V1, LR}      ; [DPU_3_PIPE] 
	.dwcfi	cfa_offset, 16
	.dwcfi	save_reg_to_mem, 14, -4
	.dwcfi	save_reg_to_mem, 4, -8
	.dwcfi	save_reg_to_mem, 3, -12
	.dwcfi	save_reg_to_mem, 2, -16
$C$DW$70	.dwtag  DW_TAG_variable
	.dwattr $C$DW$70, DW_AT_name("status")
	.dwattr $C$DW$70, DW_AT_TI_symbol_name("status")
	.dwattr $C$DW$70, DW_AT_type(*$C$DW$T$6)
	.dwattr $C$DW$70, DW_AT_location[DW_OP_breg13 0]

	.dwpsn	file "../picojpeg.c",line 227,column 4,is_stmt,isa 1
;----------------------------------------------------------------------
; 227 | gInBufOfs = 4;                                                         
;----------------------------------------------------------------------
        LDR       A2, $C$CON8           ; [DPU_3_PIPE] |227| 
        MOVS      A1, #4                ; [DPU_3_PIPE] |227| 
        STRB      A1, [A2, #0]          ; [DPU_3_PIPE] |227| 
	.dwpsn	file "../picojpeg.c",line 228,column 4,is_stmt,isa 1
;----------------------------------------------------------------------
; 228 | gInBufLeft = 0;                                                        
;----------------------------------------------------------------------
        LDR       A2, $C$CON9           ; [DPU_3_PIPE] |228| 
        MOVS      A1, #0                ; [DPU_3_PIPE] |228| 
        STRB      A1, [A2, #0]          ; [DPU_3_PIPE] |228| 
	.dwpsn	file "../picojpeg.c",line 230,column 4,is_stmt,isa 1
;----------------------------------------------------------------------
; 230 | status = (*g_pNeedBytesCallback)(gInBuf + gInBufOfs, PJPG_MAX_IN_BUF_SI
;     | ZE - gInBufOfs, &gInBufLeft, g_pCallback_data);                        
;----------------------------------------------------------------------
        LDR       A3, $C$CON12          ; [DPU_3_PIPE] |230| 
        LDR       A1, $C$CON8           ; [DPU_3_PIPE] |230| 
        LDR       A4, $C$CON11          ; [DPU_3_PIPE] |230| 
        LDR       A2, $C$CON8           ; [DPU_3_PIPE] |230| 
        LDR       V1, $C$CON10          ; [DPU_3_PIPE] |230| 
        LDR       A3, [A3, #0]          ; [DPU_3_PIPE] |230| 
        LDRB      A1, [A1, #0]          ; [DPU_3_PIPE] |230| 
        LDR       A4, [A4, #0]          ; [DPU_3_PIPE] |230| 
        LDRB      A2, [A2, #0]          ; [DPU_3_PIPE] |230| 
        ADDS      A1, A1, V1            ; [DPU_3_PIPE] |230| 
        MOV       V1, A3                ; [DPU_3_PIPE] |230| 
        LDR       A3, $C$CON9           ; [DPU_3_PIPE] |230| 
        RSB       A2, A2, #256          ; [DPU_3_PIPE] |230| 
        UXTB      A2, A2                ; [DPU_3_PIPE] |230| 
$C$DW$71	.dwtag  DW_TAG_TI_branch
	.dwattr $C$DW$71, DW_AT_low_pc(0x00)
	.dwattr $C$DW$71, DW_AT_TI_call
	.dwattr $C$DW$71, DW_AT_TI_indirect

        BLX       V1                    ; [DPU_3_PIPE] |230| 
        ; CALL OCCURS {}                 ; [] |230| 
        STRB      A1, [SP, #0]          ; [DPU_3_PIPE] |230| 
	.dwpsn	file "../picojpeg.c",line 231,column 4,is_stmt,isa 1
;----------------------------------------------------------------------
; 231 | if (status)                                                            
; 233 |    // The user provided need bytes callback has indicated an error, so
;     | record the error and continue trying to decode.                        
; 234 |    // The highest level pjpeg entrypoints will catch the error and retu
;     | rn the non-zero status.                                                
;----------------------------------------------------------------------
        LDRB      A1, [SP, #0]          ; [DPU_3_PIPE] |231| 
        CBZ       A1, ||$C$L22||        ; [] 
        ; BRANCHCC OCCURS {||$C$L22||}   ; [] |231| 
;* --------------------------------------------------------------------------*
	.dwpsn	file "../picojpeg.c",line 235,column 7,is_stmt,isa 1
;----------------------------------------------------------------------
; 235 | gCallbackStatus = status;                                              
;----------------------------------------------------------------------
        LDRB      A1, [SP, #0]          ; [DPU_3_PIPE] |235| 
        LDR       A2, $C$CON13          ; [DPU_3_PIPE] |235| 
        STRB      A1, [A2, #0]          ; [DPU_3_PIPE] |235| 
	.dwpsn	file "../picojpeg.c",line 237,column 1,is_stmt,isa 1
;* --------------------------------------------------------------------------*
||$C$L22||:    
$C$DW$72	.dwtag  DW_TAG_TI_branch
	.dwattr $C$DW$72, DW_AT_low_pc(0x00)
	.dwattr $C$DW$72, DW_AT_TI_return

        POP       {A3, A4, V1, PC}      ; [DPU_3_PIPE] 
	.dwcfi	cfa_offset, 0
	.dwcfi	restore_reg, 4
	.dwcfi	restore_reg, 3
	.dwcfi	restore_reg, 2
        ; BRANCH OCCURS                  ; [] 
	.dwattr $C$DW$69, DW_AT_TI_end_file("../picojpeg.c")
	.dwattr $C$DW$69, DW_AT_TI_end_line(0xed)
	.dwattr $C$DW$69, DW_AT_TI_end_column(0x01)
	.dwendentry
	.dwendtag $C$DW$69

	.sect	".text"
	.clink
	.thumbfunc getChar
	.thumb

$C$DW$73	.dwtag  DW_TAG_subprogram
	.dwattr $C$DW$73, DW_AT_name("getChar")
	.dwattr $C$DW$73, DW_AT_low_pc(getChar)
	.dwattr $C$DW$73, DW_AT_high_pc(0x00)
	.dwattr $C$DW$73, DW_AT_TI_symbol_name("getChar")
	.dwattr $C$DW$73, DW_AT_type(*$C$DW$T$25)
	.dwattr $C$DW$73, DW_AT_TI_begin_file("../picojpeg.c")
	.dwattr $C$DW$73, DW_AT_TI_begin_line(0xef)
	.dwattr $C$DW$73, DW_AT_TI_begin_column(0x1a)
	.dwattr $C$DW$73, DW_AT_decl_file("../picojpeg.c")
	.dwattr $C$DW$73, DW_AT_decl_line(0xef)
	.dwattr $C$DW$73, DW_AT_decl_column(0x1a)
	.dwattr $C$DW$73, DW_AT_TI_max_frame_size(0x08)
	.dwpsn	file "../picojpeg.c",line 240,column 1,is_stmt,address getChar,isa 1

	.dwfde $C$DW$CIE, getChar
;----------------------------------------------------------------------
; 239 | static PJPG_INLINE uint8 getChar(void)                                 
;----------------------------------------------------------------------

;*****************************************************************************
;* FUNCTION NAME: getChar                                                    *
;*                                                                           *
;*   Regs Modified     : A1,A2,A3,A4,V9,SP,LR,SR,D0,D0_hi,D1,D1_hi,D2,D2_hi, *
;*                           D3,D3_hi,D4,D4_hi,D5,D5_hi,D6,D6_hi,D7,D7_hi,   *
;*                           FPEXC,FPSCR                                     *
;*   Regs Used         : A1,A2,A3,A4,V9,SP,LR,SR,D0,D0_hi,D1,D1_hi,D2,D2_hi, *
;*                           D3,D3_hi,D4,D4_hi,D5,D5_hi,D6,D6_hi,D7,D7_hi,   *
;*                           FPEXC,FPSCR                                     *
;*   Local Frame Size  : 0 Args + 0 Auto + 4 Save = 4 byte                   *
;*****************************************************************************
getChar:
;* --------------------------------------------------------------------------*
	.dwcfi	cfa_offset, 0
        PUSH      {A4, LR}              ; [DPU_3_PIPE] 
	.dwcfi	cfa_offset, 8
	.dwcfi	save_reg_to_mem, 14, -4
	.dwcfi	save_reg_to_mem, 3, -8
	.dwpsn	file "../picojpeg.c",line 241,column 4,is_stmt,isa 1
;----------------------------------------------------------------------
; 241 | if (!gInBufLeft)                                                       
;----------------------------------------------------------------------
        LDR       A1, $C$CON9           ; [DPU_3_PIPE] |241| 
        LDRB      A1, [A1, #0]          ; [DPU_3_PIPE] |241| 
        CBNZ      A1, ||$C$L25||        ; [] 
        ; BRANCHCC OCCURS {||$C$L25||}   ; [] |241| 
;* --------------------------------------------------------------------------*
	.dwpsn	file "../picojpeg.c",line 243,column 7,is_stmt,isa 1
;----------------------------------------------------------------------
; 243 | fillInBuf();                                                           
;----------------------------------------------------------------------
$C$DW$74	.dwtag  DW_TAG_TI_branch
	.dwattr $C$DW$74, DW_AT_low_pc(0x00)
	.dwattr $C$DW$74, DW_AT_name("fillInBuf")
	.dwattr $C$DW$74, DW_AT_TI_call

        BL        fillInBuf             ; [DPU_3_PIPE] |243| 
        ; CALL OCCURS {fillInBuf }       ; [] |243| 
	.dwpsn	file "../picojpeg.c",line 244,column 7,is_stmt,isa 1
;----------------------------------------------------------------------
; 244 | if (!gInBufLeft)                                                       
;----------------------------------------------------------------------
        LDR       A1, $C$CON9           ; [DPU_3_PIPE] |244| 
        LDRB      A1, [A1, #0]          ; [DPU_3_PIPE] |244| 
        CBNZ      A1, ||$C$L25||        ; [] 
        ; BRANCHCC OCCURS {||$C$L25||}   ; [] |244| 
;* --------------------------------------------------------------------------*
	.dwpsn	file "../picojpeg.c",line 246,column 10,is_stmt,isa 1
;----------------------------------------------------------------------
; 246 | gTemFlag = ~gTemFlag;                                                  
;----------------------------------------------------------------------
        LDR       A1, $C$CON14          ; [DPU_3_PIPE] |246| 
        LDR       A2, $C$CON14          ; [DPU_3_PIPE] |246| 
        LDRB      A1, [A1, #0]          ; [DPU_3_PIPE] |246| 
        MVNS      A1, A1                ; [DPU_3_PIPE] |246| 
        STRB      A1, [A2, #0]          ; [DPU_3_PIPE] |246| 
	.dwpsn	file "../picojpeg.c",line 247,column 10,is_stmt,isa 1
;----------------------------------------------------------------------
; 247 | return gTemFlag ? 0xFF : 0xD9;                                         
;----------------------------------------------------------------------
        LDR       A1, $C$CON14          ; [DPU_3_PIPE] |247| 
        LDRB      A1, [A1, #0]          ; [DPU_3_PIPE] |247| 
        CBZ       A1, ||$C$L23||        ; [] 
        ; BRANCHCC OCCURS {||$C$L23||}   ; [] |247| 
;* --------------------------------------------------------------------------*
        MOVS      A1, #255              ; [DPU_3_PIPE] |247| 
        B         ||$C$L24||            ; [DPU_3_PIPE] |247| 
        ; BRANCH OCCURS {||$C$L24||}     ; [] |247| 
;* --------------------------------------------------------------------------*
||$C$L23||:    
        MOVS      A1, #217              ; [DPU_3_PIPE] |247| 
;* --------------------------------------------------------------------------*
||$C$L24||:    
        UXTB      A1, A1                ; [DPU_3_PIPE] |247| 
        B         ||$C$L26||            ; [DPU_3_PIPE] |247| 
        ; BRANCH OCCURS {||$C$L26||}     ; [] |247| 
;* --------------------------------------------------------------------------*
||$C$L25||:    
	.dwpsn	file "../picojpeg.c",line 251,column 4,is_stmt,isa 1
;----------------------------------------------------------------------
; 251 | gInBufLeft--;                                                          
;----------------------------------------------------------------------
        LDR       A2, $C$CON9           ; [DPU_3_PIPE] |251| 
        LDRB      A1, [A2, #0]          ; [DPU_3_PIPE] |251| 
        SUBS      A1, A1, #1            ; [DPU_3_PIPE] |251| 
        STRB      A1, [A2, #0]          ; [DPU_3_PIPE] |251| 
	.dwpsn	file "../picojpeg.c",line 252,column 4,is_stmt,isa 1
;----------------------------------------------------------------------
; 252 | return gInBuf[gInBufOfs++];                                            
;----------------------------------------------------------------------
        LDR       A3, $C$CON8           ; [DPU_3_PIPE] |252| 
        LDR       A4, $C$CON10          ; [DPU_3_PIPE] |252| 
        LDRB      A1, [A3, #0]          ; [DPU_3_PIPE] |252| 
        ADDS      A2, A1, #1            ; [DPU_3_PIPE] |252| 
        LDRB      A1, [A4, +A1]         ; [DPU_3_PIPE] |252| 
        STRB      A2, [A3, #0]          ; [DPU_3_PIPE] |252| 
;* --------------------------------------------------------------------------*
||$C$L26||:    
	.dwpsn	file "../picojpeg.c",line 253,column 1,is_stmt,isa 1
$C$DW$75	.dwtag  DW_TAG_TI_branch
	.dwattr $C$DW$75, DW_AT_low_pc(0x00)
	.dwattr $C$DW$75, DW_AT_TI_return

        POP       {A4, PC}              ; [DPU_3_PIPE] 
	.dwcfi	cfa_offset, 0
	.dwcfi	restore_reg, 3
        ; BRANCH OCCURS                  ; [] 
	.dwattr $C$DW$73, DW_AT_TI_end_file("../picojpeg.c")
	.dwattr $C$DW$73, DW_AT_TI_end_line(0xfd)
	.dwattr $C$DW$73, DW_AT_TI_end_column(0x01)
	.dwendentry
	.dwendtag $C$DW$73

	.sect	".text"
	.clink
	.thumbfunc stuffChar
	.thumb

$C$DW$76	.dwtag  DW_TAG_subprogram
	.dwattr $C$DW$76, DW_AT_name("stuffChar")
	.dwattr $C$DW$76, DW_AT_low_pc(stuffChar)
	.dwattr $C$DW$76, DW_AT_high_pc(0x00)
	.dwattr $C$DW$76, DW_AT_TI_symbol_name("stuffChar")
	.dwattr $C$DW$76, DW_AT_TI_begin_file("../picojpeg.c")
	.dwattr $C$DW$76, DW_AT_TI_begin_line(0xff)
	.dwattr $C$DW$76, DW_AT_TI_begin_column(0x19)
	.dwattr $C$DW$76, DW_AT_decl_file("../picojpeg.c")
	.dwattr $C$DW$76, DW_AT_decl_line(0xff)
	.dwattr $C$DW$76, DW_AT_decl_column(0x19)
	.dwattr $C$DW$76, DW_AT_TI_max_frame_size(0x08)
	.dwpsn	file "../picojpeg.c",line 256,column 1,is_stmt,address stuffChar,isa 1

	.dwfde $C$DW$CIE, stuffChar
$C$DW$77	.dwtag  DW_TAG_formal_parameter
	.dwattr $C$DW$77, DW_AT_name("i")
	.dwattr $C$DW$77, DW_AT_TI_symbol_name("i")
	.dwattr $C$DW$77, DW_AT_type(*$C$DW$T$25)
	.dwattr $C$DW$77, DW_AT_location[DW_OP_reg0]

;----------------------------------------------------------------------
; 255 | static PJPG_INLINE void stuffChar(uint8 i)                             
;----------------------------------------------------------------------

;*****************************************************************************
;* FUNCTION NAME: stuffChar                                                  *
;*                                                                           *
;*   Regs Modified     : A1,A2,A3,SP,SR                                      *
;*   Regs Used         : A1,A2,A3,SP,LR,SR                                   *
;*   Local Frame Size  : 0 Args + 4 Auto + 0 Save = 4 byte                   *
;*****************************************************************************
stuffChar:
;* --------------------------------------------------------------------------*
	.dwcfi	cfa_offset, 0
        SUB       SP, SP, #8            ; [DPU_3_PIPE] 
	.dwcfi	cfa_offset, 8
$C$DW$78	.dwtag  DW_TAG_variable
	.dwattr $C$DW$78, DW_AT_name("i")
	.dwattr $C$DW$78, DW_AT_TI_symbol_name("i")
	.dwattr $C$DW$78, DW_AT_type(*$C$DW$T$25)
	.dwattr $C$DW$78, DW_AT_location[DW_OP_breg13 0]

        STRB      A1, [SP, #0]          ; [DPU_3_PIPE] |256| 
	.dwpsn	file "../picojpeg.c",line 257,column 4,is_stmt,isa 1
;----------------------------------------------------------------------
; 257 | gInBufOfs--;                                                           
;----------------------------------------------------------------------
        LDR       A2, $C$CON8           ; [DPU_3_PIPE] |257| 
        LDRB      A1, [A2, #0]          ; [DPU_3_PIPE] |257| 
        SUBS      A1, A1, #1            ; [DPU_3_PIPE] |257| 
        STRB      A1, [A2, #0]          ; [DPU_3_PIPE] |257| 
	.dwpsn	file "../picojpeg.c",line 258,column 4,is_stmt,isa 1
;----------------------------------------------------------------------
; 258 | gInBuf[gInBufOfs] = i;                                                 
;----------------------------------------------------------------------
        LDR       A3, $C$CON10          ; [DPU_3_PIPE] |258| 
        LDR       A2, $C$CON8           ; [DPU_3_PIPE] |258| 
        LDRB      A1, [SP, #0]          ; [DPU_3_PIPE] |258| 
        LDRB      A2, [A2, #0]          ; [DPU_3_PIPE] |258| 
        STRB      A1, [A3, +A2]         ; [DPU_3_PIPE] |258| 
	.dwpsn	file "../picojpeg.c",line 259,column 4,is_stmt,isa 1
;----------------------------------------------------------------------
; 259 | gInBufLeft++;                                                          
;----------------------------------------------------------------------
        LDR       A2, $C$CON9           ; [DPU_3_PIPE] |259| 
        LDRB      A1, [A2, #0]          ; [DPU_3_PIPE] |259| 
        ADDS      A1, A1, #1            ; [DPU_3_PIPE] |259| 
        STRB      A1, [A2, #0]          ; [DPU_3_PIPE] |259| 
	.dwpsn	file "../picojpeg.c",line 260,column 1,is_stmt,isa 1
        ADD       SP, SP, #8            ; [DPU_3_PIPE] 
	.dwcfi	cfa_offset, 0
$C$DW$79	.dwtag  DW_TAG_TI_branch
	.dwattr $C$DW$79, DW_AT_low_pc(0x00)
	.dwattr $C$DW$79, DW_AT_TI_return

        BX        LR                    ; [DPU_3_PIPE] 
        ; BRANCH OCCURS                  ; [] 
	.dwattr $C$DW$76, DW_AT_TI_end_file("../picojpeg.c")
	.dwattr $C$DW$76, DW_AT_TI_end_line(0x104)
	.dwattr $C$DW$76, DW_AT_TI_end_column(0x01)
	.dwendentry
	.dwendtag $C$DW$76

	.sect	".text"
	.clink
	.thumbfunc getOctet
	.thumb

$C$DW$80	.dwtag  DW_TAG_subprogram
	.dwattr $C$DW$80, DW_AT_name("getOctet")
	.dwattr $C$DW$80, DW_AT_low_pc(getOctet)
	.dwattr $C$DW$80, DW_AT_high_pc(0x00)
	.dwattr $C$DW$80, DW_AT_TI_symbol_name("getOctet")
	.dwattr $C$DW$80, DW_AT_type(*$C$DW$T$25)
	.dwattr $C$DW$80, DW_AT_TI_begin_file("../picojpeg.c")
	.dwattr $C$DW$80, DW_AT_TI_begin_line(0x106)
	.dwattr $C$DW$80, DW_AT_TI_begin_column(0x1a)
	.dwattr $C$DW$80, DW_AT_decl_file("../picojpeg.c")
	.dwattr $C$DW$80, DW_AT_decl_line(0x106)
	.dwattr $C$DW$80, DW_AT_decl_column(0x1a)
	.dwattr $C$DW$80, DW_AT_TI_max_frame_size(0x10)
	.dwpsn	file "../picojpeg.c",line 263,column 1,is_stmt,address getOctet,isa 1

	.dwfde $C$DW$CIE, getOctet
$C$DW$81	.dwtag  DW_TAG_formal_parameter
	.dwattr $C$DW$81, DW_AT_name("FFCheck")
	.dwattr $C$DW$81, DW_AT_TI_symbol_name("FFCheck")
	.dwattr $C$DW$81, DW_AT_type(*$C$DW$T$25)
	.dwattr $C$DW$81, DW_AT_location[DW_OP_reg0]

;----------------------------------------------------------------------
; 262 | static PJPG_INLINE uint8 getOctet(uint8 FFCheck)                       
;----------------------------------------------------------------------

;*****************************************************************************
;* FUNCTION NAME: getOctet                                                   *
;*                                                                           *
;*   Regs Modified     : A1,A2,A3,A4,V9,SP,LR,SR,D0,D0_hi,D1,D1_hi,D2,D2_hi, *
;*                           D3,D3_hi,D4,D4_hi,D5,D5_hi,D6,D6_hi,D7,D7_hi,   *
;*                           FPEXC,FPSCR                                     *
;*   Regs Used         : A1,A2,A3,A4,V9,SP,LR,SR,D0,D0_hi,D1,D1_hi,D2,D2_hi, *
;*                           D3,D3_hi,D4,D4_hi,D5,D5_hi,D6,D6_hi,D7,D7_hi,   *
;*                           FPEXC,FPSCR                                     *
;*   Local Frame Size  : 0 Args + 8 Auto + 4 Save = 12 byte                  *
;*****************************************************************************
getOctet:
;* --------------------------------------------------------------------------*
	.dwcfi	cfa_offset, 0
        PUSH      {A2, A3, A4, LR}      ; [DPU_3_PIPE] 
	.dwcfi	cfa_offset, 16
	.dwcfi	save_reg_to_mem, 14, -4
	.dwcfi	save_reg_to_mem, 3, -8
	.dwcfi	save_reg_to_mem, 2, -12
	.dwcfi	save_reg_to_mem, 1, -16
$C$DW$82	.dwtag  DW_TAG_variable
	.dwattr $C$DW$82, DW_AT_name("FFCheck")
	.dwattr $C$DW$82, DW_AT_TI_symbol_name("FFCheck")
	.dwattr $C$DW$82, DW_AT_type(*$C$DW$T$25)
	.dwattr $C$DW$82, DW_AT_location[DW_OP_breg13 0]

$C$DW$83	.dwtag  DW_TAG_variable
	.dwattr $C$DW$83, DW_AT_name("c")
	.dwattr $C$DW$83, DW_AT_TI_symbol_name("c")
	.dwattr $C$DW$83, DW_AT_type(*$C$DW$T$25)
	.dwattr $C$DW$83, DW_AT_location[DW_OP_breg13 1]

        STRB      A1, [SP, #0]          ; [DPU_3_PIPE] |263| 
	.dwpsn	file "../picojpeg.c",line 264,column 12,is_stmt,isa 1
;----------------------------------------------------------------------
; 264 | uint8 c = getChar();                                                   
;----------------------------------------------------------------------
$C$DW$84	.dwtag  DW_TAG_TI_branch
	.dwattr $C$DW$84, DW_AT_low_pc(0x00)
	.dwattr $C$DW$84, DW_AT_name("getChar")
	.dwattr $C$DW$84, DW_AT_TI_call

        BL        getChar               ; [DPU_3_PIPE] |264| 
        ; CALL OCCURS {getChar }         ; [] |264| 
        STRB      A1, [SP, #1]          ; [DPU_3_PIPE] |264| 
	.dwpsn	file "../picojpeg.c",line 266,column 4,is_stmt,isa 1
;----------------------------------------------------------------------
; 266 | if ((FFCheck) && (c == 0xFF))                                          
;----------------------------------------------------------------------
        LDRB      A1, [SP, #0]          ; [DPU_3_PIPE] |266| 
        CBZ       A1, ||$C$L28||        ; [] 
        ; BRANCHCC OCCURS {||$C$L28||}   ; [] |266| 
;* --------------------------------------------------------------------------*
        LDRB      A1, [SP, #1]          ; [DPU_3_PIPE] |266| 
        CMP       A1, #255              ; [DPU_3_PIPE] |266| 
        BNE       ||$C$L28||            ; [DPU_3_PIPE] |266| 
        ; BRANCHCC OCCURS {||$C$L28||}   ; [] |266| 
;* --------------------------------------------------------------------------*

$C$DW$85	.dwtag  DW_TAG_lexical_block
	.dwattr $C$DW$85, DW_AT_low_pc(0x00)
	.dwattr $C$DW$85, DW_AT_high_pc(0x00)
$C$DW$86	.dwtag  DW_TAG_variable
	.dwattr $C$DW$86, DW_AT_name("n")
	.dwattr $C$DW$86, DW_AT_TI_symbol_name("n")
	.dwattr $C$DW$86, DW_AT_type(*$C$DW$T$25)
	.dwattr $C$DW$86, DW_AT_location[DW_OP_breg13 4]

	.dwpsn	file "../picojpeg.c",line 268,column 15,is_stmt,isa 1
;----------------------------------------------------------------------
; 268 | uint8 n = getChar();                                                   
;----------------------------------------------------------------------
$C$DW$87	.dwtag  DW_TAG_TI_branch
	.dwattr $C$DW$87, DW_AT_low_pc(0x00)
	.dwattr $C$DW$87, DW_AT_name("getChar")
	.dwattr $C$DW$87, DW_AT_TI_call

        BL        getChar               ; [DPU_3_PIPE] |268| 
        ; CALL OCCURS {getChar }         ; [] |268| 
        STRB      A1, [SP, #4]          ; [DPU_3_PIPE] |268| 
	.dwpsn	file "../picojpeg.c",line 270,column 7,is_stmt,isa 1
;----------------------------------------------------------------------
; 270 | if (n)                                                                 
;----------------------------------------------------------------------
        LDRB      A1, [SP, #4]          ; [DPU_3_PIPE] |270| 
        CBZ       A1, ||$C$L27||        ; [] 
        ; BRANCHCC OCCURS {||$C$L27||}   ; [] |270| 
;* --------------------------------------------------------------------------*
	.dwpsn	file "../picojpeg.c",line 272,column 10,is_stmt,isa 1
;----------------------------------------------------------------------
; 272 | stuffChar(n);                                                          
;----------------------------------------------------------------------
        LDRB      A1, [SP, #4]          ; [DPU_3_PIPE] |272| 
$C$DW$88	.dwtag  DW_TAG_TI_branch
	.dwattr $C$DW$88, DW_AT_low_pc(0x00)
	.dwattr $C$DW$88, DW_AT_name("stuffChar")
	.dwattr $C$DW$88, DW_AT_TI_call

        BL        stuffChar             ; [DPU_3_PIPE] |272| 
        ; CALL OCCURS {stuffChar }       ; [] |272| 
	.dwpsn	file "../picojpeg.c",line 273,column 10,is_stmt,isa 1
;----------------------------------------------------------------------
; 273 | stuffChar(0xFF);                                                       
;----------------------------------------------------------------------
        MOVS      A1, #255              ; [DPU_3_PIPE] |273| 
$C$DW$89	.dwtag  DW_TAG_TI_branch
	.dwattr $C$DW$89, DW_AT_low_pc(0x00)
	.dwattr $C$DW$89, DW_AT_name("stuffChar")
	.dwattr $C$DW$89, DW_AT_TI_call

        BL        stuffChar             ; [DPU_3_PIPE] |273| 
        ; CALL OCCURS {stuffChar }       ; [] |273| 
;* --------------------------------------------------------------------------*
||$C$L27||:    
	.dwendtag $C$DW$85

;* --------------------------------------------------------------------------*
||$C$L28||:    
	.dwpsn	file "../picojpeg.c",line 277,column 4,is_stmt,isa 1
;----------------------------------------------------------------------
; 277 | return c;                                                              
;----------------------------------------------------------------------
        LDRB      A1, [SP, #1]          ; [DPU_3_PIPE] |277| 
	.dwpsn	file "../picojpeg.c",line 278,column 1,is_stmt,isa 1
$C$DW$90	.dwtag  DW_TAG_TI_branch
	.dwattr $C$DW$90, DW_AT_low_pc(0x00)
	.dwattr $C$DW$90, DW_AT_TI_return

        POP       {A2, A3, A4, PC}      ; [DPU_3_PIPE] 
	.dwcfi	cfa_offset, 0
	.dwcfi	restore_reg, 3
	.dwcfi	restore_reg, 2
	.dwcfi	restore_reg, 1
        ; BRANCH OCCURS                  ; [] 
	.dwattr $C$DW$80, DW_AT_TI_end_file("../picojpeg.c")
	.dwattr $C$DW$80, DW_AT_TI_end_line(0x116)
	.dwattr $C$DW$80, DW_AT_TI_end_column(0x01)
	.dwendentry
	.dwendtag $C$DW$80

	.sect	".text"
	.clink
	.thumbfunc getBits
	.thumb

$C$DW$91	.dwtag  DW_TAG_subprogram
	.dwattr $C$DW$91, DW_AT_name("getBits")
	.dwattr $C$DW$91, DW_AT_low_pc(getBits)
	.dwattr $C$DW$91, DW_AT_high_pc(0x00)
	.dwattr $C$DW$91, DW_AT_TI_symbol_name("getBits")
	.dwattr $C$DW$91, DW_AT_type(*$C$DW$T$23)
	.dwattr $C$DW$91, DW_AT_TI_begin_file("../picojpeg.c")
	.dwattr $C$DW$91, DW_AT_TI_begin_line(0x118)
	.dwattr $C$DW$91, DW_AT_TI_begin_column(0x0f)
	.dwattr $C$DW$91, DW_AT_decl_file("../picojpeg.c")
	.dwattr $C$DW$91, DW_AT_decl_line(0x118)
	.dwattr $C$DW$91, DW_AT_decl_column(0x0f)
	.dwattr $C$DW$91, DW_AT_TI_max_frame_size(0x10)
	.dwpsn	file "../picojpeg.c",line 281,column 1,is_stmt,address getBits,isa 1

	.dwfde $C$DW$CIE, getBits
$C$DW$92	.dwtag  DW_TAG_formal_parameter
	.dwattr $C$DW$92, DW_AT_name("numBits")
	.dwattr $C$DW$92, DW_AT_TI_symbol_name("numBits")
	.dwattr $C$DW$92, DW_AT_type(*$C$DW$T$25)
	.dwattr $C$DW$92, DW_AT_location[DW_OP_reg0]

$C$DW$93	.dwtag  DW_TAG_formal_parameter
	.dwattr $C$DW$93, DW_AT_name("FFCheck")
	.dwattr $C$DW$93, DW_AT_TI_symbol_name("FFCheck")
	.dwattr $C$DW$93, DW_AT_type(*$C$DW$T$25)
	.dwattr $C$DW$93, DW_AT_location[DW_OP_reg1]

;----------------------------------------------------------------------
; 280 | static uint16 getBits(uint8 numBits, uint8 FFCheck)                    
;----------------------------------------------------------------------

;*****************************************************************************
;* FUNCTION NAME: getBits                                                    *
;*                                                                           *
;*   Regs Modified     : A1,A2,A3,A4,V1,V9,SP,LR,SR,D0,D0_hi,D1,D1_hi,D2,    *
;*                           D2_hi,D3,D3_hi,D4,D4_hi,D5,D5_hi,D6,D6_hi,D7,   *
;*                           D7_hi,FPEXC,FPSCR                               *
;*   Regs Used         : A1,A2,A3,A4,V1,V9,SP,LR,SR,D0,D0_hi,D1,D1_hi,D2,    *
;*                           D2_hi,D3,D3_hi,D4,D4_hi,D5,D5_hi,D6,D6_hi,D7,   *
;*                           D7_hi,FPEXC,FPSCR                               *
;*   Local Frame Size  : 0 Args + 8 Auto + 8 Save = 16 byte                  *
;*****************************************************************************
getBits:
;* --------------------------------------------------------------------------*
	.dwcfi	cfa_offset, 0
        PUSH      {A3, A4, V1, LR}      ; [DPU_3_PIPE] 
	.dwcfi	cfa_offset, 16
	.dwcfi	save_reg_to_mem, 14, -4
	.dwcfi	save_reg_to_mem, 4, -8
	.dwcfi	save_reg_to_mem, 3, -12
	.dwcfi	save_reg_to_mem, 2, -16
$C$DW$94	.dwtag  DW_TAG_variable
	.dwattr $C$DW$94, DW_AT_name("ret")
	.dwattr $C$DW$94, DW_AT_TI_symbol_name("ret")
	.dwattr $C$DW$94, DW_AT_type(*$C$DW$T$23)
	.dwattr $C$DW$94, DW_AT_location[DW_OP_breg13 0]

$C$DW$95	.dwtag  DW_TAG_variable
	.dwattr $C$DW$95, DW_AT_name("numBits")
	.dwattr $C$DW$95, DW_AT_TI_symbol_name("numBits")
	.dwattr $C$DW$95, DW_AT_type(*$C$DW$T$25)
	.dwattr $C$DW$95, DW_AT_location[DW_OP_breg13 2]

$C$DW$96	.dwtag  DW_TAG_variable
	.dwattr $C$DW$96, DW_AT_name("FFCheck")
	.dwattr $C$DW$96, DW_AT_TI_symbol_name("FFCheck")
	.dwattr $C$DW$96, DW_AT_type(*$C$DW$T$25)
	.dwattr $C$DW$96, DW_AT_location[DW_OP_breg13 3]

$C$DW$97	.dwtag  DW_TAG_variable
	.dwattr $C$DW$97, DW_AT_name("origBits")
	.dwattr $C$DW$97, DW_AT_TI_symbol_name("origBits")
	.dwattr $C$DW$97, DW_AT_type(*$C$DW$T$25)
	.dwattr $C$DW$97, DW_AT_location[DW_OP_breg13 4]

        STRB      A2, [SP, #3]          ; [DPU_3_PIPE] |281| 
        STRB      A1, [SP, #2]          ; [DPU_3_PIPE] |281| 
	.dwpsn	file "../picojpeg.c",line 282,column 19,is_stmt,isa 1
;----------------------------------------------------------------------
; 282 | uint8 origBits = numBits;                                              
;----------------------------------------------------------------------
        LDRB      A1, [SP, #2]          ; [DPU_3_PIPE] |282| 
        STRB      A1, [SP, #4]          ; [DPU_3_PIPE] |282| 
	.dwpsn	file "../picojpeg.c",line 283,column 15,is_stmt,isa 1
;----------------------------------------------------------------------
; 283 | uint16 ret = gBitBuf;                                                  
;----------------------------------------------------------------------
        LDR       A1, $C$CON15          ; [DPU_3_PIPE] |283| 
        LDRH      A1, [A1, #0]          ; [DPU_3_PIPE] |283| 
        STRH      A1, [SP, #0]          ; [DPU_3_PIPE] |283| 
	.dwpsn	file "../picojpeg.c",line 285,column 4,is_stmt,isa 1
;----------------------------------------------------------------------
; 285 | if (numBits > 8)                                                       
;----------------------------------------------------------------------
        LDRB      A1, [SP, #2]          ; [DPU_3_PIPE] |285| 
        CMP       A1, #8                ; [DPU_3_PIPE] |285| 
        BLE       ||$C$L29||            ; [DPU_3_PIPE] |285| 
        ; BRANCHCC OCCURS {||$C$L29||}   ; [] |285| 
;* --------------------------------------------------------------------------*
	.dwpsn	file "../picojpeg.c",line 287,column 7,is_stmt,isa 1
;----------------------------------------------------------------------
; 287 | numBits -= 8;                                                          
;----------------------------------------------------------------------
        LDRB      A1, [SP, #2]          ; [DPU_3_PIPE] |287| 
        SUBS      A1, A1, #8            ; [DPU_3_PIPE] |287| 
        STRB      A1, [SP, #2]          ; [DPU_3_PIPE] |287| 
	.dwpsn	file "../picojpeg.c",line 289,column 7,is_stmt,isa 1
;----------------------------------------------------------------------
; 289 | gBitBuf <<= gBitsLeft;                                                 
;----------------------------------------------------------------------
        LDR       A1, $C$CON16          ; [DPU_3_PIPE] |289| 
        LDR       A2, $C$CON15          ; [DPU_3_PIPE] |289| 
        LDRB      A3, [A1, #0]          ; [DPU_3_PIPE] |289| 
        LDRH      A1, [A2, #0]          ; [DPU_3_PIPE] |289| 
        LSLS      A1, A1, A3            ; [DPU_3_PIPE] |289| 
        STRH      A1, [A2, #0]          ; [DPU_3_PIPE] |289| 
	.dwpsn	file "../picojpeg.c",line 291,column 7,is_stmt,isa 1
;----------------------------------------------------------------------
; 291 | gBitBuf |= getOctet(FFCheck);                                          
;----------------------------------------------------------------------
        LDR       V1, $C$CON15          ; [DPU_3_PIPE] |291| 
        LDRB      A1, [SP, #3]          ; [DPU_3_PIPE] |291| 
$C$DW$98	.dwtag  DW_TAG_TI_branch
	.dwattr $C$DW$98, DW_AT_low_pc(0x00)
	.dwattr $C$DW$98, DW_AT_name("getOctet")
	.dwattr $C$DW$98, DW_AT_TI_call

        BL        getOctet              ; [DPU_3_PIPE] |291| 
        ; CALL OCCURS {getOctet }        ; [] |291| 
        LDRH      A2, [V1, #0]          ; [DPU_3_PIPE] |291| 
        ORRS      A1, A1, A2            ; [DPU_3_PIPE] |291| 
        STRH      A1, [V1, #0]          ; [DPU_3_PIPE] |291| 
	.dwpsn	file "../picojpeg.c",line 293,column 7,is_stmt,isa 1
;----------------------------------------------------------------------
; 293 | gBitBuf <<= (8 - gBitsLeft);                                           
;----------------------------------------------------------------------
        LDR       A1, $C$CON16          ; [DPU_3_PIPE] |293| 
        LDR       A3, $C$CON15          ; [DPU_3_PIPE] |293| 
        LDRB      A1, [A1, #0]          ; [DPU_3_PIPE] |293| 
        LDRH      A2, [A3, #0]          ; [DPU_3_PIPE] |293| 
        RSB       A1, A1, #8            ; [DPU_3_PIPE] |293| 
        LSLS      A2, A2, A1            ; [DPU_3_PIPE] |293| 
        STRH      A2, [A3, #0]          ; [DPU_3_PIPE] |293| 
	.dwpsn	file "../picojpeg.c",line 295,column 7,is_stmt,isa 1
;----------------------------------------------------------------------
; 295 | ret = (ret & 0xFF00) | (gBitBuf >> 8);                                 
;----------------------------------------------------------------------
        LDR       A2, $C$CON15          ; [DPU_3_PIPE] |295| 
        LDRH      A1, [SP, #0]          ; [DPU_3_PIPE] |295| 
        LDRH      A2, [A2, #0]          ; [DPU_3_PIPE] |295| 
        AND       A1, A1, #65280        ; [DPU_3_PIPE] |295| 
        ORR       A1, A1, A2, ASR #8    ; [DPU_3_PIPE] |295| 
        STRH      A1, [SP, #0]          ; [DPU_3_PIPE] |295| 
;* --------------------------------------------------------------------------*
||$C$L29||:    
	.dwpsn	file "../picojpeg.c",line 298,column 4,is_stmt,isa 1
;----------------------------------------------------------------------
; 298 | if (gBitsLeft < numBits)                                               
;----------------------------------------------------------------------
        LDR       A2, $C$CON16          ; [DPU_3_PIPE] |298| 
        LDRB      A1, [SP, #2]          ; [DPU_3_PIPE] |298| 
        LDRB      A2, [A2, #0]          ; [DPU_3_PIPE] |298| 
        CMP       A1, A2                ; [DPU_3_PIPE] |298| 
        BLE       ||$C$L30||            ; [DPU_3_PIPE] |298| 
        ; BRANCHCC OCCURS {||$C$L30||}   ; [] |298| 
;* --------------------------------------------------------------------------*
	.dwpsn	file "../picojpeg.c",line 300,column 7,is_stmt,isa 1
;----------------------------------------------------------------------
; 300 | gBitBuf <<= gBitsLeft;                                                 
;----------------------------------------------------------------------
        LDR       A1, $C$CON16          ; [DPU_3_PIPE] |300| 
        LDR       A2, $C$CON15          ; [DPU_3_PIPE] |300| 
        LDRB      A3, [A1, #0]          ; [DPU_3_PIPE] |300| 
        LDRH      A1, [A2, #0]          ; [DPU_3_PIPE] |300| 
        LSLS      A1, A1, A3            ; [DPU_3_PIPE] |300| 
        STRH      A1, [A2, #0]          ; [DPU_3_PIPE] |300| 
	.dwpsn	file "../picojpeg.c",line 302,column 7,is_stmt,isa 1
;----------------------------------------------------------------------
; 302 | gBitBuf |= getOctet(FFCheck);                                          
;----------------------------------------------------------------------
        LDR       V1, $C$CON15          ; [DPU_3_PIPE] |302| 
        LDRB      A1, [SP, #3]          ; [DPU_3_PIPE] |302| 
$C$DW$99	.dwtag  DW_TAG_TI_branch
	.dwattr $C$DW$99, DW_AT_low_pc(0x00)
	.dwattr $C$DW$99, DW_AT_name("getOctet")
	.dwattr $C$DW$99, DW_AT_TI_call

        BL        getOctet              ; [DPU_3_PIPE] |302| 
        ; CALL OCCURS {getOctet }        ; [] |302| 
        LDRH      A2, [V1, #0]          ; [DPU_3_PIPE] |302| 
        ORRS      A1, A1, A2            ; [DPU_3_PIPE] |302| 
        STRH      A1, [V1, #0]          ; [DPU_3_PIPE] |302| 
	.dwpsn	file "../picojpeg.c",line 304,column 7,is_stmt,isa 1
;----------------------------------------------------------------------
; 304 | gBitBuf <<= (numBits - gBitsLeft);                                     
;----------------------------------------------------------------------
        LDR       A2, $C$CON16          ; [DPU_3_PIPE] |304| 
        LDR       A3, $C$CON15          ; [DPU_3_PIPE] |304| 
        LDRB      A1, [SP, #2]          ; [DPU_3_PIPE] |304| 
        LDRB      A4, [A2, #0]          ; [DPU_3_PIPE] |304| 
        LDRH      A2, [A3, #0]          ; [DPU_3_PIPE] |304| 
        SUBS      A1, A1, A4            ; [DPU_3_PIPE] |304| 
        LSLS      A2, A2, A1            ; [DPU_3_PIPE] |304| 
        STRH      A2, [A3, #0]          ; [DPU_3_PIPE] |304| 
	.dwpsn	file "../picojpeg.c",line 306,column 7,is_stmt,isa 1
;----------------------------------------------------------------------
; 306 | gBitsLeft = 8 - (numBits - gBitsLeft);                                 
;----------------------------------------------------------------------
        LDR       A1, $C$CON16          ; [DPU_3_PIPE] |306| 
        LDRB      A3, [SP, #2]          ; [DPU_3_PIPE] |306| 
        LDR       A2, $C$CON16          ; [DPU_3_PIPE] |306| 
        LDRB      A1, [A1, #0]          ; [DPU_3_PIPE] |306| 
        SUBS      A1, A1, A3            ; [DPU_3_PIPE] |306| 
        ADDS      A1, A1, #8            ; [DPU_3_PIPE] |306| 
        STRB      A1, [A2, #0]          ; [DPU_3_PIPE] |306| 
	.dwpsn	file "../picojpeg.c",line 307,column 4,is_stmt,isa 1
;----------------------------------------------------------------------
; 308 | else                                                                   
;----------------------------------------------------------------------
        B         ||$C$L31||            ; [DPU_3_PIPE] |307| 
        ; BRANCH OCCURS {||$C$L31||}     ; [] |307| 
;* --------------------------------------------------------------------------*
||$C$L30||:    
	.dwpsn	file "../picojpeg.c",line 310,column 7,is_stmt,isa 1
;----------------------------------------------------------------------
; 310 | gBitsLeft = (uint8)(gBitsLeft - numBits);                              
;----------------------------------------------------------------------
        LDR       A1, $C$CON16          ; [DPU_3_PIPE] |310| 
        LDRB      A3, [SP, #2]          ; [DPU_3_PIPE] |310| 
        LDR       A2, $C$CON16          ; [DPU_3_PIPE] |310| 
        LDRB      A1, [A1, #0]          ; [DPU_3_PIPE] |310| 
        SUBS      A1, A1, A3            ; [DPU_3_PIPE] |310| 
        STRB      A1, [A2, #0]          ; [DPU_3_PIPE] |310| 
	.dwpsn	file "../picojpeg.c",line 311,column 7,is_stmt,isa 1
;----------------------------------------------------------------------
; 311 | gBitBuf <<= numBits;                                                   
;----------------------------------------------------------------------
        LDR       A2, $C$CON15          ; [DPU_3_PIPE] |311| 
        LDRB      A3, [SP, #2]          ; [DPU_3_PIPE] |311| 
        LDRH      A1, [A2, #0]          ; [DPU_3_PIPE] |311| 
        LSLS      A1, A1, A3            ; [DPU_3_PIPE] |311| 
        STRH      A1, [A2, #0]          ; [DPU_3_PIPE] |311| 
;* --------------------------------------------------------------------------*
||$C$L31||:    
	.dwpsn	file "../picojpeg.c",line 314,column 4,is_stmt,isa 1
;----------------------------------------------------------------------
; 314 | return ret >> (16 - origBits);                                         
;----------------------------------------------------------------------
        LDRB      A1, [SP, #4]          ; [DPU_3_PIPE] |314| 
        LDRH      A2, [SP, #0]          ; [DPU_3_PIPE] |314| 
        RSB       A1, A1, #16           ; [DPU_3_PIPE] |314| 
        ASRS      A2, A2, A1            ; [DPU_3_PIPE] |314| 
        UXTH      A1, A2                ; [DPU_3_PIPE] |314| 
	.dwpsn	file "../picojpeg.c",line 315,column 1,is_stmt,isa 1
$C$DW$100	.dwtag  DW_TAG_TI_branch
	.dwattr $C$DW$100, DW_AT_low_pc(0x00)
	.dwattr $C$DW$100, DW_AT_TI_return

        POP       {A3, A4, V1, PC}      ; [DPU_3_PIPE] 
	.dwcfi	cfa_offset, 0
	.dwcfi	restore_reg, 4
	.dwcfi	restore_reg, 3
	.dwcfi	restore_reg, 2
        ; BRANCH OCCURS                  ; [] 
	.dwattr $C$DW$91, DW_AT_TI_end_file("../picojpeg.c")
	.dwattr $C$DW$91, DW_AT_TI_end_line(0x13b)
	.dwattr $C$DW$91, DW_AT_TI_end_column(0x01)
	.dwendentry
	.dwendtag $C$DW$91

	.sect	".text"
	.clink
	.thumbfunc getBits1
	.thumb

$C$DW$101	.dwtag  DW_TAG_subprogram
	.dwattr $C$DW$101, DW_AT_name("getBits1")
	.dwattr $C$DW$101, DW_AT_low_pc(getBits1)
	.dwattr $C$DW$101, DW_AT_high_pc(0x00)
	.dwattr $C$DW$101, DW_AT_TI_symbol_name("getBits1")
	.dwattr $C$DW$101, DW_AT_type(*$C$DW$T$23)
	.dwattr $C$DW$101, DW_AT_TI_begin_file("../picojpeg.c")
	.dwattr $C$DW$101, DW_AT_TI_begin_line(0x13d)
	.dwattr $C$DW$101, DW_AT_TI_begin_column(0x1b)
	.dwattr $C$DW$101, DW_AT_decl_file("../picojpeg.c")
	.dwattr $C$DW$101, DW_AT_decl_line(0x13d)
	.dwattr $C$DW$101, DW_AT_decl_column(0x1b)
	.dwattr $C$DW$101, DW_AT_TI_max_frame_size(0x08)
	.dwpsn	file "../picojpeg.c",line 318,column 1,is_stmt,address getBits1,isa 1

	.dwfde $C$DW$CIE, getBits1
$C$DW$102	.dwtag  DW_TAG_formal_parameter
	.dwattr $C$DW$102, DW_AT_name("numBits")
	.dwattr $C$DW$102, DW_AT_TI_symbol_name("numBits")
	.dwattr $C$DW$102, DW_AT_type(*$C$DW$T$25)
	.dwattr $C$DW$102, DW_AT_location[DW_OP_reg0]

;----------------------------------------------------------------------
; 317 | static PJPG_INLINE uint16 getBits1(uint8 numBits)                      
;----------------------------------------------------------------------

;*****************************************************************************
;* FUNCTION NAME: getBits1                                                   *
;*                                                                           *
;*   Regs Modified     : A1,A2,A3,A4,V9,SP,LR,SR,D0,D0_hi,D1,D1_hi,D2,D2_hi, *
;*                           D3,D3_hi,D4,D4_hi,D5,D5_hi,D6,D6_hi,D7,D7_hi,   *
;*                           FPEXC,FPSCR                                     *
;*   Regs Used         : A1,A2,A3,A4,V9,SP,LR,SR,D0,D0_hi,D1,D1_hi,D2,D2_hi, *
;*                           D3,D3_hi,D4,D4_hi,D5,D5_hi,D6,D6_hi,D7,D7_hi,   *
;*                           FPEXC,FPSCR                                     *
;*   Local Frame Size  : 0 Args + 4 Auto + 4 Save = 8 byte                   *
;*****************************************************************************
getBits1:
;* --------------------------------------------------------------------------*
	.dwcfi	cfa_offset, 0
        PUSH      {A4, LR}              ; [DPU_3_PIPE] 
	.dwcfi	cfa_offset, 8
	.dwcfi	save_reg_to_mem, 14, -4
	.dwcfi	save_reg_to_mem, 3, -8
$C$DW$103	.dwtag  DW_TAG_variable
	.dwattr $C$DW$103, DW_AT_name("numBits")
	.dwattr $C$DW$103, DW_AT_TI_symbol_name("numBits")
	.dwattr $C$DW$103, DW_AT_type(*$C$DW$T$25)
	.dwattr $C$DW$103, DW_AT_location[DW_OP_breg13 0]

        STRB      A1, [SP, #0]          ; [DPU_3_PIPE] |318| 
	.dwpsn	file "../picojpeg.c",line 319,column 4,is_stmt,isa 1
;----------------------------------------------------------------------
; 319 | return getBits(numBits, 0);                                            
;----------------------------------------------------------------------
        LDRB      A1, [SP, #0]          ; [DPU_3_PIPE] |319| 
        MOVS      A2, #0                ; [DPU_3_PIPE] |319| 
$C$DW$104	.dwtag  DW_TAG_TI_branch
	.dwattr $C$DW$104, DW_AT_low_pc(0x00)
	.dwattr $C$DW$104, DW_AT_name("getBits")
	.dwattr $C$DW$104, DW_AT_TI_call

        BL        getBits               ; [DPU_3_PIPE] |319| 
        ; CALL OCCURS {getBits }         ; [] |319| 
	.dwpsn	file "../picojpeg.c",line 320,column 1,is_stmt,isa 1
$C$DW$105	.dwtag  DW_TAG_TI_branch
	.dwattr $C$DW$105, DW_AT_low_pc(0x00)
	.dwattr $C$DW$105, DW_AT_TI_return

        POP       {A4, PC}              ; [DPU_3_PIPE] 
	.dwcfi	cfa_offset, 0
	.dwcfi	restore_reg, 3
        ; BRANCH OCCURS                  ; [] 
	.dwattr $C$DW$101, DW_AT_TI_end_file("../picojpeg.c")
	.dwattr $C$DW$101, DW_AT_TI_end_line(0x140)
	.dwattr $C$DW$101, DW_AT_TI_end_column(0x01)
	.dwendentry
	.dwendtag $C$DW$101

	.sect	".text"
	.clink
	.thumbfunc getBits2
	.thumb

$C$DW$106	.dwtag  DW_TAG_subprogram
	.dwattr $C$DW$106, DW_AT_name("getBits2")
	.dwattr $C$DW$106, DW_AT_low_pc(getBits2)
	.dwattr $C$DW$106, DW_AT_high_pc(0x00)
	.dwattr $C$DW$106, DW_AT_TI_symbol_name("getBits2")
	.dwattr $C$DW$106, DW_AT_type(*$C$DW$T$23)
	.dwattr $C$DW$106, DW_AT_TI_begin_file("../picojpeg.c")
	.dwattr $C$DW$106, DW_AT_TI_begin_line(0x142)
	.dwattr $C$DW$106, DW_AT_TI_begin_column(0x1b)
	.dwattr $C$DW$106, DW_AT_decl_file("../picojpeg.c")
	.dwattr $C$DW$106, DW_AT_decl_line(0x142)
	.dwattr $C$DW$106, DW_AT_decl_column(0x1b)
	.dwattr $C$DW$106, DW_AT_TI_max_frame_size(0x08)
	.dwpsn	file "../picojpeg.c",line 323,column 1,is_stmt,address getBits2,isa 1

	.dwfde $C$DW$CIE, getBits2
$C$DW$107	.dwtag  DW_TAG_formal_parameter
	.dwattr $C$DW$107, DW_AT_name("numBits")
	.dwattr $C$DW$107, DW_AT_TI_symbol_name("numBits")
	.dwattr $C$DW$107, DW_AT_type(*$C$DW$T$25)
	.dwattr $C$DW$107, DW_AT_location[DW_OP_reg0]

;----------------------------------------------------------------------
; 322 | static PJPG_INLINE uint16 getBits2(uint8 numBits)                      
;----------------------------------------------------------------------

;*****************************************************************************
;* FUNCTION NAME: getBits2                                                   *
;*                                                                           *
;*   Regs Modified     : A1,A2,A3,A4,V9,SP,LR,SR,D0,D0_hi,D1,D1_hi,D2,D2_hi, *
;*                           D3,D3_hi,D4,D4_hi,D5,D5_hi,D6,D6_hi,D7,D7_hi,   *
;*                           FPEXC,FPSCR                                     *
;*   Regs Used         : A1,A2,A3,A4,V9,SP,LR,SR,D0,D0_hi,D1,D1_hi,D2,D2_hi, *
;*                           D3,D3_hi,D4,D4_hi,D5,D5_hi,D6,D6_hi,D7,D7_hi,   *
;*                           FPEXC,FPSCR                                     *
;*   Local Frame Size  : 0 Args + 4 Auto + 4 Save = 8 byte                   *
;*****************************************************************************
getBits2:
;* --------------------------------------------------------------------------*
	.dwcfi	cfa_offset, 0
        PUSH      {A4, LR}              ; [DPU_3_PIPE] 
	.dwcfi	cfa_offset, 8
	.dwcfi	save_reg_to_mem, 14, -4
	.dwcfi	save_reg_to_mem, 3, -8
$C$DW$108	.dwtag  DW_TAG_variable
	.dwattr $C$DW$108, DW_AT_name("numBits")
	.dwattr $C$DW$108, DW_AT_TI_symbol_name("numBits")
	.dwattr $C$DW$108, DW_AT_type(*$C$DW$T$25)
	.dwattr $C$DW$108, DW_AT_location[DW_OP_breg13 0]

        STRB      A1, [SP, #0]          ; [DPU_3_PIPE] |323| 
	.dwpsn	file "../picojpeg.c",line 324,column 4,is_stmt,isa 1
;----------------------------------------------------------------------
; 324 | return getBits(numBits, 1);                                            
;----------------------------------------------------------------------
        LDRB      A1, [SP, #0]          ; [DPU_3_PIPE] |324| 
        MOVS      A2, #1                ; [DPU_3_PIPE] |324| 
$C$DW$109	.dwtag  DW_TAG_TI_branch
	.dwattr $C$DW$109, DW_AT_low_pc(0x00)
	.dwattr $C$DW$109, DW_AT_name("getBits")
	.dwattr $C$DW$109, DW_AT_TI_call

        BL        getBits               ; [DPU_3_PIPE] |324| 
        ; CALL OCCURS {getBits }         ; [] |324| 
	.dwpsn	file "../picojpeg.c",line 325,column 1,is_stmt,isa 1
$C$DW$110	.dwtag  DW_TAG_TI_branch
	.dwattr $C$DW$110, DW_AT_low_pc(0x00)
	.dwattr $C$DW$110, DW_AT_TI_return

        POP       {A4, PC}              ; [DPU_3_PIPE] 
	.dwcfi	cfa_offset, 0
	.dwcfi	restore_reg, 3
        ; BRANCH OCCURS                  ; [] 
	.dwattr $C$DW$106, DW_AT_TI_end_file("../picojpeg.c")
	.dwattr $C$DW$106, DW_AT_TI_end_line(0x145)
	.dwattr $C$DW$106, DW_AT_TI_end_column(0x01)
	.dwendentry
	.dwendtag $C$DW$106

;******************************************************************************
;* CONSTANT TABLE                                                             *
;******************************************************************************
	.sect	".text"
	.align	4
||$C$CON1||:	.bits	-32768,32
	.align	4
||$C$CON2||:	.bits	-16384,32
	.align	4
||$C$CON3||:	.bits	-8192,32
	.align	4
||$C$CON4||:	.bits	-4096,32
	.align	4
||$C$CON5||:	.bits	-2048,32
	.align	4
||$C$CON6||:	.bits	-1024,32
	.align	4
||$C$CON7||:	.bits	-512,32
	.sect	".text"
	.clink
	.thumbfunc getBit
	.thumb

$C$DW$111	.dwtag  DW_TAG_subprogram
	.dwattr $C$DW$111, DW_AT_name("getBit")
	.dwattr $C$DW$111, DW_AT_low_pc(getBit)
	.dwattr $C$DW$111, DW_AT_high_pc(0x00)
	.dwattr $C$DW$111, DW_AT_TI_symbol_name("getBit")
	.dwattr $C$DW$111, DW_AT_type(*$C$DW$T$25)
	.dwattr $C$DW$111, DW_AT_TI_begin_file("../picojpeg.c")
	.dwattr $C$DW$111, DW_AT_TI_begin_line(0x147)
	.dwattr $C$DW$111, DW_AT_TI_begin_column(0x1a)
	.dwattr $C$DW$111, DW_AT_decl_file("../picojpeg.c")
	.dwattr $C$DW$111, DW_AT_decl_line(0x147)
	.dwattr $C$DW$111, DW_AT_decl_column(0x1a)
	.dwattr $C$DW$111, DW_AT_TI_max_frame_size(0x10)
	.dwpsn	file "../picojpeg.c",line 328,column 1,is_stmt,address getBit,isa 1

	.dwfde $C$DW$CIE, getBit
;----------------------------------------------------------------------
; 327 | static PJPG_INLINE uint8 getBit(void)                                  
;----------------------------------------------------------------------

;*****************************************************************************
;* FUNCTION NAME: getBit                                                     *
;*                                                                           *
;*   Regs Modified     : A1,A2,A3,A4,V1,V9,SP,LR,SR,D0,D0_hi,D1,D1_hi,D2,    *
;*                           D2_hi,D3,D3_hi,D4,D4_hi,D5,D5_hi,D6,D6_hi,D7,   *
;*                           D7_hi,FPEXC,FPSCR                               *
;*   Regs Used         : A1,A2,A3,A4,V1,V9,SP,LR,SR,D0,D0_hi,D1,D1_hi,D2,    *
;*                           D2_hi,D3,D3_hi,D4,D4_hi,D5,D5_hi,D6,D6_hi,D7,   *
;*                           D7_hi,FPEXC,FPSCR                               *
;*   Local Frame Size  : 0 Args + 4 Auto + 8 Save = 12 byte                  *
;*****************************************************************************
getBit:
;* --------------------------------------------------------------------------*
	.dwcfi	cfa_offset, 0
        PUSH      {A3, A4, V1, LR}      ; [DPU_3_PIPE] 
	.dwcfi	cfa_offset, 16
	.dwcfi	save_reg_to_mem, 14, -4
	.dwcfi	save_reg_to_mem, 4, -8
	.dwcfi	save_reg_to_mem, 3, -12
	.dwcfi	save_reg_to_mem, 2, -16
$C$DW$112	.dwtag  DW_TAG_variable
	.dwattr $C$DW$112, DW_AT_name("ret")
	.dwattr $C$DW$112, DW_AT_TI_symbol_name("ret")
	.dwattr $C$DW$112, DW_AT_type(*$C$DW$T$25)
	.dwattr $C$DW$112, DW_AT_location[DW_OP_breg13 0]

	.dwpsn	file "../picojpeg.c",line 329,column 14,is_stmt,isa 1
;----------------------------------------------------------------------
; 329 | uint8 ret = 0;                                                         
;----------------------------------------------------------------------
        MOVS      A1, #0                ; [DPU_3_PIPE] |329| 
        STRB      A1, [SP, #0]          ; [DPU_3_PIPE] |329| 
	.dwpsn	file "../picojpeg.c",line 330,column 4,is_stmt,isa 1
;----------------------------------------------------------------------
; 330 | if (gBitBuf & 0x8000)                                                  
;----------------------------------------------------------------------
        LDR       A1, $C$CON15          ; [DPU_3_PIPE] |330| 
        LDRH      A1, [A1, #0]          ; [DPU_3_PIPE] |330| 
        LSRS      A1, A1, #16           ; [DPU_3_PIPE] |330| 
        BCC       ||$C$L32||            ; [DPU_3_PIPE] |330| 
        ; BRANCHCC OCCURS {||$C$L32||}   ; [] |330| 
;* --------------------------------------------------------------------------*
	.dwpsn	file "../picojpeg.c",line 331,column 7,is_stmt,isa 1
;----------------------------------------------------------------------
; 331 | ret = 1;                                                               
;----------------------------------------------------------------------
        MOVS      A1, #1                ; [DPU_3_PIPE] |331| 
        STRB      A1, [SP, #0]          ; [DPU_3_PIPE] |331| 
;* --------------------------------------------------------------------------*
||$C$L32||:    
	.dwpsn	file "../picojpeg.c",line 333,column 4,is_stmt,isa 1
;----------------------------------------------------------------------
; 333 | if (!gBitsLeft)                                                        
;----------------------------------------------------------------------
        LDR       A1, $C$CON16          ; [DPU_3_PIPE] |333| 
        LDRB      A1, [A1, #0]          ; [DPU_3_PIPE] |333| 
        CBNZ      A1, ||$C$L33||        ; [] 
        ; BRANCHCC OCCURS {||$C$L33||}   ; [] |333| 
;* --------------------------------------------------------------------------*
	.dwpsn	file "../picojpeg.c",line 335,column 7,is_stmt,isa 1
;----------------------------------------------------------------------
; 335 | gBitBuf |= getOctet(1);                                                
;----------------------------------------------------------------------
        LDR       V1, $C$CON15          ; [DPU_3_PIPE] |335| 
        MOVS      A1, #1                ; [DPU_3_PIPE] |335| 
$C$DW$113	.dwtag  DW_TAG_TI_branch
	.dwattr $C$DW$113, DW_AT_low_pc(0x00)
	.dwattr $C$DW$113, DW_AT_name("getOctet")
	.dwattr $C$DW$113, DW_AT_TI_call

        BL        getOctet              ; [DPU_3_PIPE] |335| 
        ; CALL OCCURS {getOctet }        ; [] |335| 
        LDRH      A2, [V1, #0]          ; [DPU_3_PIPE] |335| 
        ORRS      A1, A1, A2            ; [DPU_3_PIPE] |335| 
        STRH      A1, [V1, #0]          ; [DPU_3_PIPE] |335| 
	.dwpsn	file "../picojpeg.c",line 337,column 7,is_stmt,isa 1
;----------------------------------------------------------------------
; 337 | gBitsLeft += 8;                                                        
;----------------------------------------------------------------------
        LDR       A2, $C$CON16          ; [DPU_3_PIPE] |337| 
        LDRB      A1, [A2, #0]          ; [DPU_3_PIPE] |337| 
        ADDS      A1, A1, #8            ; [DPU_3_PIPE] |337| 
        STRB      A1, [A2, #0]          ; [DPU_3_PIPE] |337| 
;* --------------------------------------------------------------------------*
||$C$L33||:    
	.dwpsn	file "../picojpeg.c",line 340,column 4,is_stmt,isa 1
;----------------------------------------------------------------------
; 340 | gBitsLeft--;                                                           
;----------------------------------------------------------------------
        LDR       A2, $C$CON16          ; [DPU_3_PIPE] |340| 
        LDRB      A1, [A2, #0]          ; [DPU_3_PIPE] |340| 
        SUBS      A1, A1, #1            ; [DPU_3_PIPE] |340| 
        STRB      A1, [A2, #0]          ; [DPU_3_PIPE] |340| 
	.dwpsn	file "../picojpeg.c",line 341,column 4,is_stmt,isa 1
;----------------------------------------------------------------------
; 341 | gBitBuf <<= 1;                                                         
;----------------------------------------------------------------------
        LDR       A2, $C$CON15          ; [DPU_3_PIPE] |341| 
        LDRH      A1, [A2, #0]          ; [DPU_3_PIPE] |341| 
        LSLS      A1, A1, #1            ; [DPU_3_PIPE] |341| 
        STRH      A1, [A2, #0]          ; [DPU_3_PIPE] |341| 
	.dwpsn	file "../picojpeg.c",line 343,column 4,is_stmt,isa 1
;----------------------------------------------------------------------
; 343 | return ret;                                                            
;----------------------------------------------------------------------
        LDRB      A1, [SP, #0]          ; [DPU_3_PIPE] |343| 
	.dwpsn	file "../picojpeg.c",line 344,column 1,is_stmt,isa 1
$C$DW$114	.dwtag  DW_TAG_TI_branch
	.dwattr $C$DW$114, DW_AT_low_pc(0x00)
	.dwattr $C$DW$114, DW_AT_TI_return

        POP       {A3, A4, V1, PC}      ; [DPU_3_PIPE] 
	.dwcfi	cfa_offset, 0
	.dwcfi	restore_reg, 4
	.dwcfi	restore_reg, 3
	.dwcfi	restore_reg, 2
        ; BRANCH OCCURS                  ; [] 
	.dwattr $C$DW$111, DW_AT_TI_end_file("../picojpeg.c")
	.dwattr $C$DW$111, DW_AT_TI_end_line(0x158)
	.dwattr $C$DW$111, DW_AT_TI_end_column(0x01)
	.dwendentry
	.dwendtag $C$DW$111

	.sect	".text"
	.clink
	.thumbfunc getExtendTest
	.thumb

$C$DW$115	.dwtag  DW_TAG_subprogram
	.dwattr $C$DW$115, DW_AT_name("getExtendTest")
	.dwattr $C$DW$115, DW_AT_low_pc(getExtendTest)
	.dwattr $C$DW$115, DW_AT_high_pc(0x00)
	.dwattr $C$DW$115, DW_AT_TI_symbol_name("getExtendTest")
	.dwattr $C$DW$115, DW_AT_type(*$C$DW$T$23)
	.dwattr $C$DW$115, DW_AT_TI_begin_file("../picojpeg.c")
	.dwattr $C$DW$115, DW_AT_TI_begin_line(0x15a)
	.dwattr $C$DW$115, DW_AT_TI_begin_column(0x0f)
	.dwattr $C$DW$115, DW_AT_decl_file("../picojpeg.c")
	.dwattr $C$DW$115, DW_AT_decl_line(0x15a)
	.dwattr $C$DW$115, DW_AT_decl_column(0x0f)
	.dwattr $C$DW$115, DW_AT_TI_max_frame_size(0x08)
	.dwpsn	file "../picojpeg.c",line 347,column 1,is_stmt,address getExtendTest,isa 1

	.dwfde $C$DW$CIE, getExtendTest
$C$DW$116	.dwtag  DW_TAG_formal_parameter
	.dwattr $C$DW$116, DW_AT_name("i")
	.dwattr $C$DW$116, DW_AT_TI_symbol_name("i")
	.dwattr $C$DW$116, DW_AT_type(*$C$DW$T$25)
	.dwattr $C$DW$116, DW_AT_location[DW_OP_reg0]

;----------------------------------------------------------------------
; 346 | static uint16 getExtendTest(uint8 i)                                   
;----------------------------------------------------------------------

;*****************************************************************************
;* FUNCTION NAME: getExtendTest                                              *
;*                                                                           *
;*   Regs Modified     : A1,A2,SP,SR                                         *
;*   Regs Used         : A1,A2,SP,LR,SR                                      *
;*   Local Frame Size  : 0 Args + 4 Auto + 0 Save = 4 byte                   *
;*****************************************************************************
getExtendTest:
;* --------------------------------------------------------------------------*
	.dwcfi	cfa_offset, 0
        SUB       SP, SP, #8            ; [DPU_3_PIPE] 
	.dwcfi	cfa_offset, 8
$C$DW$117	.dwtag  DW_TAG_variable
	.dwattr $C$DW$117, DW_AT_name("i")
	.dwattr $C$DW$117, DW_AT_TI_symbol_name("i")
	.dwattr $C$DW$117, DW_AT_type(*$C$DW$T$25)
	.dwattr $C$DW$117, DW_AT_location[DW_OP_breg13 0]

        STRB      A1, [SP, #0]          ; [DPU_3_PIPE] |347| 
	.dwpsn	file "../picojpeg.c",line 348,column 4,is_stmt,isa 1
;----------------------------------------------------------------------
; 348 | switch (i)                                                             
;----------------------------------------------------------------------
        B         ||$C$L51||            ; [DPU_3_PIPE] |348| 
        ; BRANCH OCCURS {||$C$L51||}     ; [] |348| 
;* --------------------------------------------------------------------------*
||$C$L34||:    
	.dwpsn	file "../picojpeg.c",line 350,column 15,is_stmt,isa 1
;----------------------------------------------------------------------
; 350 | case 0: return 0;                                                      
;----------------------------------------------------------------------
        MOVS      A1, #0                ; [DPU_3_PIPE] |350| 
        B         ||$C$L52||            ; [DPU_3_PIPE] |350| 
        ; BRANCH OCCURS {||$C$L52||}     ; [] |350| 
;* --------------------------------------------------------------------------*
||$C$L35||:    
	.dwpsn	file "../picojpeg.c",line 351,column 15,is_stmt,isa 1
;----------------------------------------------------------------------
; 351 | case 1: return 0x0001;                                                 
;----------------------------------------------------------------------
        MOVS      A1, #1                ; [DPU_3_PIPE] |351| 
        B         ||$C$L52||            ; [DPU_3_PIPE] |351| 
        ; BRANCH OCCURS {||$C$L52||}     ; [] |351| 
;* --------------------------------------------------------------------------*
||$C$L36||:    
	.dwpsn	file "../picojpeg.c",line 352,column 15,is_stmt,isa 1
;----------------------------------------------------------------------
; 352 | case 2: return 0x0002;                                                 
;----------------------------------------------------------------------
        MOVS      A1, #2                ; [DPU_3_PIPE] |352| 
        B         ||$C$L52||            ; [DPU_3_PIPE] |352| 
        ; BRANCH OCCURS {||$C$L52||}     ; [] |352| 
;* --------------------------------------------------------------------------*
||$C$L37||:    
	.dwpsn	file "../picojpeg.c",line 353,column 15,is_stmt,isa 1
;----------------------------------------------------------------------
; 353 | case 3: return 0x0004;                                                 
;----------------------------------------------------------------------
        MOVS      A1, #4                ; [DPU_3_PIPE] |353| 
        B         ||$C$L52||            ; [DPU_3_PIPE] |353| 
        ; BRANCH OCCURS {||$C$L52||}     ; [] |353| 
;* --------------------------------------------------------------------------*
||$C$L38||:    
	.dwpsn	file "../picojpeg.c",line 354,column 15,is_stmt,isa 1
;----------------------------------------------------------------------
; 354 | case 4: return 0x0008;                                                 
;----------------------------------------------------------------------
        MOVS      A1, #8                ; [DPU_3_PIPE] |354| 
        B         ||$C$L52||            ; [DPU_3_PIPE] |354| 
        ; BRANCH OCCURS {||$C$L52||}     ; [] |354| 
;* --------------------------------------------------------------------------*
||$C$L39||:    
	.dwpsn	file "../picojpeg.c",line 355,column 15,is_stmt,isa 1
;----------------------------------------------------------------------
; 355 | case 5: return 0x0010;                                                 
;----------------------------------------------------------------------
        MOVS      A1, #16               ; [DPU_3_PIPE] |355| 
        B         ||$C$L52||            ; [DPU_3_PIPE] |355| 
        ; BRANCH OCCURS {||$C$L52||}     ; [] |355| 
;* --------------------------------------------------------------------------*
||$C$L40||:    
	.dwpsn	file "../picojpeg.c",line 356,column 15,is_stmt,isa 1
;----------------------------------------------------------------------
; 356 | case 6: return 0x0020;                                                 
;----------------------------------------------------------------------
        MOVS      A1, #32               ; [DPU_3_PIPE] |356| 
        B         ||$C$L52||            ; [DPU_3_PIPE] |356| 
        ; BRANCH OCCURS {||$C$L52||}     ; [] |356| 
;* --------------------------------------------------------------------------*
||$C$L41||:    
	.dwpsn	file "../picojpeg.c",line 357,column 15,is_stmt,isa 1
;----------------------------------------------------------------------
; 357 | case 7: return 0x0040;                                                 
;----------------------------------------------------------------------
        MOVS      A1, #64               ; [DPU_3_PIPE] |357| 
        B         ||$C$L52||            ; [DPU_3_PIPE] |357| 
        ; BRANCH OCCURS {||$C$L52||}     ; [] |357| 
;* --------------------------------------------------------------------------*
||$C$L42||:    
	.dwpsn	file "../picojpeg.c",line 358,column 16,is_stmt,isa 1
;----------------------------------------------------------------------
; 358 | case 8:  return 0x0080;                                                
;----------------------------------------------------------------------
        MOVS      A1, #128              ; [DPU_3_PIPE] |358| 
        B         ||$C$L52||            ; [DPU_3_PIPE] |358| 
        ; BRANCH OCCURS {||$C$L52||}     ; [] |358| 
;* --------------------------------------------------------------------------*
||$C$L43||:    
	.dwpsn	file "../picojpeg.c",line 359,column 16,is_stmt,isa 1
;----------------------------------------------------------------------
; 359 | case 9:  return 0x0100;                                                
;----------------------------------------------------------------------
        MOV       A1, #256              ; [DPU_3_PIPE] |359| 
        B         ||$C$L52||            ; [DPU_3_PIPE] |359| 
        ; BRANCH OCCURS {||$C$L52||}     ; [] |359| 
;* --------------------------------------------------------------------------*
||$C$L44||:    
	.dwpsn	file "../picojpeg.c",line 360,column 16,is_stmt,isa 1
;----------------------------------------------------------------------
; 360 | case 10: return 0x0200;                                                
;----------------------------------------------------------------------
        MOV       A1, #512              ; [DPU_3_PIPE] |360| 
        B         ||$C$L52||            ; [DPU_3_PIPE] |360| 
        ; BRANCH OCCURS {||$C$L52||}     ; [] |360| 
;* --------------------------------------------------------------------------*
||$C$L45||:    
	.dwpsn	file "../picojpeg.c",line 361,column 16,is_stmt,isa 1
;----------------------------------------------------------------------
; 361 | case 11: return 0x0400;                                                
;----------------------------------------------------------------------
        MOV       A1, #1024             ; [DPU_3_PIPE] |361| 
        B         ||$C$L52||            ; [DPU_3_PIPE] |361| 
        ; BRANCH OCCURS {||$C$L52||}     ; [] |361| 
;* --------------------------------------------------------------------------*
||$C$L46||:    
	.dwpsn	file "../picojpeg.c",line 362,column 16,is_stmt,isa 1
;----------------------------------------------------------------------
; 362 | case 12: return 0x0800;                                                
;----------------------------------------------------------------------
        MOV       A1, #2048             ; [DPU_3_PIPE] |362| 
        B         ||$C$L52||            ; [DPU_3_PIPE] |362| 
        ; BRANCH OCCURS {||$C$L52||}     ; [] |362| 
;* --------------------------------------------------------------------------*
||$C$L47||:    
	.dwpsn	file "../picojpeg.c",line 363,column 16,is_stmt,isa 1
;----------------------------------------------------------------------
; 363 | case 13: return 0x1000;                                                
;----------------------------------------------------------------------
        MOV       A1, #4096             ; [DPU_3_PIPE] |363| 
        B         ||$C$L52||            ; [DPU_3_PIPE] |363| 
        ; BRANCH OCCURS {||$C$L52||}     ; [] |363| 
;* --------------------------------------------------------------------------*
||$C$L48||:    
	.dwpsn	file "../picojpeg.c",line 364,column 16,is_stmt,isa 1
;----------------------------------------------------------------------
; 364 | case 14: return 0x2000;                                                
;----------------------------------------------------------------------
        MOV       A1, #8192             ; [DPU_3_PIPE] |364| 
        B         ||$C$L52||            ; [DPU_3_PIPE] |364| 
        ; BRANCH OCCURS {||$C$L52||}     ; [] |364| 
;* --------------------------------------------------------------------------*
||$C$L49||:    
	.dwpsn	file "../picojpeg.c",line 365,column 16,is_stmt,isa 1
;----------------------------------------------------------------------
; 365 | case 15: return 0x4000;                                                
;----------------------------------------------------------------------
        MOV       A1, #16384            ; [DPU_3_PIPE] |365| 
        B         ||$C$L52||            ; [DPU_3_PIPE] |365| 
        ; BRANCH OCCURS {||$C$L52||}     ; [] |365| 
;* --------------------------------------------------------------------------*
||$C$L50||:    
	.dwpsn	file "../picojpeg.c",line 366,column 16,is_stmt,isa 1
;----------------------------------------------------------------------
; 366 | default: return 0;                                                     
;----------------------------------------------------------------------
        MOVS      A1, #0                ; [DPU_3_PIPE] |366| 
        B         ||$C$L52||            ; [DPU_3_PIPE] |366| 
        ; BRANCH OCCURS {||$C$L52||}     ; [] |366| 
;* --------------------------------------------------------------------------*
;* --------------------------------------------------------------------------*
||$C$L51||:    
	.dwpsn	file "../picojpeg.c",line 348,column 4,is_stmt,isa 1
        LDRB      A1, [SP, #0]          ; [DPU_3_PIPE] |348| 
        CMP       A1, #15               ; [DPU_3_PIPE] |348| 
        BHI       ||$C$L50||            ; [DPU_3_PIPE] |348| 
        ; BRANCHCC OCCURS {||$C$L50||}   ; [] |348| 
;* --------------------------------------------------------------------------*
        ADR       A2, ||$C$SW3||        ; [DPU_3_PIPE] |348| 
        LDR       A1, [A2, +A1, LSL #2] ; [DPU_3_PIPE] |348| 
        MOV       PC, A1                ; [DPU_3_PIPE] |348| 
        ; BRANCH OCCURS                  ; [] |348| 
||$C$SW3||:	.word	||$C$L34||	; 0
	.word	||$C$L35||	; 1
	.word	||$C$L36||	; 2
	.word	||$C$L37||	; 3
	.word	||$C$L38||	; 4
	.word	||$C$L39||	; 5
	.word	||$C$L40||	; 6
	.word	||$C$L41||	; 7
	.word	||$C$L42||	; 8
	.word	||$C$L43||	; 9
	.word	||$C$L44||	; 10
	.word	||$C$L45||	; 11
	.word	||$C$L46||	; 12
	.word	||$C$L47||	; 13
	.word	||$C$L48||	; 14
	.word	||$C$L49||	; 15
;* --------------------------------------------------------------------------*
||$C$L52||:    
	.dwpsn	file "../picojpeg.c",line 368,column 1,is_stmt,isa 1
        ADD       SP, SP, #8            ; [DPU_3_PIPE] 
	.dwcfi	cfa_offset, 0
$C$DW$118	.dwtag  DW_TAG_TI_branch
	.dwattr $C$DW$118, DW_AT_low_pc(0x00)
	.dwattr $C$DW$118, DW_AT_TI_return

        BX        LR                    ; [DPU_3_PIPE] 
        ; BRANCH OCCURS                  ; [] 
	.dwattr $C$DW$115, DW_AT_TI_end_file("../picojpeg.c")
	.dwattr $C$DW$115, DW_AT_TI_end_line(0x170)
	.dwattr $C$DW$115, DW_AT_TI_end_column(0x01)
	.dwendentry
	.dwendtag $C$DW$115

;******************************************************************************
;* CONSTANT TABLE                                                             *
;******************************************************************************
	.sect	".text"
	.align	4
||$C$CON8||:	.bits	gInBufOfs,32
	.align	4
||$C$CON9||:	.bits	gInBufLeft,32
	.align	4
||$C$CON10||:	.bits	gInBuf,32
	.align	4
||$C$CON11||:	.bits	g_pCallback_data,32
	.align	4
||$C$CON12||:	.bits	g_pNeedBytesCallback,32
	.align	4
||$C$CON13||:	.bits	gCallbackStatus,32
	.align	4
||$C$CON14||:	.bits	gTemFlag,32
	.sect	".text"
	.clink
	.thumbfunc getExtendOffset
	.thumb

$C$DW$119	.dwtag  DW_TAG_subprogram
	.dwattr $C$DW$119, DW_AT_name("getExtendOffset")
	.dwattr $C$DW$119, DW_AT_low_pc(getExtendOffset)
	.dwattr $C$DW$119, DW_AT_high_pc(0x00)
	.dwattr $C$DW$119, DW_AT_TI_symbol_name("getExtendOffset")
	.dwattr $C$DW$119, DW_AT_type(*$C$DW$T$48)
	.dwattr $C$DW$119, DW_AT_TI_begin_file("../picojpeg.c")
	.dwattr $C$DW$119, DW_AT_TI_begin_line(0x172)
	.dwattr $C$DW$119, DW_AT_TI_begin_column(0x0e)
	.dwattr $C$DW$119, DW_AT_decl_file("../picojpeg.c")
	.dwattr $C$DW$119, DW_AT_decl_line(0x172)
	.dwattr $C$DW$119, DW_AT_decl_column(0x0e)
	.dwattr $C$DW$119, DW_AT_TI_max_frame_size(0x08)
	.dwpsn	file "../picojpeg.c",line 371,column 1,is_stmt,address getExtendOffset,isa 1

	.dwfde $C$DW$CIE, getExtendOffset
$C$DW$120	.dwtag  DW_TAG_formal_parameter
	.dwattr $C$DW$120, DW_AT_name("i")
	.dwattr $C$DW$120, DW_AT_TI_symbol_name("i")
	.dwattr $C$DW$120, DW_AT_type(*$C$DW$T$25)
	.dwattr $C$DW$120, DW_AT_location[DW_OP_reg0]

;----------------------------------------------------------------------
; 370 | static int16 getExtendOffset(uint8 i)                                  
;----------------------------------------------------------------------

;*****************************************************************************
;* FUNCTION NAME: getExtendOffset                                            *
;*                                                                           *
;*   Regs Modified     : A1,A2,SP,SR                                         *
;*   Regs Used         : A1,A2,SP,LR,SR                                      *
;*   Local Frame Size  : 0 Args + 4 Auto + 0 Save = 4 byte                   *
;*****************************************************************************
getExtendOffset:
;* --------------------------------------------------------------------------*
	.dwcfi	cfa_offset, 0
        SUB       SP, SP, #8            ; [DPU_3_PIPE] 
	.dwcfi	cfa_offset, 8
$C$DW$121	.dwtag  DW_TAG_variable
	.dwattr $C$DW$121, DW_AT_name("i")
	.dwattr $C$DW$121, DW_AT_TI_symbol_name("i")
	.dwattr $C$DW$121, DW_AT_type(*$C$DW$T$25)
	.dwattr $C$DW$121, DW_AT_location[DW_OP_breg13 0]

        STRB      A1, [SP, #0]          ; [DPU_3_PIPE] |371| 
	.dwpsn	file "../picojpeg.c",line 372,column 4,is_stmt,isa 1
;----------------------------------------------------------------------
; 372 | switch (i)                                                             
;----------------------------------------------------------------------
        B         ||$C$L70||            ; [DPU_3_PIPE] |372| 
        ; BRANCH OCCURS {||$C$L70||}     ; [] |372| 
;* --------------------------------------------------------------------------*
||$C$L53||:    
	.dwpsn	file "../picojpeg.c",line 374,column 15,is_stmt,isa 1
;----------------------------------------------------------------------
; 374 | case 0: return 0;                                                      
;----------------------------------------------------------------------
        MOVS      A1, #0                ; [DPU_3_PIPE] |374| 
        B         ||$C$L71||            ; [DPU_3_PIPE] |374| 
        ; BRANCH OCCURS {||$C$L71||}     ; [] |374| 
;* --------------------------------------------------------------------------*
||$C$L54||:    
	.dwpsn	file "../picojpeg.c",line 375,column 15,is_stmt,isa 1
;----------------------------------------------------------------------
; 375 | case 1: return ((-1)<<1) + 1;                                          
;----------------------------------------------------------------------
        MOV       A1, #-1               ; [DPU_3_PIPE] |375| 
        B         ||$C$L71||            ; [DPU_3_PIPE] |375| 
        ; BRANCH OCCURS {||$C$L71||}     ; [] |375| 
;* --------------------------------------------------------------------------*
||$C$L55||:    
	.dwpsn	file "../picojpeg.c",line 376,column 15,is_stmt,isa 1
;----------------------------------------------------------------------
; 376 | case 2: return ((-1)<<2) + 1;                                          
;----------------------------------------------------------------------
        MVN       A1, #2                ; [DPU_3_PIPE] |376| 
        B         ||$C$L71||            ; [DPU_3_PIPE] |376| 
        ; BRANCH OCCURS {||$C$L71||}     ; [] |376| 
;* --------------------------------------------------------------------------*
||$C$L56||:    
	.dwpsn	file "../picojpeg.c",line 377,column 15,is_stmt,isa 1
;----------------------------------------------------------------------
; 377 | case 3: return ((-1)<<3) + 1;                                          
;----------------------------------------------------------------------
        MVN       A1, #6                ; [DPU_3_PIPE] |377| 
        B         ||$C$L71||            ; [DPU_3_PIPE] |377| 
        ; BRANCH OCCURS {||$C$L71||}     ; [] |377| 
;* --------------------------------------------------------------------------*
||$C$L57||:    
	.dwpsn	file "../picojpeg.c",line 378,column 15,is_stmt,isa 1
;----------------------------------------------------------------------
; 378 | case 4: return ((-1)<<4) + 1;                                          
;----------------------------------------------------------------------
        MVN       A1, #14               ; [DPU_3_PIPE] |378| 
        B         ||$C$L71||            ; [DPU_3_PIPE] |378| 
        ; BRANCH OCCURS {||$C$L71||}     ; [] |378| 
;* --------------------------------------------------------------------------*
||$C$L58||:    
	.dwpsn	file "../picojpeg.c",line 379,column 15,is_stmt,isa 1
;----------------------------------------------------------------------
; 379 | case 5: return ((-1)<<5) + 1;                                          
;----------------------------------------------------------------------
        MVN       A1, #30               ; [DPU_3_PIPE] |379| 
        B         ||$C$L71||            ; [DPU_3_PIPE] |379| 
        ; BRANCH OCCURS {||$C$L71||}     ; [] |379| 
;* --------------------------------------------------------------------------*
||$C$L59||:    
	.dwpsn	file "../picojpeg.c",line 380,column 15,is_stmt,isa 1
;----------------------------------------------------------------------
; 380 | case 6: return ((-1)<<6) + 1;                                          
;----------------------------------------------------------------------
        MVN       A1, #62               ; [DPU_3_PIPE] |380| 
        B         ||$C$L71||            ; [DPU_3_PIPE] |380| 
        ; BRANCH OCCURS {||$C$L71||}     ; [] |380| 
;* --------------------------------------------------------------------------*
||$C$L60||:    
	.dwpsn	file "../picojpeg.c",line 381,column 15,is_stmt,isa 1
;----------------------------------------------------------------------
; 381 | case 7: return ((-1)<<7) + 1;                                          
;----------------------------------------------------------------------
        MVN       A1, #126              ; [DPU_3_PIPE] |381| 
        B         ||$C$L71||            ; [DPU_3_PIPE] |381| 
        ; BRANCH OCCURS {||$C$L71||}     ; [] |381| 
;* --------------------------------------------------------------------------*
||$C$L61||:    
	.dwpsn	file "../picojpeg.c",line 382,column 15,is_stmt,isa 1
;----------------------------------------------------------------------
; 382 | case 8: return ((-1)<<8) + 1;                                          
;----------------------------------------------------------------------
        MVN       A1, #254              ; [DPU_3_PIPE] |382| 
        B         ||$C$L71||            ; [DPU_3_PIPE] |382| 
        ; BRANCH OCCURS {||$C$L71||}     ; [] |382| 
;* --------------------------------------------------------------------------*
||$C$L62||:    
	.dwpsn	file "../picojpeg.c",line 383,column 15,is_stmt,isa 1
;----------------------------------------------------------------------
; 383 | case 9: return ((-1)<<9) + 1;                                          
;----------------------------------------------------------------------
        MVN       A1, #510              ; [DPU_3_PIPE] |383| 
        B         ||$C$L71||            ; [DPU_3_PIPE] |383| 
        ; BRANCH OCCURS {||$C$L71||}     ; [] |383| 
;* --------------------------------------------------------------------------*
||$C$L63||:    
	.dwpsn	file "../picojpeg.c",line 384,column 16,is_stmt,isa 1
;----------------------------------------------------------------------
; 384 | case 10: return ((-1)<<10) + 1;                                        
;----------------------------------------------------------------------
        LDR       A1, $C$CON17          ; [DPU_3_PIPE] |384| 
        B         ||$C$L71||            ; [DPU_3_PIPE] |384| 
        ; BRANCH OCCURS {||$C$L71||}     ; [] |384| 
;* --------------------------------------------------------------------------*
||$C$L64||:    
	.dwpsn	file "../picojpeg.c",line 385,column 16,is_stmt,isa 1
;----------------------------------------------------------------------
; 385 | case 11: return ((-1)<<11) + 1;                                        
;----------------------------------------------------------------------
        LDR       A1, $C$CON18          ; [DPU_3_PIPE] |385| 
        B         ||$C$L71||            ; [DPU_3_PIPE] |385| 
        ; BRANCH OCCURS {||$C$L71||}     ; [] |385| 
;* --------------------------------------------------------------------------*
||$C$L65||:    
	.dwpsn	file "../picojpeg.c",line 386,column 16,is_stmt,isa 1
;----------------------------------------------------------------------
; 386 | case 12: return ((-1)<<12) + 1;                                        
;----------------------------------------------------------------------
        LDR       A1, $C$CON19          ; [DPU_3_PIPE] |386| 
        B         ||$C$L71||            ; [DPU_3_PIPE] |386| 
        ; BRANCH OCCURS {||$C$L71||}     ; [] |386| 
;* --------------------------------------------------------------------------*
||$C$L66||:    
	.dwpsn	file "../picojpeg.c",line 387,column 16,is_stmt,isa 1
;----------------------------------------------------------------------
; 387 | case 13: return ((-1)<<13) + 1;                                        
;----------------------------------------------------------------------
        LDR       A1, $C$CON20          ; [DPU_3_PIPE] |387| 
        B         ||$C$L71||            ; [DPU_3_PIPE] |387| 
        ; BRANCH OCCURS {||$C$L71||}     ; [] |387| 
;* --------------------------------------------------------------------------*
||$C$L67||:    
	.dwpsn	file "../picojpeg.c",line 388,column 16,is_stmt,isa 1
;----------------------------------------------------------------------
; 388 | case 14: return ((-1)<<14) + 1;                                        
;----------------------------------------------------------------------
        LDR       A1, $C$CON21          ; [DPU_3_PIPE] |388| 
        B         ||$C$L71||            ; [DPU_3_PIPE] |388| 
        ; BRANCH OCCURS {||$C$L71||}     ; [] |388| 
;* --------------------------------------------------------------------------*
||$C$L68||:    
	.dwpsn	file "../picojpeg.c",line 389,column 16,is_stmt,isa 1
;----------------------------------------------------------------------
; 389 | case 15: return ((-1)<<15) + 1;                                        
;----------------------------------------------------------------------
        LDR       A1, $C$CON22          ; [DPU_3_PIPE] |389| 
        B         ||$C$L71||            ; [DPU_3_PIPE] |389| 
        ; BRANCH OCCURS {||$C$L71||}     ; [] |389| 
;* --------------------------------------------------------------------------*
||$C$L69||:    
	.dwpsn	file "../picojpeg.c",line 390,column 16,is_stmt,isa 1
;----------------------------------------------------------------------
; 390 | default: return 0;                                                     
;----------------------------------------------------------------------
        MOVS      A1, #0                ; [DPU_3_PIPE] |390| 
        B         ||$C$L71||            ; [DPU_3_PIPE] |390| 
        ; BRANCH OCCURS {||$C$L71||}     ; [] |390| 
;* --------------------------------------------------------------------------*
;* --------------------------------------------------------------------------*
||$C$L70||:    
	.dwpsn	file "../picojpeg.c",line 372,column 4,is_stmt,isa 1
        LDRB      A1, [SP, #0]          ; [DPU_3_PIPE] |372| 
        CMP       A1, #15               ; [DPU_3_PIPE] |372| 
        BHI       ||$C$L69||            ; [DPU_3_PIPE] |372| 
        ; BRANCHCC OCCURS {||$C$L69||}   ; [] |372| 
;* --------------------------------------------------------------------------*
        ADR       A2, ||$C$SW5||        ; [DPU_3_PIPE] |372| 
        LDR       A1, [A2, +A1, LSL #2] ; [DPU_3_PIPE] |372| 
        MOV       PC, A1                ; [DPU_3_PIPE] |372| 
        ; BRANCH OCCURS                  ; [] |372| 
||$C$SW5||:	.word	||$C$L53||	; 0
	.word	||$C$L54||	; 1
	.word	||$C$L55||	; 2
	.word	||$C$L56||	; 3
	.word	||$C$L57||	; 4
	.word	||$C$L58||	; 5
	.word	||$C$L59||	; 6
	.word	||$C$L60||	; 7
	.word	||$C$L61||	; 8
	.word	||$C$L62||	; 9
	.word	||$C$L63||	; 10
	.word	||$C$L64||	; 11
	.word	||$C$L65||	; 12
	.word	||$C$L66||	; 13
	.word	||$C$L67||	; 14
	.word	||$C$L68||	; 15
;* --------------------------------------------------------------------------*
||$C$L71||:    
	.dwpsn	file "../picojpeg.c",line 392,column 1,is_stmt,isa 1
;----------------------------------------------------------------------
; 392 | };                                                                     
;----------------------------------------------------------------------
        ADD       SP, SP, #8            ; [DPU_3_PIPE] 
	.dwcfi	cfa_offset, 0
$C$DW$122	.dwtag  DW_TAG_TI_branch
	.dwattr $C$DW$122, DW_AT_low_pc(0x00)
	.dwattr $C$DW$122, DW_AT_TI_return

        BX        LR                    ; [DPU_3_PIPE] 
        ; BRANCH OCCURS                  ; [] 
	.dwattr $C$DW$119, DW_AT_TI_end_file("../picojpeg.c")
	.dwattr $C$DW$119, DW_AT_TI_end_line(0x188)
	.dwattr $C$DW$119, DW_AT_TI_end_column(0x01)
	.dwendentry
	.dwendtag $C$DW$119

	.sect	".text"
	.clink
	.thumbfunc huffExtend
	.thumb

$C$DW$123	.dwtag  DW_TAG_subprogram
	.dwattr $C$DW$123, DW_AT_name("huffExtend")
	.dwattr $C$DW$123, DW_AT_low_pc(huffExtend)
	.dwattr $C$DW$123, DW_AT_high_pc(0x00)
	.dwattr $C$DW$123, DW_AT_TI_symbol_name("huffExtend")
	.dwattr $C$DW$123, DW_AT_type(*$C$DW$T$48)
	.dwattr $C$DW$123, DW_AT_TI_begin_file("../picojpeg.c")
	.dwattr $C$DW$123, DW_AT_TI_begin_line(0x18a)
	.dwattr $C$DW$123, DW_AT_TI_begin_column(0x1a)
	.dwattr $C$DW$123, DW_AT_decl_file("../picojpeg.c")
	.dwattr $C$DW$123, DW_AT_decl_line(0x18a)
	.dwattr $C$DW$123, DW_AT_decl_column(0x1a)
	.dwattr $C$DW$123, DW_AT_TI_max_frame_size(0x08)
	.dwpsn	file "../picojpeg.c",line 395,column 1,is_stmt,address huffExtend,isa 1

	.dwfde $C$DW$CIE, huffExtend
$C$DW$124	.dwtag  DW_TAG_formal_parameter
	.dwattr $C$DW$124, DW_AT_name("x")
	.dwattr $C$DW$124, DW_AT_TI_symbol_name("x")
	.dwattr $C$DW$124, DW_AT_type(*$C$DW$T$23)
	.dwattr $C$DW$124, DW_AT_location[DW_OP_reg0]

$C$DW$125	.dwtag  DW_TAG_formal_parameter
	.dwattr $C$DW$125, DW_AT_name("s")
	.dwattr $C$DW$125, DW_AT_TI_symbol_name("s")
	.dwattr $C$DW$125, DW_AT_type(*$C$DW$T$25)
	.dwattr $C$DW$125, DW_AT_location[DW_OP_reg1]

;----------------------------------------------------------------------
; 394 | static PJPG_INLINE int16 huffExtend(uint16 x, uint8 s)                 
;----------------------------------------------------------------------

;*****************************************************************************
;* FUNCTION NAME: huffExtend                                                 *
;*                                                                           *
;*   Regs Modified     : A1,A2,A4,SP,LR,SR,FPEXC,FPSCR                       *
;*   Regs Used         : A1,A2,A4,SP,LR,SR,FPEXC,FPSCR                       *
;*   Local Frame Size  : 0 Args + 4 Auto + 4 Save = 8 byte                   *
;*****************************************************************************
huffExtend:
;* --------------------------------------------------------------------------*
	.dwcfi	cfa_offset, 0
        PUSH      {A4, LR}              ; [DPU_3_PIPE] 
	.dwcfi	cfa_offset, 8
	.dwcfi	save_reg_to_mem, 14, -4
	.dwcfi	save_reg_to_mem, 3, -8
$C$DW$126	.dwtag  DW_TAG_variable
	.dwattr $C$DW$126, DW_AT_name("x")
	.dwattr $C$DW$126, DW_AT_TI_symbol_name("x")
	.dwattr $C$DW$126, DW_AT_type(*$C$DW$T$23)
	.dwattr $C$DW$126, DW_AT_location[DW_OP_breg13 0]

$C$DW$127	.dwtag  DW_TAG_variable
	.dwattr $C$DW$127, DW_AT_name("s")
	.dwattr $C$DW$127, DW_AT_TI_symbol_name("s")
	.dwattr $C$DW$127, DW_AT_type(*$C$DW$T$25)
	.dwattr $C$DW$127, DW_AT_location[DW_OP_breg13 2]

        STRB      A2, [SP, #2]          ; [DPU_3_PIPE] |395| 
        STRH      A1, [SP, #0]          ; [DPU_3_PIPE] |395| 
	.dwpsn	file "../picojpeg.c",line 396,column 4,is_stmt,isa 1
;----------------------------------------------------------------------
; 396 | return ((x < getExtendTest(s)) ? ((int16)x + getExtendOffset(s)) : (int
;     | 16)x);                                                                 
;----------------------------------------------------------------------
        LDRB      A1, [SP, #2]          ; [DPU_3_PIPE] |396| 
$C$DW$128	.dwtag  DW_TAG_TI_branch
	.dwattr $C$DW$128, DW_AT_low_pc(0x00)
	.dwattr $C$DW$128, DW_AT_name("getExtendTest")
	.dwattr $C$DW$128, DW_AT_TI_call

        BL        getExtendTest         ; [DPU_3_PIPE] |396| 
        ; CALL OCCURS {getExtendTest }   ; [] |396| 
        LDRH      A2, [SP, #0]          ; [DPU_3_PIPE] |396| 
        CMP       A1, A2                ; [DPU_3_PIPE] |396| 
        BLE       ||$C$L72||            ; [DPU_3_PIPE] |396| 
        ; BRANCHCC OCCURS {||$C$L72||}   ; [] |396| 
;* --------------------------------------------------------------------------*
        LDRB      A1, [SP, #2]          ; [DPU_3_PIPE] |396| 
$C$DW$129	.dwtag  DW_TAG_TI_branch
	.dwattr $C$DW$129, DW_AT_low_pc(0x00)
	.dwattr $C$DW$129, DW_AT_name("getExtendOffset")
	.dwattr $C$DW$129, DW_AT_TI_call

        BL        getExtendOffset       ; [DPU_3_PIPE] |396| 
        ; CALL OCCURS {getExtendOffset }  ; [] |396| 
        LDRSH     A2, [SP, #0]          ; [DPU_3_PIPE] |396| 
        ADDS      A1, A2, A1            ; [DPU_3_PIPE] |396| 
        B         ||$C$L73||            ; [DPU_3_PIPE] |396| 
        ; BRANCH OCCURS {||$C$L73||}     ; [] |396| 
;* --------------------------------------------------------------------------*
||$C$L72||:    
        LDRSH     A1, [SP, #0]          ; [DPU_3_PIPE] |396| 
;* --------------------------------------------------------------------------*
||$C$L73||:    
        SXTH      A1, A1                ; [DPU_3_PIPE] |396| 
	.dwpsn	file "../picojpeg.c",line 397,column 1,is_stmt,isa 1
$C$DW$130	.dwtag  DW_TAG_TI_branch
	.dwattr $C$DW$130, DW_AT_low_pc(0x00)
	.dwattr $C$DW$130, DW_AT_TI_return

        POP       {A4, PC}              ; [DPU_3_PIPE] 
	.dwcfi	cfa_offset, 0
	.dwcfi	restore_reg, 3
        ; BRANCH OCCURS                  ; [] 
	.dwattr $C$DW$123, DW_AT_TI_end_file("../picojpeg.c")
	.dwattr $C$DW$123, DW_AT_TI_end_line(0x18d)
	.dwattr $C$DW$123, DW_AT_TI_end_column(0x01)
	.dwendentry
	.dwendtag $C$DW$123

;******************************************************************************
;* CONSTANT TABLE                                                             *
;******************************************************************************
	.sect	".text"
	.align	4
||$C$CON15||:	.bits	gBitBuf,32
	.align	4
||$C$CON16||:	.bits	gBitsLeft,32
	.sect	".text"
	.clink
	.thumbfunc huffDecode
	.thumb

$C$DW$131	.dwtag  DW_TAG_subprogram
	.dwattr $C$DW$131, DW_AT_name("huffDecode")
	.dwattr $C$DW$131, DW_AT_low_pc(huffDecode)
	.dwattr $C$DW$131, DW_AT_high_pc(0x00)
	.dwattr $C$DW$131, DW_AT_TI_symbol_name("huffDecode")
	.dwattr $C$DW$131, DW_AT_type(*$C$DW$T$25)
	.dwattr $C$DW$131, DW_AT_TI_begin_file("../picojpeg.c")
	.dwattr $C$DW$131, DW_AT_TI_begin_line(0x18f)
	.dwattr $C$DW$131, DW_AT_TI_begin_column(0x1a)
	.dwattr $C$DW$131, DW_AT_decl_file("../picojpeg.c")
	.dwattr $C$DW$131, DW_AT_decl_line(0x18f)
	.dwattr $C$DW$131, DW_AT_decl_column(0x1a)
	.dwattr $C$DW$131, DW_AT_TI_max_frame_size(0x18)
	.dwpsn	file "../picojpeg.c",line 400,column 1,is_stmt,address huffDecode,isa 1

	.dwfde $C$DW$CIE, huffDecode
$C$DW$132	.dwtag  DW_TAG_formal_parameter
	.dwattr $C$DW$132, DW_AT_name("pHuffTable")
	.dwattr $C$DW$132, DW_AT_TI_symbol_name("pHuffTable")
	.dwattr $C$DW$132, DW_AT_type(*$C$DW$T$35)
	.dwattr $C$DW$132, DW_AT_location[DW_OP_reg0]

$C$DW$133	.dwtag  DW_TAG_formal_parameter
	.dwattr $C$DW$133, DW_AT_name("pHuffVal")
	.dwattr $C$DW$133, DW_AT_TI_symbol_name("pHuffVal")
	.dwattr $C$DW$133, DW_AT_type(*$C$DW$T$45)
	.dwattr $C$DW$133, DW_AT_location[DW_OP_reg1]

;----------------------------------------------------------------------
; 399 | static PJPG_INLINE uint8 huffDecode(const HuffTable* pHuffTable, const
;     | uint8* pHuffVal)                                                       
;----------------------------------------------------------------------

;*****************************************************************************
;* FUNCTION NAME: huffDecode                                                 *
;*                                                                           *
;*   Regs Modified     : A1,A2,A3,A4,V9,SP,LR,SR,D0,D0_hi,D1,D1_hi,D2,D2_hi, *
;*                           D3,D3_hi,D4,D4_hi,D5,D5_hi,D6,D6_hi,D7,D7_hi,   *
;*                           FPEXC,FPSCR                                     *
;*   Regs Used         : A1,A2,A3,A4,V9,SP,LR,SR,D0,D0_hi,D1,D1_hi,D2,D2_hi, *
;*                           D3,D3_hi,D4,D4_hi,D5,D5_hi,D6,D6_hi,D7,D7_hi,   *
;*                           FPEXC,FPSCR                                     *
;*   Local Frame Size  : 0 Args + 16 Auto + 4 Save = 20 byte                 *
;*****************************************************************************
huffDecode:
;* --------------------------------------------------------------------------*
	.dwcfi	cfa_offset, 0
        PUSH      {LR}                  ; [DPU_3_PIPE] 
	.dwcfi	cfa_offset, 4
	.dwcfi	save_reg_to_mem, 14, -4
        SUB       SP, SP, #20           ; [DPU_3_PIPE] 
	.dwcfi	cfa_offset, 24
$C$DW$134	.dwtag  DW_TAG_variable
	.dwattr $C$DW$134, DW_AT_name("pHuffTable")
	.dwattr $C$DW$134, DW_AT_TI_symbol_name("pHuffTable")
	.dwattr $C$DW$134, DW_AT_type(*$C$DW$T$35)
	.dwattr $C$DW$134, DW_AT_location[DW_OP_breg13 0]

$C$DW$135	.dwtag  DW_TAG_variable
	.dwattr $C$DW$135, DW_AT_name("pHuffVal")
	.dwattr $C$DW$135, DW_AT_TI_symbol_name("pHuffVal")
	.dwattr $C$DW$135, DW_AT_type(*$C$DW$T$45)
	.dwattr $C$DW$135, DW_AT_location[DW_OP_breg13 4]

$C$DW$136	.dwtag  DW_TAG_variable
	.dwattr $C$DW$136, DW_AT_name("code")
	.dwattr $C$DW$136, DW_AT_TI_symbol_name("code")
	.dwattr $C$DW$136, DW_AT_type(*$C$DW$T$23)
	.dwattr $C$DW$136, DW_AT_location[DW_OP_breg13 8]

$C$DW$137	.dwtag  DW_TAG_variable
	.dwattr $C$DW$137, DW_AT_name("i")
	.dwattr $C$DW$137, DW_AT_TI_symbol_name("i")
	.dwattr $C$DW$137, DW_AT_type(*$C$DW$T$25)
	.dwattr $C$DW$137, DW_AT_location[DW_OP_breg13 10]

$C$DW$138	.dwtag  DW_TAG_variable
	.dwattr $C$DW$138, DW_AT_name("j")
	.dwattr $C$DW$138, DW_AT_TI_symbol_name("j")
	.dwattr $C$DW$138, DW_AT_type(*$C$DW$T$25)
	.dwattr $C$DW$138, DW_AT_location[DW_OP_breg13 11]

        STR       A2, [SP, #4]          ; [DPU_3_PIPE] |400| 
        STR       A1, [SP, #0]          ; [DPU_3_PIPE] |400| 
	.dwpsn	file "../picojpeg.c",line 401,column 12,is_stmt,isa 1
;----------------------------------------------------------------------
; 401 | uint8 i = 0;                                                           
; 402 | uint8 j;                                                               
;----------------------------------------------------------------------
        MOVS      A1, #0                ; [DPU_3_PIPE] |401| 
        STRB      A1, [SP, #10]         ; [DPU_3_PIPE] |401| 
	.dwpsn	file "../picojpeg.c",line 403,column 16,is_stmt,isa 1
;----------------------------------------------------------------------
; 403 | uint16 code = getBit();                                                
; 405 | // This func only reads a bit at a time, which on modern CPU's is not t
;     | erribly efficient.                                                     
; 406 | // But on microcontrollers without strong integer shifting support this
;     |  seems like a                                                          
; 407 | // more reasonable approach.                                           
; 408 | for ( ; ; )                                                            
; 410 |    uint16 maxCode;                                                     
;----------------------------------------------------------------------
$C$DW$139	.dwtag  DW_TAG_TI_branch
	.dwattr $C$DW$139, DW_AT_low_pc(0x00)
	.dwattr $C$DW$139, DW_AT_name("getBit")
	.dwattr $C$DW$139, DW_AT_TI_call

        BL        getBit                ; [DPU_3_PIPE] |403| 
        ; CALL OCCURS {getBit }          ; [] |403| 
        STRH      A1, [SP, #8]          ; [DPU_3_PIPE] |403| 
;* --------------------------------------------------------------------------*
;*   BEGIN LOOP ||$C$L74||
;*
;*   Loop source line                : 408
;*   Loop closing brace source line  : 422
;*   Known Minimum Trip Count        : 1
;*   Known Maximum Trip Count        : 4294967295
;*   Known Max Trip Count Factor     : 1
;* --------------------------------------------------------------------------*
||$C$L74||:    

$C$DW$140	.dwtag  DW_TAG_lexical_block
	.dwattr $C$DW$140, DW_AT_low_pc(0x00)
	.dwattr $C$DW$140, DW_AT_high_pc(0x00)
$C$DW$141	.dwtag  DW_TAG_variable
	.dwattr $C$DW$141, DW_AT_name("maxCode")
	.dwattr $C$DW$141, DW_AT_TI_symbol_name("maxCode")
	.dwattr $C$DW$141, DW_AT_type(*$C$DW$T$23)
	.dwattr $C$DW$141, DW_AT_location[DW_OP_breg13 12]

	.dwpsn	file "../picojpeg.c",line 412,column 7,is_stmt,isa 1
;----------------------------------------------------------------------
; 412 | if (i == 16)                                                           
;----------------------------------------------------------------------
        LDRB      A1, [SP, #10]         ; [DPU_3_PIPE] |412| 
        CMP       A1, #16               ; [DPU_3_PIPE] |412| 
        BNE       ||$C$L75||            ; [DPU_3_PIPE] |412| 
        ; BRANCHCC OCCURS {||$C$L75||}   ; [] |412| 
;* --------------------------------------------------------------------------*
	.dwpsn	file "../picojpeg.c",line 413,column 10,is_stmt,isa 1
;----------------------------------------------------------------------
; 413 | return 0;                                                              
;----------------------------------------------------------------------
        MOVS      A1, #0                ; [DPU_3_PIPE] |413| 
        B         ||$C$L78||            ; [DPU_3_PIPE] |413| 
        ; BRANCH OCCURS {||$C$L78||}     ; [] |413| 
;* --------------------------------------------------------------------------*
||$C$L75||:    
	.dwpsn	file "../picojpeg.c",line 415,column 7,is_stmt,isa 1
;----------------------------------------------------------------------
; 415 | maxCode = pHuffTable->mMaxCode[i];                                     
;----------------------------------------------------------------------
        LDRB      A2, [SP, #10]         ; [DPU_3_PIPE] |415| 
        LDR       A1, [SP, #0]          ; [DPU_3_PIPE] |415| 
        ADD       A1, A1, A2, LSL #1    ; [DPU_3_PIPE] |415| 
        LDRH      A1, [A1, #32]         ; [DPU_3_PIPE] |415| 
        STRH      A1, [SP, #12]         ; [DPU_3_PIPE] |415| 
	.dwpsn	file "../picojpeg.c",line 416,column 7,is_stmt,isa 1
;----------------------------------------------------------------------
; 416 | if ((code <= maxCode) && (maxCode != 0xFFFF))                          
;----------------------------------------------------------------------
        LDRH      A2, [SP, #8]          ; [DPU_3_PIPE] |416| 
        LDRH      A1, [SP, #12]         ; [DPU_3_PIPE] |416| 
        CMP       A1, A2                ; [DPU_3_PIPE] |416| 
        BLT       ||$C$L76||            ; [DPU_3_PIPE] |416| 
        ; BRANCHCC OCCURS {||$C$L76||}   ; [] |416| 
;* --------------------------------------------------------------------------*
        LDRH      A1, [SP, #12]         ; [DPU_3_PIPE] |416| 
        MOV       A2, #65535            ; [DPU_3_PIPE] |416| 
        CMP       A2, A1                ; [DPU_3_PIPE] |416| 
        BNE       ||$C$L77||            ; [DPU_3_PIPE] |416| 
        ; BRANCHCC OCCURS {||$C$L77||}   ; [] |416| 
;* --------------------------------------------------------------------------*
	.dwpsn	file "../picojpeg.c",line 417,column 10,is_stmt,isa 1
;----------------------------------------------------------------------
; 417 | break;                                                                 
;----------------------------------------------------------------------
;* --------------------------------------------------------------------------*
||$C$L76||:    
	.dwpsn	file "../picojpeg.c",line 419,column 7,is_stmt,isa 1
;----------------------------------------------------------------------
; 419 | i++;                                                                   
;----------------------------------------------------------------------
        LDRB      A1, [SP, #10]         ; [DPU_3_PIPE] |419| 
        ADDS      A1, A1, #1            ; [DPU_3_PIPE] |419| 
        STRB      A1, [SP, #10]         ; [DPU_3_PIPE] |419| 
	.dwpsn	file "../picojpeg.c",line 420,column 7,is_stmt,isa 1
;----------------------------------------------------------------------
; 420 | code <<= 1;                                                            
;----------------------------------------------------------------------
        LDRH      A1, [SP, #8]          ; [DPU_3_PIPE] |420| 
        LSLS      A1, A1, #1            ; [DPU_3_PIPE] |420| 
        STRH      A1, [SP, #8]          ; [DPU_3_PIPE] |420| 
	.dwpsn	file "../picojpeg.c",line 421,column 7,is_stmt,isa 1
;----------------------------------------------------------------------
; 421 | code |= getBit();                                                      
;----------------------------------------------------------------------
$C$DW$142	.dwtag  DW_TAG_TI_branch
	.dwattr $C$DW$142, DW_AT_low_pc(0x00)
	.dwattr $C$DW$142, DW_AT_name("getBit")
	.dwattr $C$DW$142, DW_AT_TI_call

        BL        getBit                ; [DPU_3_PIPE] |421| 
        ; CALL OCCURS {getBit }          ; [] |421| 
        LDRH      A2, [SP, #8]          ; [DPU_3_PIPE] |421| 
        ORRS      A1, A1, A2            ; [DPU_3_PIPE] |421| 
        STRH      A1, [SP, #8]          ; [DPU_3_PIPE] |421| 
	.dwendtag $C$DW$140

	.dwpsn	file "../picojpeg.c",line 422,column 4,is_stmt,isa 1
        B         ||$C$L74||            ; [DPU_3_PIPE] |422| 
        ; BRANCH OCCURS {||$C$L74||}     ; [] |422| 
;* --------------------------------------------------------------------------*
||$C$L77||:    
	.dwpsn	file "../picojpeg.c",line 424,column 4,is_stmt,isa 1
;----------------------------------------------------------------------
; 424 | j = pHuffTable->mValPtr[i];                                            
;----------------------------------------------------------------------
        LDRB      A2, [SP, #10]         ; [DPU_3_PIPE] |424| 
        LDR       A1, [SP, #0]          ; [DPU_3_PIPE] |424| 
        ADDS      A1, A1, A2            ; [DPU_3_PIPE] |424| 
        LDRB      A1, [A1, #64]         ; [DPU_3_PIPE] |424| 
        STRB      A1, [SP, #11]         ; [DPU_3_PIPE] |424| 
	.dwpsn	file "../picojpeg.c",line 425,column 4,is_stmt,isa 1
;----------------------------------------------------------------------
; 425 | j = (uint8)(j + (code - pHuffTable->mMinCode[i]));                     
;----------------------------------------------------------------------
        LDR       A4, [SP, #0]          ; [DPU_3_PIPE] |425| 
        LDRH      A3, [SP, #8]          ; [DPU_3_PIPE] |425| 
        LDRB      A2, [SP, #10]         ; [DPU_3_PIPE] |425| 
        LDRB      A1, [SP, #11]         ; [DPU_3_PIPE] |425| 
        LDRH      A2, [A4, +A2, LSL #1] ; [DPU_3_PIPE] |425| 
        ADDS      A1, A1, A3            ; [DPU_3_PIPE] |425| 
        SUBS      A1, A1, A2            ; [DPU_3_PIPE] |425| 
        STRB      A1, [SP, #11]         ; [DPU_3_PIPE] |425| 
	.dwpsn	file "../picojpeg.c",line 427,column 4,is_stmt,isa 1
;----------------------------------------------------------------------
; 427 | return pHuffVal[j];                                                    
;----------------------------------------------------------------------
        LDR       A1, [SP, #4]          ; [DPU_3_PIPE] |427| 
        LDRB      A2, [SP, #11]         ; [DPU_3_PIPE] |427| 
        LDRB      A1, [A2, +A1]         ; [DPU_3_PIPE] |427| 
;* --------------------------------------------------------------------------*
||$C$L78||:    
	.dwpsn	file "../picojpeg.c",line 428,column 1,is_stmt,isa 1
        ADD       SP, SP, #20           ; [DPU_3_PIPE] 
	.dwcfi	cfa_offset, 4
$C$DW$143	.dwtag  DW_TAG_TI_branch
	.dwattr $C$DW$143, DW_AT_low_pc(0x00)
	.dwattr $C$DW$143, DW_AT_TI_return

        POP       {PC}                  ; [DPU_3_PIPE] 
	.dwcfi	cfa_offset, 0
        ; BRANCH OCCURS                  ; [] 
	.dwattr $C$DW$131, DW_AT_TI_end_file("../picojpeg.c")
	.dwattr $C$DW$131, DW_AT_TI_end_line(0x1ac)
	.dwattr $C$DW$131, DW_AT_TI_end_column(0x01)
	.dwendentry
	.dwendtag $C$DW$131

	.sect	".text"
	.clink
	.thumbfunc huffCreate
	.thumb

$C$DW$144	.dwtag  DW_TAG_subprogram
	.dwattr $C$DW$144, DW_AT_name("huffCreate")
	.dwattr $C$DW$144, DW_AT_low_pc(huffCreate)
	.dwattr $C$DW$144, DW_AT_high_pc(0x00)
	.dwattr $C$DW$144, DW_AT_TI_symbol_name("huffCreate")
	.dwattr $C$DW$144, DW_AT_TI_begin_file("../picojpeg.c")
	.dwattr $C$DW$144, DW_AT_TI_begin_line(0x1ae)
	.dwattr $C$DW$144, DW_AT_TI_begin_column(0x0d)
	.dwattr $C$DW$144, DW_AT_decl_file("../picojpeg.c")
	.dwattr $C$DW$144, DW_AT_decl_line(0x1ae)
	.dwattr $C$DW$144, DW_AT_decl_column(0x0d)
	.dwattr $C$DW$144, DW_AT_TI_max_frame_size(0x10)
	.dwpsn	file "../picojpeg.c",line 431,column 1,is_stmt,address huffCreate,isa 1

	.dwfde $C$DW$CIE, huffCreate
$C$DW$145	.dwtag  DW_TAG_formal_parameter
	.dwattr $C$DW$145, DW_AT_name("pBits")
	.dwattr $C$DW$145, DW_AT_TI_symbol_name("pBits")
	.dwattr $C$DW$145, DW_AT_type(*$C$DW$T$45)
	.dwattr $C$DW$145, DW_AT_location[DW_OP_reg0]

$C$DW$146	.dwtag  DW_TAG_formal_parameter
	.dwattr $C$DW$146, DW_AT_name("pHuffTable")
	.dwattr $C$DW$146, DW_AT_TI_symbol_name("pHuffTable")
	.dwattr $C$DW$146, DW_AT_type(*$C$DW$T$36)
	.dwattr $C$DW$146, DW_AT_location[DW_OP_reg1]

;----------------------------------------------------------------------
; 430 | static void huffCreate(const uint8* pBits, HuffTable* pHuffTable)      
;----------------------------------------------------------------------

;*****************************************************************************
;* FUNCTION NAME: huffCreate                                                 *
;*                                                                           *
;*   Regs Modified     : A1,A2,A3,A4,SP,SR                                   *
;*   Regs Used         : A1,A2,A3,A4,SP,LR,SR                                *
;*   Local Frame Size  : 0 Args + 16 Auto + 0 Save = 16 byte                 *
;*****************************************************************************
huffCreate:
;* --------------------------------------------------------------------------*
	.dwcfi	cfa_offset, 0
        SUB       SP, SP, #16           ; [DPU_3_PIPE] 
	.dwcfi	cfa_offset, 16
$C$DW$147	.dwtag  DW_TAG_variable
	.dwattr $C$DW$147, DW_AT_name("pBits")
	.dwattr $C$DW$147, DW_AT_TI_symbol_name("pBits")
	.dwattr $C$DW$147, DW_AT_type(*$C$DW$T$45)
	.dwattr $C$DW$147, DW_AT_location[DW_OP_breg13 0]

$C$DW$148	.dwtag  DW_TAG_variable
	.dwattr $C$DW$148, DW_AT_name("pHuffTable")
	.dwattr $C$DW$148, DW_AT_TI_symbol_name("pHuffTable")
	.dwattr $C$DW$148, DW_AT_type(*$C$DW$T$36)
	.dwattr $C$DW$148, DW_AT_location[DW_OP_breg13 4]

$C$DW$149	.dwtag  DW_TAG_variable
	.dwattr $C$DW$149, DW_AT_name("code")
	.dwattr $C$DW$149, DW_AT_TI_symbol_name("code")
	.dwattr $C$DW$149, DW_AT_type(*$C$DW$T$23)
	.dwattr $C$DW$149, DW_AT_location[DW_OP_breg13 8]

$C$DW$150	.dwtag  DW_TAG_variable
	.dwattr $C$DW$150, DW_AT_name("i")
	.dwattr $C$DW$150, DW_AT_TI_symbol_name("i")
	.dwattr $C$DW$150, DW_AT_type(*$C$DW$T$25)
	.dwattr $C$DW$150, DW_AT_location[DW_OP_breg13 10]

$C$DW$151	.dwtag  DW_TAG_variable
	.dwattr $C$DW$151, DW_AT_name("j")
	.dwattr $C$DW$151, DW_AT_TI_symbol_name("j")
	.dwattr $C$DW$151, DW_AT_type(*$C$DW$T$25)
	.dwattr $C$DW$151, DW_AT_location[DW_OP_breg13 11]

        STR       A2, [SP, #4]          ; [DPU_3_PIPE] |431| 
        STR       A1, [SP, #0]          ; [DPU_3_PIPE] |431| 
	.dwpsn	file "../picojpeg.c",line 432,column 12,is_stmt,isa 1
;----------------------------------------------------------------------
; 432 | uint8 i = 0;                                                           
;----------------------------------------------------------------------
        MOVS      A1, #0                ; [DPU_3_PIPE] |432| 
        STRB      A1, [SP, #10]         ; [DPU_3_PIPE] |432| 
	.dwpsn	file "../picojpeg.c",line 433,column 12,is_stmt,isa 1
;----------------------------------------------------------------------
; 433 | uint8 j = 0;                                                           
;----------------------------------------------------------------------
        MOVS      A1, #0                ; [DPU_3_PIPE] |433| 
        STRB      A1, [SP, #11]         ; [DPU_3_PIPE] |433| 
	.dwpsn	file "../picojpeg.c",line 435,column 16,is_stmt,isa 1
;----------------------------------------------------------------------
; 435 | uint16 code = 0;                                                       
; 437 | for ( ; ; )                                                            
;----------------------------------------------------------------------
        MOVS      A1, #0                ; [DPU_3_PIPE] |435| 
        STRH      A1, [SP, #8]          ; [DPU_3_PIPE] |435| 
;* --------------------------------------------------------------------------*
;*   BEGIN LOOP ||$C$L79||
;*
;*   Loop source line                : 437
;*   Loop closing brace source line  : 463
;*   Known Minimum Trip Count        : 1
;*   Known Maximum Trip Count        : 4294967295
;*   Known Max Trip Count Factor     : 1
;* --------------------------------------------------------------------------*
||$C$L79||:    

$C$DW$152	.dwtag  DW_TAG_lexical_block
	.dwattr $C$DW$152, DW_AT_low_pc(0x00)
	.dwattr $C$DW$152, DW_AT_high_pc(0x00)
$C$DW$153	.dwtag  DW_TAG_variable
	.dwattr $C$DW$153, DW_AT_name("num")
	.dwattr $C$DW$153, DW_AT_TI_symbol_name("num")
	.dwattr $C$DW$153, DW_AT_type(*$C$DW$T$25)
	.dwattr $C$DW$153, DW_AT_location[DW_OP_breg13 12]

	.dwpsn	file "../picojpeg.c",line 439,column 17,is_stmt,isa 1
;----------------------------------------------------------------------
; 439 | uint8 num = pBits[i];                                                  
;----------------------------------------------------------------------
        LDR       A1, [SP, #0]          ; [DPU_3_PIPE] |439| 
        LDRB      A2, [SP, #10]         ; [DPU_3_PIPE] |439| 
        LDRB      A1, [A2, +A1]         ; [DPU_3_PIPE] |439| 
        STRB      A1, [SP, #12]         ; [DPU_3_PIPE] |439| 
	.dwpsn	file "../picojpeg.c",line 441,column 7,is_stmt,isa 1
;----------------------------------------------------------------------
; 441 | if (!num)                                                              
;----------------------------------------------------------------------
        LDRB      A1, [SP, #12]         ; [DPU_3_PIPE] |441| 
        CBNZ      A1, ||$C$L80||        ; [] 
        ; BRANCHCC OCCURS {||$C$L80||}   ; [] |441| 
;* --------------------------------------------------------------------------*
	.dwpsn	file "../picojpeg.c",line 443,column 10,is_stmt,isa 1
;----------------------------------------------------------------------
; 443 | pHuffTable->mMinCode[i] = 0x0000;                                      
;----------------------------------------------------------------------
        LDRB      A2, [SP, #10]         ; [DPU_3_PIPE] |443| 
        LDR       A3, [SP, #4]          ; [DPU_3_PIPE] |443| 
        MOVS      A1, #0                ; [DPU_3_PIPE] |443| 
        STRH      A1, [A3, +A2, LSL #1] ; [DPU_3_PIPE] |443| 
	.dwpsn	file "../picojpeg.c",line 444,column 10,is_stmt,isa 1
;----------------------------------------------------------------------
; 444 | pHuffTable->mMaxCode[i] = 0xFFFF;                                      
;----------------------------------------------------------------------
        LDR       A1, [SP, #4]          ; [DPU_3_PIPE] |444| 
        LDRB      A3, [SP, #10]         ; [DPU_3_PIPE] |444| 
        MOV       A2, #65535            ; [DPU_3_PIPE] |444| 
        ADD       A1, A1, A3, LSL #1    ; [DPU_3_PIPE] |444| 
        STRH      A2, [A1, #32]         ; [DPU_3_PIPE] |444| 
	.dwpsn	file "../picojpeg.c",line 445,column 10,is_stmt,isa 1
;----------------------------------------------------------------------
; 445 | pHuffTable->mValPtr[i] = 0;                                            
;----------------------------------------------------------------------
        LDR       A1, [SP, #4]          ; [DPU_3_PIPE] |445| 
        LDRB      A3, [SP, #10]         ; [DPU_3_PIPE] |445| 
        MOVS      A2, #0                ; [DPU_3_PIPE] |445| 
        ADDS      A1, A1, A3            ; [DPU_3_PIPE] |445| 
        STRB      A2, [A1, #64]         ; [DPU_3_PIPE] |445| 
	.dwpsn	file "../picojpeg.c",line 446,column 7,is_stmt,isa 1
;----------------------------------------------------------------------
; 447 | else                                                                   
;----------------------------------------------------------------------
        B         ||$C$L81||            ; [DPU_3_PIPE] |446| 
        ; BRANCH OCCURS {||$C$L81||}     ; [] |446| 
;* --------------------------------------------------------------------------*
||$C$L80||:    
	.dwpsn	file "../picojpeg.c",line 449,column 10,is_stmt,isa 1
;----------------------------------------------------------------------
; 449 | pHuffTable->mMinCode[i] = code;                                        
;----------------------------------------------------------------------
        LDRB      A2, [SP, #10]         ; [DPU_3_PIPE] |449| 
        LDR       A3, [SP, #4]          ; [DPU_3_PIPE] |449| 
        LDRH      A1, [SP, #8]          ; [DPU_3_PIPE] |449| 
        STRH      A1, [A3, +A2, LSL #1] ; [DPU_3_PIPE] |449| 
	.dwpsn	file "../picojpeg.c",line 450,column 10,is_stmt,isa 1
;----------------------------------------------------------------------
; 450 | pHuffTable->mMaxCode[i] = code + num - 1;                              
;----------------------------------------------------------------------
        LDRB      A4, [SP, #10]         ; [DPU_3_PIPE] |450| 
        LDRB      A3, [SP, #12]         ; [DPU_3_PIPE] |450| 
        LDRH      A1, [SP, #8]          ; [DPU_3_PIPE] |450| 
        LDR       A2, [SP, #4]          ; [DPU_3_PIPE] |450| 
        ADDS      A1, A1, A3            ; [DPU_3_PIPE] |450| 
        ADD       A2, A2, A4, LSL #1    ; [DPU_3_PIPE] |450| 
        SUBS      A1, A1, #1            ; [DPU_3_PIPE] |450| 
        STRH      A1, [A2, #32]         ; [DPU_3_PIPE] |450| 
	.dwpsn	file "../picojpeg.c",line 451,column 10,is_stmt,isa 1
;----------------------------------------------------------------------
; 451 | pHuffTable->mValPtr[i] = j;                                            
;----------------------------------------------------------------------
        LDRB      A2, [SP, #10]         ; [DPU_3_PIPE] |451| 
        LDR       A1, [SP, #4]          ; [DPU_3_PIPE] |451| 
        LDRB      A3, [SP, #11]         ; [DPU_3_PIPE] |451| 
        ADDS      A1, A1, A2            ; [DPU_3_PIPE] |451| 
        STRB      A3, [A1, #64]         ; [DPU_3_PIPE] |451| 
	.dwpsn	file "../picojpeg.c",line 453,column 10,is_stmt,isa 1
;----------------------------------------------------------------------
; 453 | j = (uint8)(j + num);                                                  
;----------------------------------------------------------------------
        LDRB      A1, [SP, #11]         ; [DPU_3_PIPE] |453| 
        LDRB      A2, [SP, #12]         ; [DPU_3_PIPE] |453| 
        ADDS      A1, A1, A2            ; [DPU_3_PIPE] |453| 
        STRB      A1, [SP, #11]         ; [DPU_3_PIPE] |453| 
	.dwpsn	file "../picojpeg.c",line 455,column 10,is_stmt,isa 1
;----------------------------------------------------------------------
; 455 | code = (uint16)(code + num);                                           
;----------------------------------------------------------------------
        LDRH      A1, [SP, #8]          ; [DPU_3_PIPE] |455| 
        LDRB      A2, [SP, #12]         ; [DPU_3_PIPE] |455| 
        ADDS      A1, A1, A2            ; [DPU_3_PIPE] |455| 
        STRH      A1, [SP, #8]          ; [DPU_3_PIPE] |455| 
;* --------------------------------------------------------------------------*
||$C$L81||:    
	.dwpsn	file "../picojpeg.c",line 458,column 7,is_stmt,isa 1
;----------------------------------------------------------------------
; 458 | code <<= 1;                                                            
;----------------------------------------------------------------------
        LDRH      A1, [SP, #8]          ; [DPU_3_PIPE] |458| 
        LSLS      A1, A1, #1            ; [DPU_3_PIPE] |458| 
        STRH      A1, [SP, #8]          ; [DPU_3_PIPE] |458| 
	.dwpsn	file "../picojpeg.c",line 460,column 7,is_stmt,isa 1
;----------------------------------------------------------------------
; 460 | i++;                                                                   
;----------------------------------------------------------------------
        LDRB      A1, [SP, #10]         ; [DPU_3_PIPE] |460| 
        ADDS      A1, A1, #1            ; [DPU_3_PIPE] |460| 
        STRB      A1, [SP, #10]         ; [DPU_3_PIPE] |460| 
	.dwpsn	file "../picojpeg.c",line 461,column 7,is_stmt,isa 1
;----------------------------------------------------------------------
; 461 | if (i > 15)                                                            
;----------------------------------------------------------------------
        LDRB      A1, [SP, #10]         ; [DPU_3_PIPE] |461| 
        CMP       A1, #15               ; [DPU_3_PIPE] |461| 
        BGT       ||$C$L82||            ; [DPU_3_PIPE] |461| 
        ; BRANCHCC OCCURS {||$C$L82||}   ; [] |461| 
;* --------------------------------------------------------------------------*
	.dwpsn	file "../picojpeg.c",line 462,column 10,is_stmt,isa 1
;----------------------------------------------------------------------
; 462 | break;                                                                 
;----------------------------------------------------------------------
	.dwendtag $C$DW$152

	.dwpsn	file "../picojpeg.c",line 463,column 4,is_stmt,isa 1
        B         ||$C$L79||            ; [DPU_3_PIPE] |463| 
        ; BRANCH OCCURS {||$C$L79||}     ; [] |463| 
;* --------------------------------------------------------------------------*
;* --------------------------------------------------------------------------*
||$C$L82||:    
        ADD       SP, SP, #16           ; [DPU_3_PIPE] 
	.dwcfi	cfa_offset, 0
$C$DW$154	.dwtag  DW_TAG_TI_branch
	.dwattr $C$DW$154, DW_AT_low_pc(0x00)
	.dwattr $C$DW$154, DW_AT_TI_return

        BX        LR                    ; [DPU_3_PIPE] 
        ; BRANCH OCCURS                  ; [] 
	.dwattr $C$DW$144, DW_AT_TI_end_file("../picojpeg.c")
	.dwattr $C$DW$144, DW_AT_TI_end_line(0x1d0)
	.dwattr $C$DW$144, DW_AT_TI_end_column(0x01)
	.dwendentry
	.dwendtag $C$DW$144

	.sect	".text"
	.clink
	.thumbfunc getHuffTable
	.thumb

$C$DW$155	.dwtag  DW_TAG_subprogram
	.dwattr $C$DW$155, DW_AT_name("getHuffTable")
	.dwattr $C$DW$155, DW_AT_low_pc(getHuffTable)
	.dwattr $C$DW$155, DW_AT_high_pc(0x00)
	.dwattr $C$DW$155, DW_AT_TI_symbol_name("getHuffTable")
	.dwattr $C$DW$155, DW_AT_type(*$C$DW$T$36)
	.dwattr $C$DW$155, DW_AT_TI_begin_file("../picojpeg.c")
	.dwattr $C$DW$155, DW_AT_TI_begin_line(0x1d2)
	.dwattr $C$DW$155, DW_AT_TI_begin_column(0x13)
	.dwattr $C$DW$155, DW_AT_decl_file("../picojpeg.c")
	.dwattr $C$DW$155, DW_AT_decl_line(0x1d2)
	.dwattr $C$DW$155, DW_AT_decl_column(0x13)
	.dwattr $C$DW$155, DW_AT_TI_max_frame_size(0x08)
	.dwpsn	file "../picojpeg.c",line 467,column 1,is_stmt,address getHuffTable,isa 1

	.dwfde $C$DW$CIE, getHuffTable
$C$DW$156	.dwtag  DW_TAG_formal_parameter
	.dwattr $C$DW$156, DW_AT_name("index")
	.dwattr $C$DW$156, DW_AT_TI_symbol_name("index")
	.dwattr $C$DW$156, DW_AT_type(*$C$DW$T$25)
	.dwattr $C$DW$156, DW_AT_location[DW_OP_reg0]

;----------------------------------------------------------------------
; 466 | static HuffTable* getHuffTable(uint8 index)                            
;----------------------------------------------------------------------

;*****************************************************************************
;* FUNCTION NAME: getHuffTable                                               *
;*                                                                           *
;*   Regs Modified     : A1,SP,SR                                            *
;*   Regs Used         : A1,SP,LR,SR                                         *
;*   Local Frame Size  : 0 Args + 4 Auto + 0 Save = 4 byte                   *
;*****************************************************************************
getHuffTable:
;* --------------------------------------------------------------------------*
	.dwcfi	cfa_offset, 0
        SUB       SP, SP, #8            ; [DPU_3_PIPE] 
	.dwcfi	cfa_offset, 8
$C$DW$157	.dwtag  DW_TAG_variable
	.dwattr $C$DW$157, DW_AT_name("index")
	.dwattr $C$DW$157, DW_AT_TI_symbol_name("index")
	.dwattr $C$DW$157, DW_AT_type(*$C$DW$T$25)
	.dwattr $C$DW$157, DW_AT_location[DW_OP_breg13 0]

;----------------------------------------------------------------------
; 468 | // 0-1 = DC                                                            
; 469 | // 2-3 = AC                                                            
;----------------------------------------------------------------------
        STRB      A1, [SP, #0]          ; [DPU_3_PIPE] |467| 
	.dwpsn	file "../picojpeg.c",line 470,column 4,is_stmt,isa 1
;----------------------------------------------------------------------
; 470 | switch (index)                                                         
;----------------------------------------------------------------------
        B         ||$C$L88||            ; [DPU_3_PIPE] |470| 
        ; BRANCH OCCURS {||$C$L88||}     ; [] |470| 
;* --------------------------------------------------------------------------*
||$C$L83||:    
	.dwpsn	file "../picojpeg.c",line 472,column 15,is_stmt,isa 1
;----------------------------------------------------------------------
; 472 | case 0: return &gHuffTab0;                                             
;----------------------------------------------------------------------
        LDR       A1, $C$CON23          ; [DPU_3_PIPE] |472| 
        B         ||$C$L89||            ; [DPU_3_PIPE] |472| 
        ; BRANCH OCCURS {||$C$L89||}     ; [] |472| 
;* --------------------------------------------------------------------------*
||$C$L84||:    
	.dwpsn	file "../picojpeg.c",line 473,column 15,is_stmt,isa 1
;----------------------------------------------------------------------
; 473 | case 1: return &gHuffTab1;                                             
;----------------------------------------------------------------------
        LDR       A1, $C$CON24          ; [DPU_3_PIPE] |473| 
        B         ||$C$L89||            ; [DPU_3_PIPE] |473| 
        ; BRANCH OCCURS {||$C$L89||}     ; [] |473| 
;* --------------------------------------------------------------------------*
||$C$L85||:    
	.dwpsn	file "../picojpeg.c",line 474,column 15,is_stmt,isa 1
;----------------------------------------------------------------------
; 474 | case 2: return &gHuffTab2;                                             
;----------------------------------------------------------------------
        LDR       A1, $C$CON25          ; [DPU_3_PIPE] |474| 
        B         ||$C$L89||            ; [DPU_3_PIPE] |474| 
        ; BRANCH OCCURS {||$C$L89||}     ; [] |474| 
;* --------------------------------------------------------------------------*
||$C$L86||:    
	.dwpsn	file "../picojpeg.c",line 475,column 15,is_stmt,isa 1
;----------------------------------------------------------------------
; 475 | case 3: return &gHuffTab3;                                             
;----------------------------------------------------------------------
        LDR       A1, $C$CON26          ; [DPU_3_PIPE] |475| 
        B         ||$C$L89||            ; [DPU_3_PIPE] |475| 
        ; BRANCH OCCURS {||$C$L89||}     ; [] |475| 
;* --------------------------------------------------------------------------*
||$C$L87||:    
	.dwpsn	file "../picojpeg.c",line 476,column 16,is_stmt,isa 1
;----------------------------------------------------------------------
; 476 | default: return 0;                                                     
;----------------------------------------------------------------------
        MOVS      A1, #0                ; [DPU_3_PIPE] |476| 
        B         ||$C$L89||            ; [DPU_3_PIPE] |476| 
        ; BRANCH OCCURS {||$C$L89||}     ; [] |476| 
;* --------------------------------------------------------------------------*
;* --------------------------------------------------------------------------*
||$C$L88||:    
	.dwpsn	file "../picojpeg.c",line 470,column 4,is_stmt,isa 1
        LDRB      A1, [SP, #0]          ; [DPU_3_PIPE] |470| 
        CMP       A1, #0                ; [DPU_3_PIPE] |470| 
        BEQ       ||$C$L83||            ; [DPU_3_PIPE] |470| 
        ; BRANCHCC OCCURS {||$C$L83||}   ; [] |470| 
;* --------------------------------------------------------------------------*
        SUBS      A1, A1, #1            ; [DPU_3_PIPE] |470| 
        BEQ       ||$C$L84||            ; [DPU_3_PIPE] |470| 
        ; BRANCHCC OCCURS {||$C$L84||}   ; [] |470| 
;* --------------------------------------------------------------------------*
        SUBS      A1, A1, #1            ; [DPU_3_PIPE] |470| 
        BEQ       ||$C$L85||            ; [DPU_3_PIPE] |470| 
        ; BRANCHCC OCCURS {||$C$L85||}   ; [] |470| 
;* --------------------------------------------------------------------------*
        SUBS      A1, A1, #1            ; [DPU_3_PIPE] |470| 
        BEQ       ||$C$L86||            ; [DPU_3_PIPE] |470| 
        ; BRANCHCC OCCURS {||$C$L86||}   ; [] |470| 
;* --------------------------------------------------------------------------*
        B         ||$C$L87||            ; [DPU_3_PIPE] |470| 
        ; BRANCH OCCURS {||$C$L87||}     ; [] |470| 
;* --------------------------------------------------------------------------*
||$C$L89||:    
	.dwpsn	file "../picojpeg.c",line 478,column 1,is_stmt,isa 1
        ADD       SP, SP, #8            ; [DPU_3_PIPE] 
	.dwcfi	cfa_offset, 0
$C$DW$158	.dwtag  DW_TAG_TI_branch
	.dwattr $C$DW$158, DW_AT_low_pc(0x00)
	.dwattr $C$DW$158, DW_AT_TI_return

        BX        LR                    ; [DPU_3_PIPE] 
        ; BRANCH OCCURS                  ; [] 
	.dwattr $C$DW$155, DW_AT_TI_end_file("../picojpeg.c")
	.dwattr $C$DW$155, DW_AT_TI_end_line(0x1de)
	.dwattr $C$DW$155, DW_AT_TI_end_column(0x01)
	.dwendentry
	.dwendtag $C$DW$155

	.sect	".text"
	.clink
	.thumbfunc getHuffVal
	.thumb

$C$DW$159	.dwtag  DW_TAG_subprogram
	.dwattr $C$DW$159, DW_AT_name("getHuffVal")
	.dwattr $C$DW$159, DW_AT_low_pc(getHuffVal)
	.dwattr $C$DW$159, DW_AT_high_pc(0x00)
	.dwattr $C$DW$159, DW_AT_TI_symbol_name("getHuffVal")
	.dwattr $C$DW$159, DW_AT_type(*$C$DW$T$69)
	.dwattr $C$DW$159, DW_AT_TI_begin_file("../picojpeg.c")
	.dwattr $C$DW$159, DW_AT_TI_begin_line(0x1e0)
	.dwattr $C$DW$159, DW_AT_TI_begin_column(0x0f)
	.dwattr $C$DW$159, DW_AT_decl_file("../picojpeg.c")
	.dwattr $C$DW$159, DW_AT_decl_line(0x1e0)
	.dwattr $C$DW$159, DW_AT_decl_column(0x0f)
	.dwattr $C$DW$159, DW_AT_TI_max_frame_size(0x08)
	.dwpsn	file "../picojpeg.c",line 481,column 1,is_stmt,address getHuffVal,isa 1

	.dwfde $C$DW$CIE, getHuffVal
$C$DW$160	.dwtag  DW_TAG_formal_parameter
	.dwattr $C$DW$160, DW_AT_name("index")
	.dwattr $C$DW$160, DW_AT_TI_symbol_name("index")
	.dwattr $C$DW$160, DW_AT_type(*$C$DW$T$25)
	.dwattr $C$DW$160, DW_AT_location[DW_OP_reg0]

;----------------------------------------------------------------------
; 480 | static uint8* getHuffVal(uint8 index)                                  
;----------------------------------------------------------------------

;*****************************************************************************
;* FUNCTION NAME: getHuffVal                                                 *
;*                                                                           *
;*   Regs Modified     : A1,SP,SR                                            *
;*   Regs Used         : A1,SP,LR,SR                                         *
;*   Local Frame Size  : 0 Args + 4 Auto + 0 Save = 4 byte                   *
;*****************************************************************************
getHuffVal:
;* --------------------------------------------------------------------------*
	.dwcfi	cfa_offset, 0
        SUB       SP, SP, #8            ; [DPU_3_PIPE] 
	.dwcfi	cfa_offset, 8
$C$DW$161	.dwtag  DW_TAG_variable
	.dwattr $C$DW$161, DW_AT_name("index")
	.dwattr $C$DW$161, DW_AT_TI_symbol_name("index")
	.dwattr $C$DW$161, DW_AT_type(*$C$DW$T$25)
	.dwattr $C$DW$161, DW_AT_location[DW_OP_breg13 0]

;----------------------------------------------------------------------
; 482 | // 0-1 = DC                                                            
; 483 | // 2-3 = AC                                                            
;----------------------------------------------------------------------
        STRB      A1, [SP, #0]          ; [DPU_3_PIPE] |481| 
	.dwpsn	file "../picojpeg.c",line 484,column 4,is_stmt,isa 1
;----------------------------------------------------------------------
; 484 | switch (index)                                                         
;----------------------------------------------------------------------
        B         ||$C$L95||            ; [DPU_3_PIPE] |484| 
        ; BRANCH OCCURS {||$C$L95||}     ; [] |484| 
;* --------------------------------------------------------------------------*
||$C$L90||:    
	.dwpsn	file "../picojpeg.c",line 486,column 15,is_stmt,isa 1
;----------------------------------------------------------------------
; 486 | case 0: return gHuffVal0;                                              
;----------------------------------------------------------------------
        LDR       A1, $C$CON27          ; [DPU_3_PIPE] |486| 
        B         ||$C$L96||            ; [DPU_3_PIPE] |486| 
        ; BRANCH OCCURS {||$C$L96||}     ; [] |486| 
;* --------------------------------------------------------------------------*
||$C$L91||:    
	.dwpsn	file "../picojpeg.c",line 487,column 15,is_stmt,isa 1
;----------------------------------------------------------------------
; 487 | case 1: return gHuffVal1;                                              
;----------------------------------------------------------------------
        LDR       A1, $C$CON28          ; [DPU_3_PIPE] |487| 
        B         ||$C$L96||            ; [DPU_3_PIPE] |487| 
        ; BRANCH OCCURS {||$C$L96||}     ; [] |487| 
;* --------------------------------------------------------------------------*
||$C$L92||:    
	.dwpsn	file "../picojpeg.c",line 488,column 15,is_stmt,isa 1
;----------------------------------------------------------------------
; 488 | case 2: return gHuffVal2;                                              
;----------------------------------------------------------------------
        LDR       A1, $C$CON29          ; [DPU_3_PIPE] |488| 
        B         ||$C$L96||            ; [DPU_3_PIPE] |488| 
        ; BRANCH OCCURS {||$C$L96||}     ; [] |488| 
;* --------------------------------------------------------------------------*
||$C$L93||:    
	.dwpsn	file "../picojpeg.c",line 489,column 15,is_stmt,isa 1
;----------------------------------------------------------------------
; 489 | case 3: return gHuffVal3;                                              
;----------------------------------------------------------------------
        LDR       A1, $C$CON30          ; [DPU_3_PIPE] |489| 
        B         ||$C$L96||            ; [DPU_3_PIPE] |489| 
        ; BRANCH OCCURS {||$C$L96||}     ; [] |489| 
;* --------------------------------------------------------------------------*
||$C$L94||:    
	.dwpsn	file "../picojpeg.c",line 490,column 16,is_stmt,isa 1
;----------------------------------------------------------------------
; 490 | default: return 0;                                                     
;----------------------------------------------------------------------
        MOVS      A1, #0                ; [DPU_3_PIPE] |490| 
        B         ||$C$L96||            ; [DPU_3_PIPE] |490| 
        ; BRANCH OCCURS {||$C$L96||}     ; [] |490| 
;* --------------------------------------------------------------------------*
;* --------------------------------------------------------------------------*
||$C$L95||:    
	.dwpsn	file "../picojpeg.c",line 484,column 4,is_stmt,isa 1
        LDRB      A1, [SP, #0]          ; [DPU_3_PIPE] |484| 
        CMP       A1, #0                ; [DPU_3_PIPE] |484| 
        BEQ       ||$C$L90||            ; [DPU_3_PIPE] |484| 
        ; BRANCHCC OCCURS {||$C$L90||}   ; [] |484| 
;* --------------------------------------------------------------------------*
        SUBS      A1, A1, #1            ; [DPU_3_PIPE] |484| 
        BEQ       ||$C$L91||            ; [DPU_3_PIPE] |484| 
        ; BRANCHCC OCCURS {||$C$L91||}   ; [] |484| 
;* --------------------------------------------------------------------------*
        SUBS      A1, A1, #1            ; [DPU_3_PIPE] |484| 
        BEQ       ||$C$L92||            ; [DPU_3_PIPE] |484| 
        ; BRANCHCC OCCURS {||$C$L92||}   ; [] |484| 
;* --------------------------------------------------------------------------*
        SUBS      A1, A1, #1            ; [DPU_3_PIPE] |484| 
        BEQ       ||$C$L93||            ; [DPU_3_PIPE] |484| 
        ; BRANCHCC OCCURS {||$C$L93||}   ; [] |484| 
;* --------------------------------------------------------------------------*
        B         ||$C$L94||            ; [DPU_3_PIPE] |484| 
        ; BRANCH OCCURS {||$C$L94||}     ; [] |484| 
;* --------------------------------------------------------------------------*
||$C$L96||:    
	.dwpsn	file "../picojpeg.c",line 492,column 1,is_stmt,isa 1
        ADD       SP, SP, #8            ; [DPU_3_PIPE] 
	.dwcfi	cfa_offset, 0
$C$DW$162	.dwtag  DW_TAG_TI_branch
	.dwattr $C$DW$162, DW_AT_low_pc(0x00)
	.dwattr $C$DW$162, DW_AT_TI_return

        BX        LR                    ; [DPU_3_PIPE] 
        ; BRANCH OCCURS                  ; [] 
	.dwattr $C$DW$159, DW_AT_TI_end_file("../picojpeg.c")
	.dwattr $C$DW$159, DW_AT_TI_end_line(0x1ec)
	.dwattr $C$DW$159, DW_AT_TI_end_column(0x01)
	.dwendentry
	.dwendtag $C$DW$159

	.sect	".text"
	.clink
	.thumbfunc getMaxHuffCodes
	.thumb

$C$DW$163	.dwtag  DW_TAG_subprogram
	.dwattr $C$DW$163, DW_AT_name("getMaxHuffCodes")
	.dwattr $C$DW$163, DW_AT_low_pc(getMaxHuffCodes)
	.dwattr $C$DW$163, DW_AT_high_pc(0x00)
	.dwattr $C$DW$163, DW_AT_TI_symbol_name("getMaxHuffCodes")
	.dwattr $C$DW$163, DW_AT_type(*$C$DW$T$23)
	.dwattr $C$DW$163, DW_AT_TI_begin_file("../picojpeg.c")
	.dwattr $C$DW$163, DW_AT_TI_begin_line(0x1ee)
	.dwattr $C$DW$163, DW_AT_TI_begin_column(0x0f)
	.dwattr $C$DW$163, DW_AT_decl_file("../picojpeg.c")
	.dwattr $C$DW$163, DW_AT_decl_line(0x1ee)
	.dwattr $C$DW$163, DW_AT_decl_column(0x0f)
	.dwattr $C$DW$163, DW_AT_TI_max_frame_size(0x08)
	.dwpsn	file "../picojpeg.c",line 495,column 1,is_stmt,address getMaxHuffCodes,isa 1

	.dwfde $C$DW$CIE, getMaxHuffCodes
$C$DW$164	.dwtag  DW_TAG_formal_parameter
	.dwattr $C$DW$164, DW_AT_name("index")
	.dwattr $C$DW$164, DW_AT_TI_symbol_name("index")
	.dwattr $C$DW$164, DW_AT_type(*$C$DW$T$25)
	.dwattr $C$DW$164, DW_AT_location[DW_OP_reg0]

;----------------------------------------------------------------------
; 494 | static uint16 getMaxHuffCodes(uint8 index)                             
;----------------------------------------------------------------------

;*****************************************************************************
;* FUNCTION NAME: getMaxHuffCodes                                            *
;*                                                                           *
;*   Regs Modified     : A1,SP,SR                                            *
;*   Regs Used         : A1,SP,LR,SR                                         *
;*   Local Frame Size  : 0 Args + 4 Auto + 0 Save = 4 byte                   *
;*****************************************************************************
getMaxHuffCodes:
;* --------------------------------------------------------------------------*
	.dwcfi	cfa_offset, 0
        SUB       SP, SP, #8            ; [DPU_3_PIPE] 
	.dwcfi	cfa_offset, 8
$C$DW$165	.dwtag  DW_TAG_variable
	.dwattr $C$DW$165, DW_AT_name("index")
	.dwattr $C$DW$165, DW_AT_TI_symbol_name("index")
	.dwattr $C$DW$165, DW_AT_type(*$C$DW$T$25)
	.dwattr $C$DW$165, DW_AT_location[DW_OP_breg13 0]

        STRB      A1, [SP, #0]          ; [DPU_3_PIPE] |495| 
	.dwpsn	file "../picojpeg.c",line 496,column 4,is_stmt,isa 1
;----------------------------------------------------------------------
; 496 | return (index < 2) ? 12 : 255;                                         
;----------------------------------------------------------------------
        LDRB      A1, [SP, #0]          ; [DPU_3_PIPE] |496| 
        CMP       A1, #2                ; [DPU_3_PIPE] |496| 
        BGE       ||$C$L97||            ; [DPU_3_PIPE] |496| 
        ; BRANCHCC OCCURS {||$C$L97||}   ; [] |496| 
;* --------------------------------------------------------------------------*
        MOVS      A1, #12               ; [DPU_3_PIPE] |496| 
        B         ||$C$L98||            ; [DPU_3_PIPE] |496| 
        ; BRANCH OCCURS {||$C$L98||}     ; [] |496| 
;* --------------------------------------------------------------------------*
||$C$L97||:    
        MOVS      A1, #255              ; [DPU_3_PIPE] |496| 
;* --------------------------------------------------------------------------*
||$C$L98||:    
	.dwpsn	file "../picojpeg.c",line 497,column 1,is_stmt,isa 1
        ADD       SP, SP, #8            ; [DPU_3_PIPE] 
	.dwcfi	cfa_offset, 0
$C$DW$166	.dwtag  DW_TAG_TI_branch
	.dwattr $C$DW$166, DW_AT_low_pc(0x00)
	.dwattr $C$DW$166, DW_AT_TI_return

        BX        LR                    ; [DPU_3_PIPE] 
        ; BRANCH OCCURS                  ; [] 
	.dwattr $C$DW$163, DW_AT_TI_end_file("../picojpeg.c")
	.dwattr $C$DW$163, DW_AT_TI_end_line(0x1f1)
	.dwattr $C$DW$163, DW_AT_TI_end_column(0x01)
	.dwendentry
	.dwendtag $C$DW$163

;******************************************************************************
;* CONSTANT TABLE                                                             *
;******************************************************************************
	.sect	".text"
	.align	4
||$C$CON17||:	.bits	-1023,32
	.align	4
||$C$CON18||:	.bits	-2047,32
	.align	4
||$C$CON19||:	.bits	-4095,32
	.align	4
||$C$CON20||:	.bits	-8191,32
	.align	4
||$C$CON21||:	.bits	-16383,32
	.align	4
||$C$CON22||:	.bits	-32767,32
	.sect	".text"
	.clink
	.thumbfunc readDHTMarker
	.thumb

$C$DW$167	.dwtag  DW_TAG_subprogram
	.dwattr $C$DW$167, DW_AT_name("readDHTMarker")
	.dwattr $C$DW$167, DW_AT_low_pc(readDHTMarker)
	.dwattr $C$DW$167, DW_AT_high_pc(0x00)
	.dwattr $C$DW$167, DW_AT_TI_symbol_name("readDHTMarker")
	.dwattr $C$DW$167, DW_AT_type(*$C$DW$T$25)
	.dwattr $C$DW$167, DW_AT_TI_begin_file("../picojpeg.c")
	.dwattr $C$DW$167, DW_AT_TI_begin_line(0x1f3)
	.dwattr $C$DW$167, DW_AT_TI_begin_column(0x0e)
	.dwattr $C$DW$167, DW_AT_decl_file("../picojpeg.c")
	.dwattr $C$DW$167, DW_AT_decl_line(0x1f3)
	.dwattr $C$DW$167, DW_AT_decl_column(0x0e)
	.dwattr $C$DW$167, DW_AT_TI_max_frame_size(0x30)
	.dwpsn	file "../picojpeg.c",line 500,column 1,is_stmt,address readDHTMarker,isa 1

	.dwfde $C$DW$CIE, readDHTMarker
;----------------------------------------------------------------------
; 499 | static uint8 readDHTMarker(void)                                       
; 501 | uint8 bits[16];                                                        
;----------------------------------------------------------------------

;*****************************************************************************
;* FUNCTION NAME: readDHTMarker                                              *
;*                                                                           *
;*   Regs Modified     : A1,A2,A3,A4,V9,SP,LR,SR,D0,D0_hi,D1,D1_hi,D2,D2_hi, *
;*                           D3,D3_hi,D4,D4_hi,D5,D5_hi,D6,D6_hi,D7,D7_hi,   *
;*                           FPEXC,FPSCR                                     *
;*   Regs Used         : A1,A2,A3,A4,V9,SP,LR,SR,D0,D0_hi,D1,D1_hi,D2,D2_hi, *
;*                           D3,D3_hi,D4,D4_hi,D5,D5_hi,D6,D6_hi,D7,D7_hi,   *
;*                           FPEXC,FPSCR                                     *
;*   Local Frame Size  : 0 Args + 40 Auto + 4 Save = 44 byte                 *
;*****************************************************************************
readDHTMarker:
;* --------------------------------------------------------------------------*
	.dwcfi	cfa_offset, 0
        PUSH      {LR}                  ; [DPU_3_PIPE] 
	.dwcfi	cfa_offset, 4
	.dwcfi	save_reg_to_mem, 14, -4
        SUB       SP, SP, #44           ; [DPU_3_PIPE] 
	.dwcfi	cfa_offset, 48
$C$DW$168	.dwtag  DW_TAG_variable
	.dwattr $C$DW$168, DW_AT_name("left")
	.dwattr $C$DW$168, DW_AT_TI_symbol_name("left")
	.dwattr $C$DW$168, DW_AT_type(*$C$DW$T$23)
	.dwattr $C$DW$168, DW_AT_location[DW_OP_breg13 0]

$C$DW$169	.dwtag  DW_TAG_variable
	.dwattr $C$DW$169, DW_AT_name("bits")
	.dwattr $C$DW$169, DW_AT_TI_symbol_name("bits")
	.dwattr $C$DW$169, DW_AT_type(*$C$DW$T$26)
	.dwattr $C$DW$169, DW_AT_location[DW_OP_breg13 2]

	.dwpsn	file "../picojpeg.c",line 502,column 16,is_stmt,isa 1
;----------------------------------------------------------------------
; 502 | uint16 left = getBits1(16);                                            
;----------------------------------------------------------------------
        MOVS      A1, #16               ; [DPU_3_PIPE] |502| 
$C$DW$170	.dwtag  DW_TAG_TI_branch
	.dwattr $C$DW$170, DW_AT_low_pc(0x00)
	.dwattr $C$DW$170, DW_AT_name("getBits1")
	.dwattr $C$DW$170, DW_AT_TI_call

        BL        getBits1              ; [DPU_3_PIPE] |502| 
        ; CALL OCCURS {getBits1 }        ; [] |502| 
        STRH      A1, [SP, #0]          ; [DPU_3_PIPE] |502| 
	.dwpsn	file "../picojpeg.c",line 504,column 4,is_stmt,isa 1
;----------------------------------------------------------------------
; 504 | if (left < 2)                                                          
;----------------------------------------------------------------------
        LDRH      A1, [SP, #0]          ; [DPU_3_PIPE] |504| 
        CMP       A1, #2                ; [DPU_3_PIPE] |504| 
        BGE       ||$C$L99||            ; [DPU_3_PIPE] |504| 
        ; BRANCHCC OCCURS {||$C$L99||}   ; [] |504| 
;* --------------------------------------------------------------------------*
	.dwpsn	file "../picojpeg.c",line 505,column 7,is_stmt,isa 1
;----------------------------------------------------------------------
; 505 | return PJPG_BAD_DHT_MARKER;                                            
;----------------------------------------------------------------------
        MOVS      A1, #4                ; [DPU_3_PIPE] |505| 
        B         ||$C$L110||           ; [DPU_3_PIPE] |505| 
        ; BRANCH OCCURS {||$C$L110||}    ; [] |505| 
;* --------------------------------------------------------------------------*
||$C$L99||:    
	.dwpsn	file "../picojpeg.c",line 507,column 4,is_stmt,isa 1
;----------------------------------------------------------------------
; 507 | left -= 2;                                                             
;----------------------------------------------------------------------
        LDRH      A1, [SP, #0]          ; [DPU_3_PIPE] |507| 
        SUBS      A1, A1, #2            ; [DPU_3_PIPE] |507| 
        STRH      A1, [SP, #0]          ; [DPU_3_PIPE] |507| 
	.dwpsn	file "../picojpeg.c",line 509,column 4,is_stmt,isa 1
;----------------------------------------------------------------------
; 509 | while (left)                                                           
; 511 |    uint8 i, tableIndex, index;                                         
; 512 |    uint8* pHuffVal;                                                    
; 513 |    HuffTable* pHuffTable;                                              
; 514 |    uint16 count, totalRead;                                            
;----------------------------------------------------------------------
        LDRH      A1, [SP, #0]          ; [DPU_3_PIPE] |509| 
        CMP       A1, #0                ; [DPU_3_PIPE] |509| 
        BEQ       ||$C$L109||           ; [DPU_3_PIPE] |509| 
        ; BRANCHCC OCCURS {||$C$L109||}  ; [] |509| 
;* --------------------------------------------------------------------------*
;*   BEGIN LOOP ||$C$L100||
;*
;*   Loop source line                : 509
;*   Loop closing brace source line  : 550
;*   Known Minimum Trip Count        : 1
;*   Known Maximum Trip Count        : 4294967295
;*   Known Max Trip Count Factor     : 1
;* --------------------------------------------------------------------------*
||$C$L100||:    

$C$DW$171	.dwtag  DW_TAG_lexical_block
	.dwattr $C$DW$171, DW_AT_low_pc(0x00)
	.dwattr $C$DW$171, DW_AT_high_pc(0x00)
$C$DW$172	.dwtag  DW_TAG_variable
	.dwattr $C$DW$172, DW_AT_name("pHuffVal")
	.dwattr $C$DW$172, DW_AT_TI_symbol_name("pHuffVal")
	.dwattr $C$DW$172, DW_AT_type(*$C$DW$T$69)
	.dwattr $C$DW$172, DW_AT_location[DW_OP_breg13 20]

$C$DW$173	.dwtag  DW_TAG_variable
	.dwattr $C$DW$173, DW_AT_name("pHuffTable")
	.dwattr $C$DW$173, DW_AT_TI_symbol_name("pHuffTable")
	.dwattr $C$DW$173, DW_AT_type(*$C$DW$T$36)
	.dwattr $C$DW$173, DW_AT_location[DW_OP_breg13 24]

$C$DW$174	.dwtag  DW_TAG_variable
	.dwattr $C$DW$174, DW_AT_name("count")
	.dwattr $C$DW$174, DW_AT_TI_symbol_name("count")
	.dwattr $C$DW$174, DW_AT_type(*$C$DW$T$23)
	.dwattr $C$DW$174, DW_AT_location[DW_OP_breg13 28]

$C$DW$175	.dwtag  DW_TAG_variable
	.dwattr $C$DW$175, DW_AT_name("totalRead")
	.dwattr $C$DW$175, DW_AT_TI_symbol_name("totalRead")
	.dwattr $C$DW$175, DW_AT_type(*$C$DW$T$23)
	.dwattr $C$DW$175, DW_AT_location[DW_OP_breg13 30]

$C$DW$176	.dwtag  DW_TAG_variable
	.dwattr $C$DW$176, DW_AT_name("i")
	.dwattr $C$DW$176, DW_AT_TI_symbol_name("i")
	.dwattr $C$DW$176, DW_AT_type(*$C$DW$T$25)
	.dwattr $C$DW$176, DW_AT_location[DW_OP_breg13 32]

$C$DW$177	.dwtag  DW_TAG_variable
	.dwattr $C$DW$177, DW_AT_name("tableIndex")
	.dwattr $C$DW$177, DW_AT_TI_symbol_name("tableIndex")
	.dwattr $C$DW$177, DW_AT_type(*$C$DW$T$25)
	.dwattr $C$DW$177, DW_AT_location[DW_OP_breg13 33]

$C$DW$178	.dwtag  DW_TAG_variable
	.dwattr $C$DW$178, DW_AT_name("index")
	.dwattr $C$DW$178, DW_AT_TI_symbol_name("index")
	.dwattr $C$DW$178, DW_AT_type(*$C$DW$T$25)
	.dwattr $C$DW$178, DW_AT_location[DW_OP_breg13 34]

	.dwpsn	file "../picojpeg.c",line 516,column 7,is_stmt,isa 1
;----------------------------------------------------------------------
; 516 | index = (uint8)getBits1(8);                                            
;----------------------------------------------------------------------
        MOVS      A1, #8                ; [DPU_3_PIPE] |516| 
$C$DW$179	.dwtag  DW_TAG_TI_branch
	.dwattr $C$DW$179, DW_AT_low_pc(0x00)
	.dwattr $C$DW$179, DW_AT_name("getBits1")
	.dwattr $C$DW$179, DW_AT_TI_call

        BL        getBits1              ; [DPU_3_PIPE] |516| 
        ; CALL OCCURS {getBits1 }        ; [] |516| 
        STRB      A1, [SP, #34]         ; [DPU_3_PIPE] |516| 
	.dwpsn	file "../picojpeg.c",line 518,column 7,is_stmt,isa 1
;----------------------------------------------------------------------
; 518 | if ( ((index & 0xF) > 1) || ((index & 0xF0) > 0x10) )                  
;----------------------------------------------------------------------
        LDRB      A1, [SP, #34]         ; [DPU_3_PIPE] |518| 
        AND       A1, A1, #15           ; [DPU_3_PIPE] |518| 
        CMP       A1, #1                ; [DPU_3_PIPE] |518| 
        BGT       ||$C$L101||           ; [DPU_3_PIPE] |518| 
        ; BRANCHCC OCCURS {||$C$L101||}  ; [] |518| 
;* --------------------------------------------------------------------------*
        LDRB      A1, [SP, #34]         ; [DPU_3_PIPE] |518| 
        AND       A1, A1, #240          ; [DPU_3_PIPE] |518| 
        CMP       A1, #16               ; [DPU_3_PIPE] |518| 
        BLE       ||$C$L102||           ; [DPU_3_PIPE] |518| 
        ; BRANCHCC OCCURS {||$C$L102||}  ; [] |518| 
;* --------------------------------------------------------------------------*
||$C$L101||:    
	.dwpsn	file "../picojpeg.c",line 519,column 10,is_stmt,isa 1
;----------------------------------------------------------------------
; 519 | return PJPG_BAD_DHT_INDEX;                                             
;----------------------------------------------------------------------
        MOVS      A1, #3                ; [DPU_3_PIPE] |519| 
        B         ||$C$L110||           ; [DPU_3_PIPE] |519| 
        ; BRANCH OCCURS {||$C$L110||}    ; [] |519| 
;* --------------------------------------------------------------------------*
||$C$L102||:    
	.dwpsn	file "../picojpeg.c",line 521,column 7,is_stmt,isa 1
;----------------------------------------------------------------------
; 521 | tableIndex = ((index >> 3) & 2) + (index & 1);                         
;----------------------------------------------------------------------
        LDRB      A1, [SP, #34]         ; [DPU_3_PIPE] |521| 
        LDRB      A2, [SP, #34]         ; [DPU_3_PIPE] |521| 
        ASRS      A1, A1, #3            ; [DPU_3_PIPE] |521| 
        AND       A2, A2, #1            ; [DPU_3_PIPE] |521| 
        AND       A1, A1, #2            ; [DPU_3_PIPE] |521| 
        ADDS      A2, A2, A1            ; [DPU_3_PIPE] |521| 
        STRB      A2, [SP, #33]         ; [DPU_3_PIPE] |521| 
	.dwpsn	file "../picojpeg.c",line 523,column 7,is_stmt,isa 1
;----------------------------------------------------------------------
; 523 | pHuffTable = getHuffTable(tableIndex);                                 
;----------------------------------------------------------------------
        LDRB      A1, [SP, #33]         ; [DPU_3_PIPE] |523| 
$C$DW$180	.dwtag  DW_TAG_TI_branch
	.dwattr $C$DW$180, DW_AT_low_pc(0x00)
	.dwattr $C$DW$180, DW_AT_name("getHuffTable")
	.dwattr $C$DW$180, DW_AT_TI_call

        BL        getHuffTable          ; [DPU_3_PIPE] |523| 
        ; CALL OCCURS {getHuffTable }    ; [] |523| 
        STR       A1, [SP, #24]         ; [DPU_3_PIPE] |523| 
	.dwpsn	file "../picojpeg.c",line 524,column 7,is_stmt,isa 1
;----------------------------------------------------------------------
; 524 | pHuffVal = getHuffVal(tableIndex);                                     
;----------------------------------------------------------------------
        LDRB      A1, [SP, #33]         ; [DPU_3_PIPE] |524| 
$C$DW$181	.dwtag  DW_TAG_TI_branch
	.dwattr $C$DW$181, DW_AT_low_pc(0x00)
	.dwattr $C$DW$181, DW_AT_name("getHuffVal")
	.dwattr $C$DW$181, DW_AT_TI_call

        BL        getHuffVal            ; [DPU_3_PIPE] |524| 
        ; CALL OCCURS {getHuffVal }      ; [] |524| 
        STR       A1, [SP, #20]         ; [DPU_3_PIPE] |524| 
	.dwpsn	file "../picojpeg.c",line 526,column 7,is_stmt,isa 1
;----------------------------------------------------------------------
; 526 | gValidHuffTables |= (1 << tableIndex);                                 
;----------------------------------------------------------------------
        LDR       A2, $C$CON31          ; [DPU_3_PIPE] |526| 
        LDRB      A4, [SP, #33]         ; [DPU_3_PIPE] |526| 
        LDRB      A3, [A2, #0]          ; [DPU_3_PIPE] |526| 
        MOVS      A1, #1                ; [DPU_3_PIPE] |526| 
        LSLS      A1, A1, A4            ; [DPU_3_PIPE] |526| 
        ORRS      A1, A1, A3            ; [DPU_3_PIPE] |526| 
        STRB      A1, [A2, #0]          ; [DPU_3_PIPE] |526| 
	.dwpsn	file "../picojpeg.c",line 528,column 7,is_stmt,isa 1
;----------------------------------------------------------------------
; 528 | count = 0;                                                             
;----------------------------------------------------------------------
        MOVS      A1, #0                ; [DPU_3_PIPE] |528| 
        STRH      A1, [SP, #28]         ; [DPU_3_PIPE] |528| 
	.dwpsn	file "../picojpeg.c",line 529,column 12,is_stmt,isa 1
;----------------------------------------------------------------------
; 529 | for (i = 0; i <= 15; i++)                                              
;----------------------------------------------------------------------
        MOVS      A1, #0                ; [DPU_3_PIPE] |529| 
        STRB      A1, [SP, #32]         ; [DPU_3_PIPE] |529| 
	.dwpsn	file "../picojpeg.c",line 529,column 19,is_stmt,isa 1
        LDRB      A1, [SP, #32]         ; [DPU_3_PIPE] |529| 
        CMP       A1, #15               ; [DPU_3_PIPE] |529| 
        BGT       ||$C$L104||           ; [DPU_3_PIPE] |529| 
        ; BRANCHCC OCCURS {||$C$L104||}  ; [] |529| 
;* --------------------------------------------------------------------------*
;*   BEGIN LOOP ||$C$L103||
;*
;*   Loop source line                : 529
;*   Loop closing brace source line  : 534
;*   Known Minimum Trip Count        : 1
;*   Known Maximum Trip Count        : 4294967295
;*   Known Max Trip Count Factor     : 1
;* --------------------------------------------------------------------------*
||$C$L103||:    

$C$DW$182	.dwtag  DW_TAG_lexical_block
	.dwattr $C$DW$182, DW_AT_low_pc(0x00)
	.dwattr $C$DW$182, DW_AT_high_pc(0x00)
$C$DW$183	.dwtag  DW_TAG_variable
	.dwattr $C$DW$183, DW_AT_name("n")
	.dwattr $C$DW$183, DW_AT_TI_symbol_name("n")
	.dwattr $C$DW$183, DW_AT_type(*$C$DW$T$25)
	.dwattr $C$DW$183, DW_AT_location[DW_OP_breg13 36]

	.dwpsn	file "../picojpeg.c",line 531,column 18,is_stmt,isa 1
;----------------------------------------------------------------------
; 531 | uint8 n = (uint8)getBits1(8);                                          
;----------------------------------------------------------------------
        MOVS      A1, #8                ; [DPU_3_PIPE] |531| 
$C$DW$184	.dwtag  DW_TAG_TI_branch
	.dwattr $C$DW$184, DW_AT_low_pc(0x00)
	.dwattr $C$DW$184, DW_AT_name("getBits1")
	.dwattr $C$DW$184, DW_AT_TI_call

        BL        getBits1              ; [DPU_3_PIPE] |531| 
        ; CALL OCCURS {getBits1 }        ; [] |531| 
        STRB      A1, [SP, #36]         ; [DPU_3_PIPE] |531| 
	.dwpsn	file "../picojpeg.c",line 532,column 10,is_stmt,isa 1
;----------------------------------------------------------------------
; 532 | bits[i] = n;                                                           
;----------------------------------------------------------------------
        LDRB      A2, [SP, #32]         ; [DPU_3_PIPE] |532| 
        LDRB      A1, [SP, #36]         ; [DPU_3_PIPE] |532| 
        ADD       A2, SP, A2            ; [DPU_3_PIPE] |532| 
        STRB      A1, [A2, #2]          ; [DPU_3_PIPE] |532| 
	.dwpsn	file "../picojpeg.c",line 533,column 10,is_stmt,isa 1
;----------------------------------------------------------------------
; 533 | count = (uint16)(count + n);                                           
;----------------------------------------------------------------------
        LDRH      A1, [SP, #28]         ; [DPU_3_PIPE] |533| 
        LDRB      A2, [SP, #36]         ; [DPU_3_PIPE] |533| 
        ADDS      A1, A1, A2            ; [DPU_3_PIPE] |533| 
        STRH      A1, [SP, #28]         ; [DPU_3_PIPE] |533| 
	.dwendtag $C$DW$182

	.dwpsn	file "../picojpeg.c",line 529,column 28,is_stmt,isa 1
        LDRB      A1, [SP, #32]         ; [DPU_3_PIPE] |529| 
        ADDS      A1, A1, #1            ; [DPU_3_PIPE] |529| 
        STRB      A1, [SP, #32]         ; [DPU_3_PIPE] |529| 
	.dwpsn	file "../picojpeg.c",line 529,column 19,is_stmt,isa 1
        LDRB      A1, [SP, #32]         ; [DPU_3_PIPE] |529| 
        CMP       A1, #15               ; [DPU_3_PIPE] |529| 
        BLE       ||$C$L103||           ; [DPU_3_PIPE] |529| 
        ; BRANCHCC OCCURS {||$C$L103||}  ; [] |529| 
;* --------------------------------------------------------------------------*
||$C$L104||:    
	.dwpsn	file "../picojpeg.c",line 536,column 7,is_stmt,isa 1
;----------------------------------------------------------------------
; 536 | if (count > getMaxHuffCodes(tableIndex))                               
;----------------------------------------------------------------------
        LDRB      A1, [SP, #33]         ; [DPU_3_PIPE] |536| 
$C$DW$185	.dwtag  DW_TAG_TI_branch
	.dwattr $C$DW$185, DW_AT_low_pc(0x00)
	.dwattr $C$DW$185, DW_AT_name("getMaxHuffCodes")
	.dwattr $C$DW$185, DW_AT_TI_call

        BL        getMaxHuffCodes       ; [DPU_3_PIPE] |536| 
        ; CALL OCCURS {getMaxHuffCodes }  ; [] |536| 
        LDRH      A2, [SP, #28]         ; [DPU_3_PIPE] |536| 
        CMP       A1, A2                ; [DPU_3_PIPE] |536| 
        BGE       ||$C$L105||           ; [DPU_3_PIPE] |536| 
        ; BRANCHCC OCCURS {||$C$L105||}  ; [] |536| 
;* --------------------------------------------------------------------------*
	.dwpsn	file "../picojpeg.c",line 537,column 10,is_stmt,isa 1
;----------------------------------------------------------------------
; 537 | return PJPG_BAD_DHT_COUNTS;                                            
;----------------------------------------------------------------------
        MOVS      A1, #2                ; [DPU_3_PIPE] |537| 
        B         ||$C$L110||           ; [DPU_3_PIPE] |537| 
        ; BRANCH OCCURS {||$C$L110||}    ; [] |537| 
;* --------------------------------------------------------------------------*
||$C$L105||:    
	.dwpsn	file "../picojpeg.c",line 539,column 12,is_stmt,isa 1
;----------------------------------------------------------------------
; 539 | for (i = 0; i < count; i++)                                            
;----------------------------------------------------------------------
        MOVS      A1, #0                ; [DPU_3_PIPE] |539| 
        STRB      A1, [SP, #32]         ; [DPU_3_PIPE] |539| 
        B         ||$C$L107||           ; [DPU_3_PIPE] |539| 
        ; BRANCH OCCURS {||$C$L107||}    ; [] |539| 
;* --------------------------------------------------------------------------*
||$C$L106||:    
	.dwpsn	file "../picojpeg.c",line 540,column 10,is_stmt,isa 1
;----------------------------------------------------------------------
; 540 | pHuffVal[i] = (uint8)getBits1(8);                                      
;----------------------------------------------------------------------
        MOVS      A1, #8                ; [DPU_3_PIPE] |540| 
$C$DW$186	.dwtag  DW_TAG_TI_branch
	.dwattr $C$DW$186, DW_AT_low_pc(0x00)
	.dwattr $C$DW$186, DW_AT_name("getBits1")
	.dwattr $C$DW$186, DW_AT_TI_call

        BL        getBits1              ; [DPU_3_PIPE] |540| 
        ; CALL OCCURS {getBits1 }        ; [] |540| 
        LDR       A2, [SP, #20]         ; [DPU_3_PIPE] |540| 
        LDRB      A3, [SP, #32]         ; [DPU_3_PIPE] |540| 
        STRB      A1, [A3, +A2]         ; [DPU_3_PIPE] |540| 
	.dwpsn	file "../picojpeg.c",line 539,column 30,is_stmt,isa 1
        LDRB      A1, [SP, #32]         ; [DPU_3_PIPE] |539| 
        ADDS      A1, A1, #1            ; [DPU_3_PIPE] |539| 
        STRB      A1, [SP, #32]         ; [DPU_3_PIPE] |539| 
;* --------------------------------------------------------------------------*
;*   BEGIN LOOP ||$C$L107||
;* --------------------------------------------------------------------------*
||$C$L107||:    
	.dwpsn	file "../picojpeg.c",line 539,column 19,is_stmt,isa 1
        LDRH      A1, [SP, #28]         ; [DPU_3_PIPE] |539| 
        LDRB      A2, [SP, #32]         ; [DPU_3_PIPE] |539| 
        CMP       A1, A2                ; [DPU_3_PIPE] |539| 
        BGT       ||$C$L106||           ; [DPU_3_PIPE] |539| 
        ; BRANCHCC OCCURS {||$C$L106||}  ; [] |539| 
;* --------------------------------------------------------------------------*
	.dwpsn	file "../picojpeg.c",line 542,column 7,is_stmt,isa 1
;----------------------------------------------------------------------
; 542 | totalRead = 1 + 16 + count;                                            
;----------------------------------------------------------------------
        LDRH      A1, [SP, #28]         ; [DPU_3_PIPE] |542| 
        ADDS      A1, A1, #17           ; [DPU_3_PIPE] |542| 
        STRH      A1, [SP, #30]         ; [DPU_3_PIPE] |542| 
	.dwpsn	file "../picojpeg.c",line 544,column 7,is_stmt,isa 1
;----------------------------------------------------------------------
; 544 | if (left < totalRead)                                                  
;----------------------------------------------------------------------
        LDRH      A2, [SP, #0]          ; [DPU_3_PIPE] |544| 
        LDRH      A1, [SP, #30]         ; [DPU_3_PIPE] |544| 
        CMP       A1, A2                ; [DPU_3_PIPE] |544| 
        BLE       ||$C$L108||           ; [DPU_3_PIPE] |544| 
        ; BRANCHCC OCCURS {||$C$L108||}  ; [] |544| 
;* --------------------------------------------------------------------------*
	.dwpsn	file "../picojpeg.c",line 545,column 10,is_stmt,isa 1
;----------------------------------------------------------------------
; 545 | return PJPG_BAD_DHT_MARKER;                                            
;----------------------------------------------------------------------
        MOVS      A1, #4                ; [DPU_3_PIPE] |545| 
        B         ||$C$L110||           ; [DPU_3_PIPE] |545| 
        ; BRANCH OCCURS {||$C$L110||}    ; [] |545| 
;* --------------------------------------------------------------------------*
||$C$L108||:    
	.dwpsn	file "../picojpeg.c",line 547,column 7,is_stmt,isa 1
;----------------------------------------------------------------------
; 547 | left = (uint16)(left - totalRead);                                     
;----------------------------------------------------------------------
        LDRH      A2, [SP, #30]         ; [DPU_3_PIPE] |547| 
        LDRH      A1, [SP, #0]          ; [DPU_3_PIPE] |547| 
        SUBS      A1, A1, A2            ; [DPU_3_PIPE] |547| 
        STRH      A1, [SP, #0]          ; [DPU_3_PIPE] |547| 
	.dwpsn	file "../picojpeg.c",line 549,column 7,is_stmt,isa 1
;----------------------------------------------------------------------
; 549 | huffCreate(bits, pHuffTable);                                          
;----------------------------------------------------------------------
        LDR       A2, [SP, #24]         ; [DPU_3_PIPE] |549| 
        ADD       A1, SP, #2            ; [DPU_3_PIPE] |549| 
$C$DW$187	.dwtag  DW_TAG_TI_branch
	.dwattr $C$DW$187, DW_AT_low_pc(0x00)
	.dwattr $C$DW$187, DW_AT_name("huffCreate")
	.dwattr $C$DW$187, DW_AT_TI_call

        BL        huffCreate            ; [DPU_3_PIPE] |549| 
        ; CALL OCCURS {huffCreate }      ; [] |549| 
	.dwendtag $C$DW$171

	.dwpsn	file "../picojpeg.c",line 509,column 4,is_stmt,isa 1
        LDRH      A1, [SP, #0]          ; [DPU_3_PIPE] |509| 
        CMP       A1, #0                ; [DPU_3_PIPE] |509| 
        BNE       ||$C$L100||           ; [DPU_3_PIPE] |509| 
        ; BRANCHCC OCCURS {||$C$L100||}  ; [] |509| 
;* --------------------------------------------------------------------------*
||$C$L109||:    
	.dwpsn	file "../picojpeg.c",line 552,column 4,is_stmt,isa 1
;----------------------------------------------------------------------
; 552 | return 0;                                                              
;----------------------------------------------------------------------
        MOVS      A1, #0                ; [DPU_3_PIPE] |552| 
;* --------------------------------------------------------------------------*
||$C$L110||:    
	.dwpsn	file "../picojpeg.c",line 553,column 1,is_stmt,isa 1
        ADD       SP, SP, #44           ; [DPU_3_PIPE] 
	.dwcfi	cfa_offset, 4
$C$DW$188	.dwtag  DW_TAG_TI_branch
	.dwattr $C$DW$188, DW_AT_low_pc(0x00)
	.dwattr $C$DW$188, DW_AT_TI_return

        POP       {PC}                  ; [DPU_3_PIPE] 
	.dwcfi	cfa_offset, 0
        ; BRANCH OCCURS                  ; [] 
	.dwattr $C$DW$167, DW_AT_TI_end_file("../picojpeg.c")
	.dwattr $C$DW$167, DW_AT_TI_end_line(0x229)
	.dwattr $C$DW$167, DW_AT_TI_end_column(0x01)
	.dwendentry
	.dwendtag $C$DW$167

	.sect	".text"
	.clink
	.thumbfunc readDQTMarker
	.thumb

$C$DW$189	.dwtag  DW_TAG_subprogram
	.dwattr $C$DW$189, DW_AT_name("readDQTMarker")
	.dwattr $C$DW$189, DW_AT_low_pc(readDQTMarker)
	.dwattr $C$DW$189, DW_AT_high_pc(0x00)
	.dwattr $C$DW$189, DW_AT_TI_symbol_name("readDQTMarker")
	.dwattr $C$DW$189, DW_AT_type(*$C$DW$T$25)
	.dwattr $C$DW$189, DW_AT_TI_begin_file("../picojpeg.c")
	.dwattr $C$DW$189, DW_AT_TI_begin_line(0x22d)
	.dwattr $C$DW$189, DW_AT_TI_begin_column(0x0e)
	.dwattr $C$DW$189, DW_AT_decl_file("../picojpeg.c")
	.dwattr $C$DW$189, DW_AT_decl_line(0x22d)
	.dwattr $C$DW$189, DW_AT_decl_column(0x0e)
	.dwattr $C$DW$189, DW_AT_TI_max_frame_size(0x18)
	.dwpsn	file "../picojpeg.c",line 558,column 1,is_stmt,address readDQTMarker,isa 1

	.dwfde $C$DW$CIE, readDQTMarker
;----------------------------------------------------------------------
; 557 | static uint8 readDQTMarker(void)                                       
;----------------------------------------------------------------------

;*****************************************************************************
;* FUNCTION NAME: readDQTMarker                                              *
;*                                                                           *
;*   Regs Modified     : A1,A2,A3,A4,V9,SP,LR,SR,D0,D0_hi,D1,D1_hi,D2,D2_hi, *
;*                           D3,D3_hi,D4,D4_hi,D5,D5_hi,D6,D6_hi,D7,D7_hi,   *
;*                           FPEXC,FPSCR                                     *
;*   Regs Used         : A1,A2,A3,A4,V9,SP,LR,SR,D0,D0_hi,D1,D1_hi,D2,D2_hi, *
;*                           D3,D3_hi,D4,D4_hi,D5,D5_hi,D6,D6_hi,D7,D7_hi,   *
;*                           FPEXC,FPSCR                                     *
;*   Local Frame Size  : 0 Args + 16 Auto + 4 Save = 20 byte                 *
;*****************************************************************************
readDQTMarker:
;* --------------------------------------------------------------------------*
	.dwcfi	cfa_offset, 0
        PUSH      {LR}                  ; [DPU_3_PIPE] 
	.dwcfi	cfa_offset, 4
	.dwcfi	save_reg_to_mem, 14, -4
        SUB       SP, SP, #20           ; [DPU_3_PIPE] 
	.dwcfi	cfa_offset, 24
$C$DW$190	.dwtag  DW_TAG_variable
	.dwattr $C$DW$190, DW_AT_name("left")
	.dwattr $C$DW$190, DW_AT_TI_symbol_name("left")
	.dwattr $C$DW$190, DW_AT_type(*$C$DW$T$23)
	.dwattr $C$DW$190, DW_AT_location[DW_OP_breg13 0]

	.dwpsn	file "../picojpeg.c",line 559,column 16,is_stmt,isa 1
;----------------------------------------------------------------------
; 559 | uint16 left = getBits1(16);                                            
;----------------------------------------------------------------------
        MOVS      A1, #16               ; [DPU_3_PIPE] |559| 
$C$DW$191	.dwtag  DW_TAG_TI_branch
	.dwattr $C$DW$191, DW_AT_low_pc(0x00)
	.dwattr $C$DW$191, DW_AT_name("getBits1")
	.dwattr $C$DW$191, DW_AT_TI_call

        BL        getBits1              ; [DPU_3_PIPE] |559| 
        ; CALL OCCURS {getBits1 }        ; [] |559| 
        STRH      A1, [SP, #0]          ; [DPU_3_PIPE] |559| 
	.dwpsn	file "../picojpeg.c",line 561,column 4,is_stmt,isa 1
;----------------------------------------------------------------------
; 561 | if (left < 2)                                                          
;----------------------------------------------------------------------
        LDRH      A1, [SP, #0]          ; [DPU_3_PIPE] |561| 
        CMP       A1, #2                ; [DPU_3_PIPE] |561| 
        BGE       ||$C$L111||           ; [DPU_3_PIPE] |561| 
        ; BRANCHCC OCCURS {||$C$L111||}  ; [] |561| 
;* --------------------------------------------------------------------------*
	.dwpsn	file "../picojpeg.c",line 562,column 7,is_stmt,isa 1
;----------------------------------------------------------------------
; 562 | return PJPG_BAD_DQT_MARKER;                                            
;----------------------------------------------------------------------
        MOVS      A1, #5                ; [DPU_3_PIPE] |562| 
        B         ||$C$L126||           ; [DPU_3_PIPE] |562| 
        ; BRANCH OCCURS {||$C$L126||}    ; [] |562| 
;* --------------------------------------------------------------------------*
||$C$L111||:    
	.dwpsn	file "../picojpeg.c",line 564,column 4,is_stmt,isa 1
;----------------------------------------------------------------------
; 564 | left -= 2;                                                             
;----------------------------------------------------------------------
        LDRH      A1, [SP, #0]          ; [DPU_3_PIPE] |564| 
        SUBS      A1, A1, #2            ; [DPU_3_PIPE] |564| 
        STRH      A1, [SP, #0]          ; [DPU_3_PIPE] |564| 
	.dwpsn	file "../picojpeg.c",line 566,column 4,is_stmt,isa 1
;----------------------------------------------------------------------
; 566 | while (left)                                                           
; 568 |    uint8 i;                                                            
;----------------------------------------------------------------------
        LDRH      A1, [SP, #0]          ; [DPU_3_PIPE] |566| 
        CMP       A1, #0                ; [DPU_3_PIPE] |566| 
        BEQ       ||$C$L125||           ; [DPU_3_PIPE] |566| 
        ; BRANCHCC OCCURS {||$C$L125||}  ; [] |566| 
;* --------------------------------------------------------------------------*
;*   BEGIN LOOP ||$C$L112||
;*
;*   Loop source line                : 566
;*   Loop closing brace source line  : 605
;*   Known Minimum Trip Count        : 1
;*   Known Maximum Trip Count        : 4294967295
;*   Known Max Trip Count Factor     : 1
;* --------------------------------------------------------------------------*
||$C$L112||:    

$C$DW$192	.dwtag  DW_TAG_lexical_block
	.dwattr $C$DW$192, DW_AT_low_pc(0x00)
	.dwattr $C$DW$192, DW_AT_high_pc(0x00)
$C$DW$193	.dwtag  DW_TAG_variable
	.dwattr $C$DW$193, DW_AT_name("totalRead")
	.dwattr $C$DW$193, DW_AT_TI_symbol_name("totalRead")
	.dwattr $C$DW$193, DW_AT_type(*$C$DW$T$23)
	.dwattr $C$DW$193, DW_AT_location[DW_OP_breg13 4]

$C$DW$194	.dwtag  DW_TAG_variable
	.dwattr $C$DW$194, DW_AT_name("i")
	.dwattr $C$DW$194, DW_AT_TI_symbol_name("i")
	.dwattr $C$DW$194, DW_AT_type(*$C$DW$T$25)
	.dwattr $C$DW$194, DW_AT_location[DW_OP_breg13 6]

$C$DW$195	.dwtag  DW_TAG_variable
	.dwattr $C$DW$195, DW_AT_name("n")
	.dwattr $C$DW$195, DW_AT_TI_symbol_name("n")
	.dwattr $C$DW$195, DW_AT_type(*$C$DW$T$25)
	.dwattr $C$DW$195, DW_AT_location[DW_OP_breg13 7]

$C$DW$196	.dwtag  DW_TAG_variable
	.dwattr $C$DW$196, DW_AT_name("prec")
	.dwattr $C$DW$196, DW_AT_TI_symbol_name("prec")
	.dwattr $C$DW$196, DW_AT_type(*$C$DW$T$25)
	.dwattr $C$DW$196, DW_AT_location[DW_OP_breg13 8]

	.dwpsn	file "../picojpeg.c",line 569,column 15,is_stmt,isa 1
;----------------------------------------------------------------------
; 569 | uint8 n = (uint8)getBits1(8);                                          
;----------------------------------------------------------------------
        MOVS      A1, #8                ; [DPU_3_PIPE] |569| 
$C$DW$197	.dwtag  DW_TAG_TI_branch
	.dwattr $C$DW$197, DW_AT_low_pc(0x00)
	.dwattr $C$DW$197, DW_AT_name("getBits1")
	.dwattr $C$DW$197, DW_AT_TI_call

        BL        getBits1              ; [DPU_3_PIPE] |569| 
        ; CALL OCCURS {getBits1 }        ; [] |569| 
        STRB      A1, [SP, #7]          ; [DPU_3_PIPE] |569| 
	.dwpsn	file "../picojpeg.c",line 570,column 18,is_stmt,isa 1
;----------------------------------------------------------------------
; 570 | uint8 prec = n >> 4;                                                   
; 571 | uint16 totalRead;                                                      
;----------------------------------------------------------------------
        LDRB      A1, [SP, #7]          ; [DPU_3_PIPE] |570| 
        ASRS      A1, A1, #4            ; [DPU_3_PIPE] |570| 
        STRB      A1, [SP, #8]          ; [DPU_3_PIPE] |570| 
	.dwpsn	file "../picojpeg.c",line 573,column 7,is_stmt,isa 1
;----------------------------------------------------------------------
; 573 | n &= 0x0F;                                                             
;----------------------------------------------------------------------
        LDRB      A1, [SP, #7]          ; [DPU_3_PIPE] |573| 
        AND       A1, A1, #15           ; [DPU_3_PIPE] |573| 
        STRB      A1, [SP, #7]          ; [DPU_3_PIPE] |573| 
	.dwpsn	file "../picojpeg.c",line 575,column 7,is_stmt,isa 1
;----------------------------------------------------------------------
; 575 | if (n > 1)                                                             
;----------------------------------------------------------------------
        LDRB      A1, [SP, #7]          ; [DPU_3_PIPE] |575| 
        CMP       A1, #1                ; [DPU_3_PIPE] |575| 
        BLE       ||$C$L113||           ; [DPU_3_PIPE] |575| 
        ; BRANCHCC OCCURS {||$C$L113||}  ; [] |575| 
;* --------------------------------------------------------------------------*
	.dwpsn	file "../picojpeg.c",line 576,column 10,is_stmt,isa 1
;----------------------------------------------------------------------
; 576 | return PJPG_BAD_DQT_TABLE;                                             
;----------------------------------------------------------------------
        MOVS      A1, #6                ; [DPU_3_PIPE] |576| 
        B         ||$C$L126||           ; [DPU_3_PIPE] |576| 
        ; BRANCH OCCURS {||$C$L126||}    ; [] |576| 
;* --------------------------------------------------------------------------*
||$C$L113||:    
	.dwpsn	file "../picojpeg.c",line 578,column 7,is_stmt,isa 1
;----------------------------------------------------------------------
; 578 | gValidQuantTables |= (n ? 2 : 1);                                      
; 580 | // read quantization entries, in zag order                             
;----------------------------------------------------------------------
        LDRB      A1, [SP, #7]          ; [DPU_3_PIPE] |578| 
        LDR       A2, $C$CON32          ; [DPU_3_PIPE] |578| 
        CBZ       A1, ||$C$L114||       ; [] 
        ; BRANCHCC OCCURS {||$C$L114||}  ; [] |578| 
;* --------------------------------------------------------------------------*
        MOVS      A1, #2                ; [DPU_3_PIPE] |578| 
        B         ||$C$L115||           ; [DPU_3_PIPE] |578| 
        ; BRANCH OCCURS {||$C$L115||}    ; [] |578| 
;* --------------------------------------------------------------------------*
||$C$L114||:    
        MOVS      A1, #1                ; [DPU_3_PIPE] |578| 
;* --------------------------------------------------------------------------*
||$C$L115||:    
        LDRB      A3, [A2, #0]          ; [DPU_3_PIPE] |578| 
        ORRS      A1, A1, A3            ; [DPU_3_PIPE] |578| 
        STRB      A1, [A2, #0]          ; [DPU_3_PIPE] |578| 
	.dwpsn	file "../picojpeg.c",line 581,column 12,is_stmt,isa 1
;----------------------------------------------------------------------
; 581 | for (i = 0; i < 64; i++)                                               
;----------------------------------------------------------------------
        MOVS      A1, #0                ; [DPU_3_PIPE] |581| 
        STRB      A1, [SP, #6]          ; [DPU_3_PIPE] |581| 
	.dwpsn	file "../picojpeg.c",line 581,column 19,is_stmt,isa 1
        LDRB      A1, [SP, #6]          ; [DPU_3_PIPE] |581| 
        CMP       A1, #64               ; [DPU_3_PIPE] |581| 
        BGE       ||$C$L120||           ; [DPU_3_PIPE] |581| 
        ; BRANCHCC OCCURS {||$C$L120||}  ; [] |581| 
;* --------------------------------------------------------------------------*
;*   BEGIN LOOP ||$C$L116||
;*
;*   Loop source line                : 581
;*   Loop closing brace source line  : 592
;*   Known Minimum Trip Count        : 1
;*   Known Maximum Trip Count        : 4294967295
;*   Known Max Trip Count Factor     : 1
;* --------------------------------------------------------------------------*
||$C$L116||:    

$C$DW$198	.dwtag  DW_TAG_lexical_block
	.dwattr $C$DW$198, DW_AT_low_pc(0x00)
	.dwattr $C$DW$198, DW_AT_high_pc(0x00)
$C$DW$199	.dwtag  DW_TAG_variable
	.dwattr $C$DW$199, DW_AT_name("temp")
	.dwattr $C$DW$199, DW_AT_TI_symbol_name("temp")
	.dwattr $C$DW$199, DW_AT_type(*$C$DW$T$23)
	.dwattr $C$DW$199, DW_AT_location[DW_OP_breg13 12]

	.dwpsn	file "../picojpeg.c",line 583,column 22,is_stmt,isa 1
;----------------------------------------------------------------------
; 583 | uint16 temp = getBits1(8);                                             
;----------------------------------------------------------------------
        MOVS      A1, #8                ; [DPU_3_PIPE] |583| 
$C$DW$200	.dwtag  DW_TAG_TI_branch
	.dwattr $C$DW$200, DW_AT_low_pc(0x00)
	.dwattr $C$DW$200, DW_AT_name("getBits1")
	.dwattr $C$DW$200, DW_AT_TI_call

        BL        getBits1              ; [DPU_3_PIPE] |583| 
        ; CALL OCCURS {getBits1 }        ; [] |583| 
        STRH      A1, [SP, #12]         ; [DPU_3_PIPE] |583| 
	.dwpsn	file "../picojpeg.c",line 585,column 10,is_stmt,isa 1
;----------------------------------------------------------------------
; 585 | if (prec)                                                              
;----------------------------------------------------------------------
        LDRB      A1, [SP, #8]          ; [DPU_3_PIPE] |585| 
        CBZ       A1, ||$C$L117||       ; [] 
        ; BRANCHCC OCCURS {||$C$L117||}  ; [] |585| 
;* --------------------------------------------------------------------------*
	.dwpsn	file "../picojpeg.c",line 586,column 13,is_stmt,isa 1
;----------------------------------------------------------------------
; 586 | temp = (temp << 8) + getBits1(8);                                      
;----------------------------------------------------------------------
        MOVS      A1, #8                ; [DPU_3_PIPE] |586| 
$C$DW$201	.dwtag  DW_TAG_TI_branch
	.dwattr $C$DW$201, DW_AT_low_pc(0x00)
	.dwattr $C$DW$201, DW_AT_name("getBits1")
	.dwattr $C$DW$201, DW_AT_TI_call

        BL        getBits1              ; [DPU_3_PIPE] |586| 
        ; CALL OCCURS {getBits1 }        ; [] |586| 
        LDRH      A2, [SP, #12]         ; [DPU_3_PIPE] |586| 
        ADD       A1, A1, A2, LSL #8    ; [DPU_3_PIPE] |586| 
        STRH      A1, [SP, #12]         ; [DPU_3_PIPE] |586| 
;* --------------------------------------------------------------------------*
||$C$L117||:    
	.dwpsn	file "../picojpeg.c",line 588,column 10,is_stmt,isa 1
;----------------------------------------------------------------------
; 588 | if (n)                                                                 
;----------------------------------------------------------------------
        LDRB      A1, [SP, #7]          ; [DPU_3_PIPE] |588| 
        CBZ       A1, ||$C$L118||       ; [] 
        ; BRANCHCC OCCURS {||$C$L118||}  ; [] |588| 
;* --------------------------------------------------------------------------*
	.dwpsn	file "../picojpeg.c",line 589,column 13,is_stmt,isa 1
;----------------------------------------------------------------------
; 589 | gQuant1[i] = (int16)temp;                                              
; 590 | else                                                                   
;----------------------------------------------------------------------
        LDRB      A2, [SP, #6]          ; [DPU_3_PIPE] |589| 
        LDR       A3, $C$CON33          ; [DPU_3_PIPE] |589| 
        LDRH      A1, [SP, #12]         ; [DPU_3_PIPE] |589| 
        STRH      A1, [A3, +A2, LSL #1] ; [DPU_3_PIPE] |589| 
        B         ||$C$L119||           ; [DPU_3_PIPE] |589| 
        ; BRANCH OCCURS {||$C$L119||}    ; [] |589| 
;* --------------------------------------------------------------------------*
||$C$L118||:    
	.dwpsn	file "../picojpeg.c",line 591,column 13,is_stmt,isa 1
;----------------------------------------------------------------------
; 591 | gQuant0[i] = (int16)temp;                                              
;----------------------------------------------------------------------
        LDRB      A2, [SP, #6]          ; [DPU_3_PIPE] |591| 
        LDR       A3, $C$CON34          ; [DPU_3_PIPE] |591| 
        LDRH      A1, [SP, #12]         ; [DPU_3_PIPE] |591| 
        STRH      A1, [A3, +A2, LSL #1] ; [DPU_3_PIPE] |591| 
;* --------------------------------------------------------------------------*
||$C$L119||:    
	.dwendtag $C$DW$198

	.dwpsn	file "../picojpeg.c",line 581,column 27,is_stmt,isa 1
        LDRB      A1, [SP, #6]          ; [DPU_3_PIPE] |581| 
        ADDS      A1, A1, #1            ; [DPU_3_PIPE] |581| 
        STRB      A1, [SP, #6]          ; [DPU_3_PIPE] |581| 
	.dwpsn	file "../picojpeg.c",line 581,column 19,is_stmt,isa 1
        LDRB      A1, [SP, #6]          ; [DPU_3_PIPE] |581| 
        CMP       A1, #64               ; [DPU_3_PIPE] |581| 
        BLT       ||$C$L116||           ; [DPU_3_PIPE] |581| 
        ; BRANCHCC OCCURS {||$C$L116||}  ; [] |581| 
;* --------------------------------------------------------------------------*
||$C$L120||:    
	.dwpsn	file "../picojpeg.c",line 594,column 7,is_stmt,isa 1
;----------------------------------------------------------------------
; 594 | createWinogradQuant(n ? gQuant1 : gQuant0);                            
;----------------------------------------------------------------------
        LDRB      A1, [SP, #7]          ; [DPU_3_PIPE] |594| 
        CBZ       A1, ||$C$L121||       ; [] 
        ; BRANCHCC OCCURS {||$C$L121||}  ; [] |594| 
;* --------------------------------------------------------------------------*
        LDR       A1, $C$CON33          ; [DPU_3_PIPE] |594| 
        B         ||$C$L122||           ; [DPU_3_PIPE] |594| 
        ; BRANCH OCCURS {||$C$L122||}    ; [] |594| 
;* --------------------------------------------------------------------------*
||$C$L121||:    
        LDR       A1, $C$CON34          ; [DPU_3_PIPE] |594| 
;* --------------------------------------------------------------------------*
||$C$L122||:    
$C$DW$202	.dwtag  DW_TAG_TI_branch
	.dwattr $C$DW$202, DW_AT_low_pc(0x00)
	.dwattr $C$DW$202, DW_AT_name("createWinogradQuant")
	.dwattr $C$DW$202, DW_AT_TI_call

        BL        createWinogradQuant   ; [DPU_3_PIPE] |594| 
        ; CALL OCCURS {createWinogradQuant }  ; [] |594| 
	.dwpsn	file "../picojpeg.c",line 596,column 7,is_stmt,isa 1
;----------------------------------------------------------------------
; 596 | totalRead = 64 + 1;                                                    
;----------------------------------------------------------------------
        MOVS      A1, #65               ; [DPU_3_PIPE] |596| 
        STRH      A1, [SP, #4]          ; [DPU_3_PIPE] |596| 
	.dwpsn	file "../picojpeg.c",line 598,column 7,is_stmt,isa 1
;----------------------------------------------------------------------
; 598 | if (prec)                                                              
;----------------------------------------------------------------------
        LDRB      A1, [SP, #8]          ; [DPU_3_PIPE] |598| 
        CBZ       A1, ||$C$L123||       ; [] 
        ; BRANCHCC OCCURS {||$C$L123||}  ; [] |598| 
;* --------------------------------------------------------------------------*
	.dwpsn	file "../picojpeg.c",line 599,column 10,is_stmt,isa 1
;----------------------------------------------------------------------
; 599 | totalRead += 64;                                                       
;----------------------------------------------------------------------
        LDRH      A1, [SP, #4]          ; [DPU_3_PIPE] |599| 
        ADDS      A1, A1, #64           ; [DPU_3_PIPE] |599| 
        STRH      A1, [SP, #4]          ; [DPU_3_PIPE] |599| 
;* --------------------------------------------------------------------------*
||$C$L123||:    
	.dwpsn	file "../picojpeg.c",line 601,column 7,is_stmt,isa 1
;----------------------------------------------------------------------
; 601 | if (left < totalRead)                                                  
;----------------------------------------------------------------------
        LDRH      A1, [SP, #4]          ; [DPU_3_PIPE] |601| 
        LDRH      A2, [SP, #0]          ; [DPU_3_PIPE] |601| 
        CMP       A1, A2                ; [DPU_3_PIPE] |601| 
        BLE       ||$C$L124||           ; [DPU_3_PIPE] |601| 
        ; BRANCHCC OCCURS {||$C$L124||}  ; [] |601| 
;* --------------------------------------------------------------------------*
	.dwpsn	file "../picojpeg.c",line 602,column 10,is_stmt,isa 1
;----------------------------------------------------------------------
; 602 | return PJPG_BAD_DQT_LENGTH;                                            
;----------------------------------------------------------------------
        MOVS      A1, #21               ; [DPU_3_PIPE] |602| 
        B         ||$C$L126||           ; [DPU_3_PIPE] |602| 
        ; BRANCH OCCURS {||$C$L126||}    ; [] |602| 
;* --------------------------------------------------------------------------*
||$C$L124||:    
	.dwpsn	file "../picojpeg.c",line 604,column 7,is_stmt,isa 1
;----------------------------------------------------------------------
; 604 | left = (uint16)(left - totalRead);                                     
;----------------------------------------------------------------------
        LDRH      A2, [SP, #4]          ; [DPU_3_PIPE] |604| 
        LDRH      A1, [SP, #0]          ; [DPU_3_PIPE] |604| 
        SUBS      A1, A1, A2            ; [DPU_3_PIPE] |604| 
        STRH      A1, [SP, #0]          ; [DPU_3_PIPE] |604| 
	.dwendtag $C$DW$192

	.dwpsn	file "../picojpeg.c",line 566,column 4,is_stmt,isa 1
        LDRH      A1, [SP, #0]          ; [DPU_3_PIPE] |566| 
        CMP       A1, #0                ; [DPU_3_PIPE] |566| 
        BNE       ||$C$L112||           ; [DPU_3_PIPE] |566| 
        ; BRANCHCC OCCURS {||$C$L112||}  ; [] |566| 
;* --------------------------------------------------------------------------*
||$C$L125||:    
	.dwpsn	file "../picojpeg.c",line 607,column 4,is_stmt,isa 1
;----------------------------------------------------------------------
; 607 | return 0;                                                              
;----------------------------------------------------------------------
        MOVS      A1, #0                ; [DPU_3_PIPE] |607| 
;* --------------------------------------------------------------------------*
||$C$L126||:    
	.dwpsn	file "../picojpeg.c",line 608,column 1,is_stmt,isa 1
        ADD       SP, SP, #20           ; [DPU_3_PIPE] 
	.dwcfi	cfa_offset, 4
$C$DW$203	.dwtag  DW_TAG_TI_branch
	.dwattr $C$DW$203, DW_AT_low_pc(0x00)
	.dwattr $C$DW$203, DW_AT_TI_return

        POP       {PC}                  ; [DPU_3_PIPE] 
	.dwcfi	cfa_offset, 0
        ; BRANCH OCCURS                  ; [] 
	.dwattr $C$DW$189, DW_AT_TI_end_file("../picojpeg.c")
	.dwattr $C$DW$189, DW_AT_TI_end_line(0x260)
	.dwattr $C$DW$189, DW_AT_TI_end_column(0x01)
	.dwendentry
	.dwendtag $C$DW$189

;******************************************************************************
;* CONSTANT TABLE                                                             *
;******************************************************************************
	.sect	".text"
	.align	4
||$C$CON23||:	.bits	gHuffTab0,32
	.align	4
||$C$CON24||:	.bits	gHuffTab1,32
	.align	4
||$C$CON25||:	.bits	gHuffTab2,32
	.align	4
||$C$CON26||:	.bits	gHuffTab3,32
	.align	4
||$C$CON27||:	.bits	gHuffVal0,32
	.align	4
||$C$CON28||:	.bits	gHuffVal1,32
	.align	4
||$C$CON29||:	.bits	gHuffVal2,32
	.align	4
||$C$CON30||:	.bits	gHuffVal3,32
	.sect	".text"
	.clink
	.thumbfunc readSOFMarker
	.thumb

$C$DW$204	.dwtag  DW_TAG_subprogram
	.dwattr $C$DW$204, DW_AT_name("readSOFMarker")
	.dwattr $C$DW$204, DW_AT_low_pc(readSOFMarker)
	.dwattr $C$DW$204, DW_AT_high_pc(0x00)
	.dwattr $C$DW$204, DW_AT_TI_symbol_name("readSOFMarker")
	.dwattr $C$DW$204, DW_AT_type(*$C$DW$T$25)
	.dwattr $C$DW$204, DW_AT_TI_begin_file("../picojpeg.c")
	.dwattr $C$DW$204, DW_AT_TI_begin_line(0x262)
	.dwattr $C$DW$204, DW_AT_TI_begin_column(0x0e)
	.dwattr $C$DW$204, DW_AT_decl_file("../picojpeg.c")
	.dwattr $C$DW$204, DW_AT_decl_line(0x262)
	.dwattr $C$DW$204, DW_AT_decl_column(0x0e)
	.dwattr $C$DW$204, DW_AT_TI_max_frame_size(0x08)
	.dwpsn	file "../picojpeg.c",line 611,column 1,is_stmt,address readSOFMarker,isa 1

	.dwfde $C$DW$CIE, readSOFMarker
;----------------------------------------------------------------------
; 610 | static uint8 readSOFMarker(void)                                       
; 612 | uint8 i;                                                               
;----------------------------------------------------------------------

;*****************************************************************************
;* FUNCTION NAME: readSOFMarker                                              *
;*                                                                           *
;*   Regs Modified     : A1,A2,A3,A4,V9,SP,LR,SR,D0,D0_hi,D1,D1_hi,D2,D2_hi, *
;*                           D3,D3_hi,D4,D4_hi,D5,D5_hi,D6,D6_hi,D7,D7_hi,   *
;*                           FPEXC,FPSCR                                     *
;*   Regs Used         : A1,A2,A3,A4,V9,SP,LR,SR,D0,D0_hi,D1,D1_hi,D2,D2_hi, *
;*                           D3,D3_hi,D4,D4_hi,D5,D5_hi,D6,D6_hi,D7,D7_hi,   *
;*                           FPEXC,FPSCR                                     *
;*   Local Frame Size  : 0 Args + 4 Auto + 4 Save = 8 byte                   *
;*****************************************************************************
readSOFMarker:
;* --------------------------------------------------------------------------*
	.dwcfi	cfa_offset, 0
        PUSH      {A4, LR}              ; [DPU_3_PIPE] 
	.dwcfi	cfa_offset, 8
	.dwcfi	save_reg_to_mem, 14, -4
	.dwcfi	save_reg_to_mem, 3, -8
$C$DW$205	.dwtag  DW_TAG_variable
	.dwattr $C$DW$205, DW_AT_name("left")
	.dwattr $C$DW$205, DW_AT_TI_symbol_name("left")
	.dwattr $C$DW$205, DW_AT_type(*$C$DW$T$23)
	.dwattr $C$DW$205, DW_AT_location[DW_OP_breg13 0]

$C$DW$206	.dwtag  DW_TAG_variable
	.dwattr $C$DW$206, DW_AT_name("i")
	.dwattr $C$DW$206, DW_AT_TI_symbol_name("i")
	.dwattr $C$DW$206, DW_AT_type(*$C$DW$T$25)
	.dwattr $C$DW$206, DW_AT_location[DW_OP_breg13 2]

	.dwpsn	file "../picojpeg.c",line 613,column 16,is_stmt,isa 1
;----------------------------------------------------------------------
; 613 | uint16 left = getBits1(16);                                            
;----------------------------------------------------------------------
        MOVS      A1, #16               ; [DPU_3_PIPE] |613| 
$C$DW$207	.dwtag  DW_TAG_TI_branch
	.dwattr $C$DW$207, DW_AT_low_pc(0x00)
	.dwattr $C$DW$207, DW_AT_name("getBits1")
	.dwattr $C$DW$207, DW_AT_TI_call

        BL        getBits1              ; [DPU_3_PIPE] |613| 
        ; CALL OCCURS {getBits1 }        ; [] |613| 
        STRH      A1, [SP, #0]          ; [DPU_3_PIPE] |613| 
	.dwpsn	file "../picojpeg.c",line 615,column 4,is_stmt,isa 1
;----------------------------------------------------------------------
; 615 | if (getBits1(8) != 8)                                                  
;----------------------------------------------------------------------
        MOVS      A1, #8                ; [DPU_3_PIPE] |615| 
$C$DW$208	.dwtag  DW_TAG_TI_branch
	.dwattr $C$DW$208, DW_AT_low_pc(0x00)
	.dwattr $C$DW$208, DW_AT_name("getBits1")
	.dwattr $C$DW$208, DW_AT_TI_call

        BL        getBits1              ; [DPU_3_PIPE] |615| 
        ; CALL OCCURS {getBits1 }        ; [] |615| 
        CMP       A1, #8                ; [DPU_3_PIPE] |615| 
        BEQ       ||$C$L127||           ; [DPU_3_PIPE] |615| 
        ; BRANCHCC OCCURS {||$C$L127||}  ; [] |615| 
;* --------------------------------------------------------------------------*
	.dwpsn	file "../picojpeg.c",line 616,column 7,is_stmt,isa 1
;----------------------------------------------------------------------
; 616 | return PJPG_BAD_PRECISION;                                             
;----------------------------------------------------------------------
        MOVS      A1, #7                ; [DPU_3_PIPE] |616| 
        B         ||$C$L137||           ; [DPU_3_PIPE] |616| 
        ; BRANCH OCCURS {||$C$L137||}    ; [] |616| 
;* --------------------------------------------------------------------------*
||$C$L127||:    
	.dwpsn	file "../picojpeg.c",line 618,column 4,is_stmt,isa 1
;----------------------------------------------------------------------
; 618 | gImageYSize = getBits1(16);                                            
;----------------------------------------------------------------------
        MOVS      A1, #16               ; [DPU_3_PIPE] |618| 
$C$DW$209	.dwtag  DW_TAG_TI_branch
	.dwattr $C$DW$209, DW_AT_low_pc(0x00)
	.dwattr $C$DW$209, DW_AT_name("getBits1")
	.dwattr $C$DW$209, DW_AT_TI_call

        BL        getBits1              ; [DPU_3_PIPE] |618| 
        ; CALL OCCURS {getBits1 }        ; [] |618| 
        LDR       A2, $C$CON35          ; [DPU_3_PIPE] |618| 
        STRH      A1, [A2, #0]          ; [DPU_3_PIPE] |618| 
	.dwpsn	file "../picojpeg.c",line 620,column 4,is_stmt,isa 1
;----------------------------------------------------------------------
; 620 | if ((!gImageYSize) || (gImageYSize > PJPG_MAX_HEIGHT))                 
;----------------------------------------------------------------------
        LDR       A1, $C$CON35          ; [DPU_3_PIPE] |620| 
        LDRH      A1, [A1, #0]          ; [DPU_3_PIPE] |620| 
        CBZ       A1, ||$C$L128||       ; [] 
        ; BRANCHCC OCCURS {||$C$L128||}  ; [] |620| 
;* --------------------------------------------------------------------------*
        LDR       A1, $C$CON35          ; [DPU_3_PIPE] |620| 
        LDRH      A1, [A1, #0]          ; [DPU_3_PIPE] |620| 
        CMP       A1, #16384            ; [DPU_3_PIPE] |620| 
        BLE       ||$C$L129||           ; [DPU_3_PIPE] |620| 
        ; BRANCHCC OCCURS {||$C$L129||}  ; [] |620| 
;* --------------------------------------------------------------------------*
||$C$L128||:    
	.dwpsn	file "../picojpeg.c",line 621,column 7,is_stmt,isa 1
;----------------------------------------------------------------------
; 621 | return PJPG_BAD_HEIGHT;                                                
;----------------------------------------------------------------------
        MOVS      A1, #8                ; [DPU_3_PIPE] |621| 
        B         ||$C$L137||           ; [DPU_3_PIPE] |621| 
        ; BRANCH OCCURS {||$C$L137||}    ; [] |621| 
;* --------------------------------------------------------------------------*
||$C$L129||:    
	.dwpsn	file "../picojpeg.c",line 623,column 4,is_stmt,isa 1
;----------------------------------------------------------------------
; 623 | gImageXSize = getBits1(16);                                            
;----------------------------------------------------------------------
        MOVS      A1, #16               ; [DPU_3_PIPE] |623| 
$C$DW$210	.dwtag  DW_TAG_TI_branch
	.dwattr $C$DW$210, DW_AT_low_pc(0x00)
	.dwattr $C$DW$210, DW_AT_name("getBits1")
	.dwattr $C$DW$210, DW_AT_TI_call

        BL        getBits1              ; [DPU_3_PIPE] |623| 
        ; CALL OCCURS {getBits1 }        ; [] |623| 
        LDR       A2, $C$CON36          ; [DPU_3_PIPE] |623| 
        STRH      A1, [A2, #0]          ; [DPU_3_PIPE] |623| 
	.dwpsn	file "../picojpeg.c",line 625,column 4,is_stmt,isa 1
;----------------------------------------------------------------------
; 625 | if ((!gImageXSize) || (gImageXSize > PJPG_MAX_WIDTH))                  
;----------------------------------------------------------------------
        LDR       A1, $C$CON36          ; [DPU_3_PIPE] |625| 
        LDRH      A1, [A1, #0]          ; [DPU_3_PIPE] |625| 
        CBZ       A1, ||$C$L130||       ; [] 
        ; BRANCHCC OCCURS {||$C$L130||}  ; [] |625| 
