TI ARM Assembler PC v16.9.6 Sun Dec 02 13:28:46 2018

Tools Copyright (c) 1996-2017 Texas Instruments Incorporated
picojpeg.asm                                                         PAGE    1

       1                    ;******************************************************************************
       2                    ;* TI ARM C/C++ Codegen                                        PC v16.9.6.LTS *
       3                    ;* Date/Time created: Sun Dec 02 13:28:43 2018                                *
       4                    ;******************************************************************************
       5                            .compiler_opts --abi=eabi --arm_vmrs_si_workaround=off --code_state=16 --diag_wrap=off --embed
       6 00000000                   .thumb
       7                    
       8                    $C$DW$CU        .dwtag  DW_TAG_compile_unit
       9                            .dwattr $C$DW$CU, DW_AT_name("../picojpeg.c")
      10                            .dwattr $C$DW$CU, DW_AT_producer("TI TI ARM C/C++ Codegen PC v16.9.6.LTS Copyright (c) 1996-20
      11                            .dwattr $C$DW$CU, DW_AT_TI_version(0x01)
      12                            .dwattr $C$DW$CU, DW_AT_comp_dir("C:\Users\brian\Documents\EE445L\Lab11\Test\Debug")
      13 00000000                   .sect   ".const:.string:ZAG"
      14                            .clink
      15                            .align  1
      16                            .elfsym ZAG,SYM_SIZE(64)
      17 00000000           ZAG:
      18 00000000 00000000          .bits   0,8                     ; ZAG[0] @ 0
      19 00000000 00000100          .bits   1,8                     ; ZAG[1] @ 8
      20 00000000 00080100          .bits   8,8                     ; ZAG[2] @ 16
      21 00000000 10080100          .bits   16,8                    ; ZAG[3] @ 24
      22 00000004 00000009          .bits   9,8                     ; ZAG[4] @ 32
      23 00000004 00000209          .bits   2,8                     ; ZAG[5] @ 40
      24 00000004 00030209          .bits   3,8                     ; ZAG[6] @ 48
      25 00000004 0A030209          .bits   10,8                    ; ZAG[7] @ 56
      26 00000008 00000011          .bits   17,8                    ; ZAG[8] @ 64
      27 00000008 00001811          .bits   24,8                    ; ZAG[9] @ 72
      28 00000008 00201811          .bits   32,8                    ; ZAG[10] @ 80
      29 00000008 19201811          .bits   25,8                    ; ZAG[11] @ 88
      30 0000000c 00000012          .bits   18,8                    ; ZAG[12] @ 96
      31 0000000c 00000B12          .bits   11,8                    ; ZAG[13] @ 104
      32 0000000c 00040B12          .bits   4,8                     ; ZAG[14] @ 112
      33 0000000c 05040B12          .bits   5,8                     ; ZAG[15] @ 120
      34 00000010 0000000C          .bits   12,8                    ; ZAG[16] @ 128
      35 00000010 0000130C          .bits   19,8                    ; ZAG[17] @ 136
      36 00000010 001A130C          .bits   26,8                    ; ZAG[18] @ 144
      37 00000010 211A130C          .bits   33,8                    ; ZAG[19] @ 152
      38 00000014 00000028          .bits   40,8                    ; ZAG[20] @ 160
      39 00000014 00003028          .bits   48,8                    ; ZAG[21] @ 168
      40 00000014 00293028          .bits   41,8                    ; ZAG[22] @ 176
      41 00000014 22293028          .bits   34,8                    ; ZAG[23] @ 184
      42 00000018 0000001B          .bits   27,8                    ; ZAG[24] @ 192
      43 00000018 0000141B          .bits   20,8                    ; ZAG[25] @ 200
      44 00000018 000D141B          .bits   13,8                    ; ZAG[26] @ 208
      45 00000018 060D141B          .bits   6,8                     ; ZAG[27] @ 216
      46 0000001c 00000007          .bits   7,8                     ; ZAG[28] @ 224
      47 0000001c 00000E07          .bits   14,8                    ; ZAG[29] @ 232
      48 0000001c 00150E07          .bits   21,8                    ; ZAG[30] @ 240
      49 0000001c 1C150E07          .bits   28,8                    ; ZAG[31] @ 248
      50 00000020 00000023          .bits   35,8                    ; ZAG[32] @ 256
      51 00000020 00002A23          .bits   42,8                    ; ZAG[33] @ 264
      52 00000020 00312A23          .bits   49,8                    ; ZAG[34] @ 272
      53 00000020 38312A23          .bits   56,8                    ; ZAG[35] @ 280
      54 00000024 00000039          .bits   57,8                    ; ZAG[36] @ 288
      55 00000024 00003239          .bits   50,8                    ; ZAG[37] @ 296
TI ARM Assembler PC v16.9.6 Sun Dec 02 13:28:46 2018

Tools Copyright (c) 1996-2017 Texas Instruments Incorporated
picojpeg.asm                                                         PAGE    2

      56 00000024 002B3239          .bits   43,8                    ; ZAG[38] @ 304
      57 00000024 242B3239          .bits   36,8                    ; ZAG[39] @ 312
      58 00000028 0000001D          .bits   29,8                    ; ZAG[40] @ 320
      59 00000028 0000161D          .bits   22,8                    ; ZAG[41] @ 328
      60 00000028 000F161D          .bits   15,8                    ; ZAG[42] @ 336
      61 00000028 170F161D          .bits   23,8                    ; ZAG[43] @ 344
      62 0000002c 0000001E          .bits   30,8                    ; ZAG[44] @ 352
      63 0000002c 0000251E          .bits   37,8                    ; ZAG[45] @ 360
      64 0000002c 002C251E          .bits   44,8                    ; ZAG[46] @ 368
      65 0000002c 332C251E          .bits   51,8                    ; ZAG[47] @ 376
      66 00000030 0000003A          .bits   58,8                    ; ZAG[48] @ 384
      67 00000030 00003B3A          .bits   59,8                    ; ZAG[49] @ 392
      68 00000030 00343B3A          .bits   52,8                    ; ZAG[50] @ 400
      69 00000030 2D343B3A          .bits   45,8                    ; ZAG[51] @ 408
      70 00000034 00000026          .bits   38,8                    ; ZAG[52] @ 416
      71 00000034 00001F26          .bits   31,8                    ; ZAG[53] @ 424
      72 00000034 00271F26          .bits   39,8                    ; ZAG[54] @ 432
      73 00000034 2E271F26          .bits   46,8                    ; ZAG[55] @ 440
      74 00000038 00000035          .bits   53,8                    ; ZAG[56] @ 448
      75 00000038 00003C35          .bits   60,8                    ; ZAG[57] @ 456
      76 00000038 003D3C35          .bits   61,8                    ; ZAG[58] @ 464
      77 00000038 363D3C35          .bits   54,8                    ; ZAG[59] @ 472
      78 0000003c 0000002F          .bits   47,8                    ; ZAG[60] @ 480
      79 0000003c 0000372F          .bits   55,8                    ; ZAG[61] @ 488
      80 0000003c 003E372F          .bits   62,8                    ; ZAG[62] @ 496
      81 0000003c 3F3E372F          .bits   63,8                    ; ZAG[63] @ 504
      82                    
      83                    $C$DW$1 .dwtag  DW_TAG_variable
      84                            .dwattr $C$DW$1, DW_AT_name("ZAG")
      85                            .dwattr $C$DW$1, DW_AT_TI_symbol_name("ZAG")
      86                            .dwattr $C$DW$1, DW_AT_type(*$C$DW$T$56)
      87                            .dwattr $C$DW$1, DW_AT_location[DW_OP_addr ZAG]
      88                            .dwattr $C$DW$1, DW_AT_decl_file("../picojpeg.c")
      89                            .dwattr $C$DW$1, DW_AT_decl_line(0x81)
      90                            .dwattr $C$DW$1, DW_AT_decl_column(0x13)
      91                    
      92 00000000           gCoeffBuf:      .usect  ".bss:gCoeffBuf",128,2
      93                            .clink ".bss:gCoeffBuf"
      94                    $C$DW$2 .dwtag  DW_TAG_variable
      95                            .dwattr $C$DW$2, DW_AT_name("gCoeffBuf")
      96                            .dwattr $C$DW$2, DW_AT_TI_symbol_name("gCoeffBuf")
      97                            .dwattr $C$DW$2, DW_AT_type(*$C$DW$T$94)
      98                            .dwattr $C$DW$2, DW_AT_location[DW_OP_addr gCoeffBuf]
      99                            .dwattr $C$DW$2, DW_AT_decl_file("../picojpeg.c")
     100                            .dwattr $C$DW$2, DW_AT_decl_line(0x8e)
     101                            .dwattr $C$DW$2, DW_AT_decl_column(0x0e)
     102                    
     103 00000000           gMCUBufR:       .usect  ".bss:gMCUBufR",256,1
     104                            .clink ".bss:gMCUBufR"
     105                    $C$DW$3 .dwtag  DW_TAG_variable
     106                            .dwattr $C$DW$3, DW_AT_name("gMCUBufR")
     107                            .dwattr $C$DW$3, DW_AT_TI_symbol_name("gMCUBufR")
     108                            .dwattr $C$DW$3, DW_AT_type(*$C$DW$T$78)
     109                            .dwattr $C$DW$3, DW_AT_location[DW_OP_addr gMCUBufR]
     110                            .dwattr $C$DW$3, DW_AT_decl_file("../picojpeg.c")
TI ARM Assembler PC v16.9.6 Sun Dec 02 13:28:46 2018

Tools Copyright (c) 1996-2017 Texas Instruments Incorporated
picojpeg.asm                                                         PAGE    3

     111                            .dwattr $C$DW$3, DW_AT_decl_line(0x91)
     112                            .dwattr $C$DW$3, DW_AT_decl_column(0x0e)
     113                    
     114 00000000           gMCUBufG:       .usect  ".bss:gMCUBufG",256,1
     115                            .clink ".bss:gMCUBufG"
     116                    $C$DW$4 .dwtag  DW_TAG_variable
     117                            .dwattr $C$DW$4, DW_AT_name("gMCUBufG")
     118                            .dwattr $C$DW$4, DW_AT_TI_symbol_name("gMCUBufG")
     119                            .dwattr $C$DW$4, DW_AT_type(*$C$DW$T$78)
     120                            .dwattr $C$DW$4, DW_AT_location[DW_OP_addr gMCUBufG]
     121                            .dwattr $C$DW$4, DW_AT_decl_file("../picojpeg.c")
     122                            .dwattr $C$DW$4, DW_AT_decl_line(0x92)
     123                            .dwattr $C$DW$4, DW_AT_decl_column(0x0e)
     124                    
     125 00000000           gMCUBufB:       .usect  ".bss:gMCUBufB",256,1
     126                            .clink ".bss:gMCUBufB"
     127                    $C$DW$5 .dwtag  DW_TAG_variable
     128                            .dwattr $C$DW$5, DW_AT_name("gMCUBufB")
     129                            .dwattr $C$DW$5, DW_AT_TI_symbol_name("gMCUBufB")
     130                            .dwattr $C$DW$5, DW_AT_type(*$C$DW$T$78)
     131                            .dwattr $C$DW$5, DW_AT_location[DW_OP_addr gMCUBufB]
     132                            .dwattr $C$DW$5, DW_AT_decl_file("../picojpeg.c")
     133                            .dwattr $C$DW$5, DW_AT_decl_line(0x93)
     134                            .dwattr $C$DW$5, DW_AT_decl_column(0x0e)
     135                    
     136 00000000           gQuant0:        .usect  ".bss:gQuant0",128,2
     137                            .clink ".bss:gQuant0"
     138                    $C$DW$6 .dwtag  DW_TAG_variable
     139                            .dwattr $C$DW$6, DW_AT_name("gQuant0")
     140                            .dwattr $C$DW$6, DW_AT_TI_symbol_name("gQuant0")
     141                            .dwattr $C$DW$6, DW_AT_type(*$C$DW$T$94)
     142                            .dwattr $C$DW$6, DW_AT_location[DW_OP_addr gQuant0]
     143                            .dwattr $C$DW$6, DW_AT_decl_file("../picojpeg.c")
     144                            .dwattr $C$DW$6, DW_AT_decl_line(0x96)
     145                            .dwattr $C$DW$6, DW_AT_decl_column(0x0e)
     146                    
     147 00000000           gQuant1:        .usect  ".bss:gQuant1",128,2
     148                            .clink ".bss:gQuant1"
     149                    $C$DW$7 .dwtag  DW_TAG_variable
     150                            .dwattr $C$DW$7, DW_AT_name("gQuant1")
     151                            .dwattr $C$DW$7, DW_AT_TI_symbol_name("gQuant1")
     152                            .dwattr $C$DW$7, DW_AT_type(*$C$DW$T$94)
     153                            .dwattr $C$DW$7, DW_AT_location[DW_OP_addr gQuant1]
     154                            .dwattr $C$DW$7, DW_AT_decl_file("../picojpeg.c")
     155                            .dwattr $C$DW$7, DW_AT_decl_line(0x97)
     156                            .dwattr $C$DW$7, DW_AT_decl_column(0x0e)
     157                    
     158 00000000           gLastDC:        .usect  ".bss:gLastDC",8,2
     159                            .clink ".bss:gLastDC"
     160                    $C$DW$8 .dwtag  DW_TAG_variable
     161                            .dwattr $C$DW$8, DW_AT_name("gLastDC")
     162                            .dwattr $C$DW$8, DW_AT_TI_symbol_name("gLastDC")
     163                            .dwattr $C$DW$8, DW_AT_type(*$C$DW$T$95)
     164                            .dwattr $C$DW$8, DW_AT_location[DW_OP_addr gLastDC]
     165                            .dwattr $C$DW$8, DW_AT_decl_file("../picojpeg.c")
TI ARM Assembler PC v16.9.6 Sun Dec 02 13:28:46 2018

Tools Copyright (c) 1996-2017 Texas Instruments Incorporated
picojpeg.asm                                                         PAGE    4

     166                            .dwattr $C$DW$8, DW_AT_decl_line(0x9a)
     167                            .dwattr $C$DW$8, DW_AT_decl_column(0x0e)
     168                    
     169 00000000           gHuffTab0:      .usect  ".bss:gHuffTab0",80,2
     170                            .clink ".bss:gHuffTab0"
     171                    $C$DW$9 .dwtag  DW_TAG_variable
     172                            .dwattr $C$DW$9, DW_AT_name("gHuffTab0")
     173                            .dwattr $C$DW$9, DW_AT_TI_symbol_name("gHuffTab0")
     174                            .dwattr $C$DW$9, DW_AT_type(*$C$DW$T$33)
     175                            .dwattr $C$DW$9, DW_AT_location[DW_OP_addr gHuffTab0]
     176                            .dwattr $C$DW$9, DW_AT_decl_file("../picojpeg.c")
     177                            .dwattr $C$DW$9, DW_AT_decl_line(0xa4)
     178                            .dwattr $C$DW$9, DW_AT_decl_column(0x12)
     179                    
     180 00000000           gHuffVal0:      .usect  ".bss:gHuffVal0",16,1
     181                            .clink ".bss:gHuffVal0"
     182                    $C$DW$10        .dwtag  DW_TAG_variable
     183                            .dwattr $C$DW$10, DW_AT_name("gHuffVal0")
     184                            .dwattr $C$DW$10, DW_AT_TI_symbol_name("gHuffVal0")
     185                            .dwattr $C$DW$10, DW_AT_type(*$C$DW$T$26)
     186                            .dwattr $C$DW$10, DW_AT_location[DW_OP_addr gHuffVal0]
     187                            .dwattr $C$DW$10, DW_AT_decl_file("../picojpeg.c")
     188                            .dwattr $C$DW$10, DW_AT_decl_line(0xa6)
     189                            .dwattr $C$DW$10, DW_AT_decl_column(0x0e)
     190                    
     191 00000000           gHuffTab1:      .usect  ".bss:gHuffTab1",80,2
     192                            .clink ".bss:gHuffTab1"
     193                    $C$DW$11        .dwtag  DW_TAG_variable
     194                            .dwattr $C$DW$11, DW_AT_name("gHuffTab1")
     195                            .dwattr $C$DW$11, DW_AT_TI_symbol_name("gHuffTab1")
     196                            .dwattr $C$DW$11, DW_AT_type(*$C$DW$T$33)
     197                            .dwattr $C$DW$11, DW_AT_location[DW_OP_addr gHuffTab1]
     198                            .dwattr $C$DW$11, DW_AT_decl_file("../picojpeg.c")
     199                            .dwattr $C$DW$11, DW_AT_decl_line(0xa8)
     200                            .dwattr $C$DW$11, DW_AT_decl_column(0x12)
     201                    
     202 00000000           gHuffVal1:      .usect  ".bss:gHuffVal1",16,1
     203                            .clink ".bss:gHuffVal1"
     204                    $C$DW$12        .dwtag  DW_TAG_variable
     205                            .dwattr $C$DW$12, DW_AT_name("gHuffVal1")
     206                            .dwattr $C$DW$12, DW_AT_TI_symbol_name("gHuffVal1")
     207                            .dwattr $C$DW$12, DW_AT_type(*$C$DW$T$26)
     208                            .dwattr $C$DW$12, DW_AT_location[DW_OP_addr gHuffVal1]
     209                            .dwattr $C$DW$12, DW_AT_decl_file("../picojpeg.c")
     210                            .dwattr $C$DW$12, DW_AT_decl_line(0xa9)
     211                            .dwattr $C$DW$12, DW_AT_decl_column(0x0e)
     212                    
     213 00000000           gHuffTab2:      .usect  ".bss:gHuffTab2",80,2
     214                            .clink ".bss:gHuffTab2"
     215                    $C$DW$13        .dwtag  DW_TAG_variable
     216                            .dwattr $C$DW$13, DW_AT_name("gHuffTab2")
     217                            .dwattr $C$DW$13, DW_AT_TI_symbol_name("gHuffTab2")
     218                            .dwattr $C$DW$13, DW_AT_type(*$C$DW$T$33)
     219                            .dwattr $C$DW$13, DW_AT_location[DW_OP_addr gHuffTab2]
     220                            .dwattr $C$DW$13, DW_AT_decl_file("../picojpeg.c")
TI ARM Assembler PC v16.9.6 Sun Dec 02 13:28:46 2018

Tools Copyright (c) 1996-2017 Texas Instruments Incorporated
picojpeg.asm                                                         PAGE    5

     221                            .dwattr $C$DW$13, DW_AT_decl_line(0xac)
     222                            .dwattr $C$DW$13, DW_AT_decl_column(0x12)
     223                    
     224 00000000           gHuffVal2:      .usect  ".bss:gHuffVal2",256,1
     225                            .clink ".bss:gHuffVal2"
     226                    $C$DW$14        .dwtag  DW_TAG_variable
     227                            .dwattr $C$DW$14, DW_AT_name("gHuffVal2")
     228                            .dwattr $C$DW$14, DW_AT_TI_symbol_name("gHuffVal2")
     229                            .dwattr $C$DW$14, DW_AT_type(*$C$DW$T$78)
     230                            .dwattr $C$DW$14, DW_AT_location[DW_OP_addr gHuffVal2]
     231                            .dwattr $C$DW$14, DW_AT_decl_file("../picojpeg.c")
     232                            .dwattr $C$DW$14, DW_AT_decl_line(0xad)
     233                            .dwattr $C$DW$14, DW_AT_decl_column(0x0e)
     234                    
     235 00000000           gHuffTab3:      .usect  ".bss:gHuffTab3",80,2
     236                            .clink ".bss:gHuffTab3"
     237                    $C$DW$15        .dwtag  DW_TAG_variable
     238                            .dwattr $C$DW$15, DW_AT_name("gHuffTab3")
     239                            .dwattr $C$DW$15, DW_AT_TI_symbol_name("gHuffTab3")
     240                            .dwattr $C$DW$15, DW_AT_type(*$C$DW$T$33)
     241                            .dwattr $C$DW$15, DW_AT_location[DW_OP_addr gHuffTab3]
     242                            .dwattr $C$DW$15, DW_AT_decl_file("../picojpeg.c")
     243                            .dwattr $C$DW$15, DW_AT_decl_line(0xaf)
     244                            .dwattr $C$DW$15, DW_AT_decl_column(0x12)
     245                    
     246 00000000           gHuffVal3:      .usect  ".bss:gHuffVal3",256,1
     247                            .clink ".bss:gHuffVal3"
     248                    $C$DW$16        .dwtag  DW_TAG_variable
     249                            .dwattr $C$DW$16, DW_AT_name("gHuffVal3")
     250                            .dwattr $C$DW$16, DW_AT_TI_symbol_name("gHuffVal3")
     251                            .dwattr $C$DW$16, DW_AT_type(*$C$DW$T$78)
     252                            .dwattr $C$DW$16, DW_AT_location[DW_OP_addr gHuffVal3]
     253                            .dwattr $C$DW$16, DW_AT_decl_file("../picojpeg.c")
     254                            .dwattr $C$DW$16, DW_AT_decl_line(0xb0)
     255                            .dwattr $C$DW$16, DW_AT_decl_column(0x0e)
     256                    
     257 00000000                   .bss    gValidHuffTables,1,1
     258                    $C$DW$17        .dwtag  DW_TAG_variable
     259                            .dwattr $C$DW$17, DW_AT_name("gValidHuffTables")
     260                            .dwattr $C$DW$17, DW_AT_TI_symbol_name("gValidHuffTables")
     261                            .dwattr $C$DW$17, DW_AT_type(*$C$DW$T$25)
     262                            .dwattr $C$DW$17, DW_AT_location[DW_OP_addr gValidHuffTables]
     263                            .dwattr $C$DW$17, DW_AT_decl_file("../picojpeg.c")
     264                            .dwattr $C$DW$17, DW_AT_decl_line(0xb2)
     265                            .dwattr $C$DW$17, DW_AT_decl_column(0x0e)
     266                    
     267 00000001                   .bss    gValidQuantTables,1,1
     268                    $C$DW$18        .dwtag  DW_TAG_variable
     269                            .dwattr $C$DW$18, DW_AT_name("gValidQuantTables")
     270                            .dwattr $C$DW$18, DW_AT_TI_symbol_name("gValidQuantTables")
     271                            .dwattr $C$DW$18, DW_AT_type(*$C$DW$T$25)
     272                            .dwattr $C$DW$18, DW_AT_location[DW_OP_addr gValidQuantTables]
     273                            .dwattr $C$DW$18, DW_AT_decl_file("../picojpeg.c")
     274                            .dwattr $C$DW$18, DW_AT_decl_line(0xb3)
     275                            .dwattr $C$DW$18, DW_AT_decl_column(0x0e)
TI ARM Assembler PC v16.9.6 Sun Dec 02 13:28:46 2018

Tools Copyright (c) 1996-2017 Texas Instruments Incorporated
picojpeg.asm                                                         PAGE    6

     276                    
     277 00000002                   .bss    gTemFlag,1,1
     278                    $C$DW$19        .dwtag  DW_TAG_variable
     279                            .dwattr $C$DW$19, DW_AT_name("gTemFlag")
     280                            .dwattr $C$DW$19, DW_AT_TI_symbol_name("gTemFlag")
     281                            .dwattr $C$DW$19, DW_AT_type(*$C$DW$T$25)
     282                            .dwattr $C$DW$19, DW_AT_location[DW_OP_addr gTemFlag]
     283                            .dwattr $C$DW$19, DW_AT_decl_file("../picojpeg.c")
     284                            .dwattr $C$DW$19, DW_AT_decl_line(0xb5)
     285                            .dwattr $C$DW$19, DW_AT_decl_column(0x0e)
     286                    
     287 00000000           gInBuf: .usect  ".bss:gInBuf",256,1
     288                            .clink ".bss:gInBuf"
     289                    $C$DW$20        .dwtag  DW_TAG_variable
     290                            .dwattr $C$DW$20, DW_AT_name("gInBuf")
     291                            .dwattr $C$DW$20, DW_AT_TI_symbol_name("gInBuf")
     292                            .dwattr $C$DW$20, DW_AT_type(*$C$DW$T$78)
     293                            .dwattr $C$DW$20, DW_AT_location[DW_OP_addr gInBuf]
     294                            .dwattr $C$DW$20, DW_AT_decl_file("../picojpeg.c")
     295                            .dwattr $C$DW$20, DW_AT_decl_line(0xb7)
     296                            .dwattr $C$DW$20, DW_AT_decl_column(0x0e)
     297                    
     298 00000003                   .bss    gInBufOfs,1,1
     299                    $C$DW$21        .dwtag  DW_TAG_variable
     300                            .dwattr $C$DW$21, DW_AT_name("gInBufOfs")
     301                            .dwattr $C$DW$21, DW_AT_TI_symbol_name("gInBufOfs")
     302                            .dwattr $C$DW$21, DW_AT_type(*$C$DW$T$25)
     303                            .dwattr $C$DW$21, DW_AT_location[DW_OP_addr gInBufOfs]
     304                            .dwattr $C$DW$21, DW_AT_decl_file("../picojpeg.c")
     305                            .dwattr $C$DW$21, DW_AT_decl_line(0xb8)
     306                            .dwattr $C$DW$21, DW_AT_decl_column(0x0e)
     307                    
     308 00000004                   .bss    gInBufLeft,1,1
     309                    $C$DW$22        .dwtag  DW_TAG_variable
     310                            .dwattr $C$DW$22, DW_AT_name("gInBufLeft")
     311                            .dwattr $C$DW$22, DW_AT_TI_symbol_name("gInBufLeft")
     312                            .dwattr $C$DW$22, DW_AT_type(*$C$DW$T$25)
     313                            .dwattr $C$DW$22, DW_AT_location[DW_OP_addr gInBufLeft]
     314                            .dwattr $C$DW$22, DW_AT_decl_file("../picojpeg.c")
     315                            .dwattr $C$DW$22, DW_AT_decl_line(0xb9)
     316                            .dwattr $C$DW$22, DW_AT_decl_column(0x0e)
     317                    
     318 00000006                   .bss    gBitBuf,2,2
     319                    $C$DW$23        .dwtag  DW_TAG_variable
     320                            .dwattr $C$DW$23, DW_AT_name("gBitBuf")
     321                            .dwattr $C$DW$23, DW_AT_TI_symbol_name("gBitBuf")
     322                            .dwattr $C$DW$23, DW_AT_type(*$C$DW$T$23)
     323                            .dwattr $C$DW$23, DW_AT_location[DW_OP_addr gBitBuf]
     324                            .dwattr $C$DW$23, DW_AT_decl_file("../picojpeg.c")
     325                            .dwattr $C$DW$23, DW_AT_decl_line(0xbb)
     326                            .dwattr $C$DW$23, DW_AT_decl_column(0x0f)
     327                    
     328 00000008                   .bss    gBitsLeft,1,1
     329                    $C$DW$24        .dwtag  DW_TAG_variable
     330                            .dwattr $C$DW$24, DW_AT_name("gBitsLeft")
TI ARM Assembler PC v16.9.6 Sun Dec 02 13:28:46 2018

Tools Copyright (c) 1996-2017 Texas Instruments Incorporated
picojpeg.asm                                                         PAGE    7

     331                            .dwattr $C$DW$24, DW_AT_TI_symbol_name("gBitsLeft")
     332                            .dwattr $C$DW$24, DW_AT_type(*$C$DW$T$25)
     333                            .dwattr $C$DW$24, DW_AT_location[DW_OP_addr gBitsLeft]
     334                            .dwattr $C$DW$24, DW_AT_decl_file("../picojpeg.c")
     335                            .dwattr $C$DW$24, DW_AT_decl_line(0xbc)
     336                            .dwattr $C$DW$24, DW_AT_decl_column(0x0e)
     337                    
     338 0000000a                   .bss    gImageXSize,2,2
     339                    $C$DW$25        .dwtag  DW_TAG_variable
     340                            .dwattr $C$DW$25, DW_AT_name("gImageXSize")
     341                            .dwattr $C$DW$25, DW_AT_TI_symbol_name("gImageXSize")
     342                            .dwattr $C$DW$25, DW_AT_type(*$C$DW$T$23)
     343                            .dwattr $C$DW$25, DW_AT_location[DW_OP_addr gImageXSize]
     344                            .dwattr $C$DW$25, DW_AT_decl_file("../picojpeg.c")
     345                            .dwattr $C$DW$25, DW_AT_decl_line(0xbe)
     346                            .dwattr $C$DW$25, DW_AT_decl_column(0x0f)
     347                    
     348 0000000c                   .bss    gImageYSize,2,2
     349                    $C$DW$26        .dwtag  DW_TAG_variable
     350                            .dwattr $C$DW$26, DW_AT_name("gImageYSize")
     351                            .dwattr $C$DW$26, DW_AT_TI_symbol_name("gImageYSize")
     352                            .dwattr $C$DW$26, DW_AT_type(*$C$DW$T$23)
     353                            .dwattr $C$DW$26, DW_AT_location[DW_OP_addr gImageYSize]
     354                            .dwattr $C$DW$26, DW_AT_decl_file("../picojpeg.c")
     355                            .dwattr $C$DW$26, DW_AT_decl_line(0xbf)
     356                            .dwattr $C$DW$26, DW_AT_decl_column(0x0f)
     357                    
     358 0000000e                   .bss    gCompsInFrame,1,1
     359                    $C$DW$27        .dwtag  DW_TAG_variable
     360                            .dwattr $C$DW$27, DW_AT_name("gCompsInFrame")
     361                            .dwattr $C$DW$27, DW_AT_TI_symbol_name("gCompsInFrame")
     362                            .dwattr $C$DW$27, DW_AT_type(*$C$DW$T$25)
     363                            .dwattr $C$DW$27, DW_AT_location[DW_OP_addr gCompsInFrame]
     364                            .dwattr $C$DW$27, DW_AT_decl_file("../picojpeg.c")
     365                            .dwattr $C$DW$27, DW_AT_decl_line(0xc0)
     366                            .dwattr $C$DW$27, DW_AT_decl_column(0x0e)
     367                    
     368 00000000           gCompIdent:     .usect  ".bss:gCompIdent",4,1
     369                            .clink ".bss:gCompIdent"
     370                    $C$DW$28        .dwtag  DW_TAG_variable
     371                            .dwattr $C$DW$28, DW_AT_name("gCompIdent")
     372                            .dwattr $C$DW$28, DW_AT_TI_symbol_name("gCompIdent")
     373                            .dwattr $C$DW$28, DW_AT_type(*$C$DW$T$79)
     374                            .dwattr $C$DW$28, DW_AT_location[DW_OP_addr gCompIdent]
     375                            .dwattr $C$DW$28, DW_AT_decl_file("../picojpeg.c")
     376                            .dwattr $C$DW$28, DW_AT_decl_line(0xc1)
     377                            .dwattr $C$DW$28, DW_AT_decl_column(0x0e)
     378                    
     379 00000000           gCompHSamp:     .usect  ".bss:gCompHSamp",4,1
     380                            .clink ".bss:gCompHSamp"
     381                    $C$DW$29        .dwtag  DW_TAG_variable
     382                            .dwattr $C$DW$29, DW_AT_name("gCompHSamp")
     383                            .dwattr $C$DW$29, DW_AT_TI_symbol_name("gCompHSamp")
     384                            .dwattr $C$DW$29, DW_AT_type(*$C$DW$T$79)
     385                            .dwattr $C$DW$29, DW_AT_location[DW_OP_addr gCompHSamp]
TI ARM Assembler PC v16.9.6 Sun Dec 02 13:28:46 2018

Tools Copyright (c) 1996-2017 Texas Instruments Incorporated
picojpeg.asm                                                         PAGE    8

     386                            .dwattr $C$DW$29, DW_AT_decl_file("../picojpeg.c")
     387                            .dwattr $C$DW$29, DW_AT_decl_line(0xc2)
     388                            .dwattr $C$DW$29, DW_AT_decl_column(0x0e)
     389                    
     390 00000000           gCompVSamp:     .usect  ".bss:gCompVSamp",4,1
     391                            .clink ".bss:gCompVSamp"
     392                    $C$DW$30        .dwtag  DW_TAG_variable
     393                            .dwattr $C$DW$30, DW_AT_name("gCompVSamp")
     394                            .dwattr $C$DW$30, DW_AT_TI_symbol_name("gCompVSamp")
     395                            .dwattr $C$DW$30, DW_AT_type(*$C$DW$T$79)
     396                            .dwattr $C$DW$30, DW_AT_location[DW_OP_addr gCompVSamp]
     397                            .dwattr $C$DW$30, DW_AT_decl_file("../picojpeg.c")
     398                            .dwattr $C$DW$30, DW_AT_decl_line(0xc3)
     399                            .dwattr $C$DW$30, DW_AT_decl_column(0x0e)
     400                    
     401 00000000           gCompQuant:     .usect  ".bss:gCompQuant",4,1
     402                            .clink ".bss:gCompQuant"
     403                    $C$DW$31        .dwtag  DW_TAG_variable
     404                            .dwattr $C$DW$31, DW_AT_name("gCompQuant")
     405                            .dwattr $C$DW$31, DW_AT_TI_symbol_name("gCompQuant")
     406                            .dwattr $C$DW$31, DW_AT_type(*$C$DW$T$79)
     407                            .dwattr $C$DW$31, DW_AT_location[DW_OP_addr gCompQuant]
     408                            .dwattr $C$DW$31, DW_AT_decl_file("../picojpeg.c")
     409                            .dwattr $C$DW$31, DW_AT_decl_line(0xc4)
     410                            .dwattr $C$DW$31, DW_AT_decl_column(0x0e)
     411                    
     412 00000010                   .bss    gRestartInterval,2,2
     413                    $C$DW$32        .dwtag  DW_TAG_variable
     414                            .dwattr $C$DW$32, DW_AT_name("gRestartInterval")
     415                            .dwattr $C$DW$32, DW_AT_TI_symbol_name("gRestartInterval")
     416                            .dwattr $C$DW$32, DW_AT_type(*$C$DW$T$23)
     417                            .dwattr $C$DW$32, DW_AT_location[DW_OP_addr gRestartInterval]
     418                            .dwattr $C$DW$32, DW_AT_decl_file("../picojpeg.c")
     419                            .dwattr $C$DW$32, DW_AT_decl_line(0xc6)
     420                            .dwattr $C$DW$32, DW_AT_decl_column(0x0f)
     421                    
     422 00000012                   .bss    gNextRestartNum,2,2
     423                    $C$DW$33        .dwtag  DW_TAG_variable
     424                            .dwattr $C$DW$33, DW_AT_name("gNextRestartNum")
     425                            .dwattr $C$DW$33, DW_AT_TI_symbol_name("gNextRestartNum")
     426                            .dwattr $C$DW$33, DW_AT_type(*$C$DW$T$23)
     427                            .dwattr $C$DW$33, DW_AT_location[DW_OP_addr gNextRestartNum]
     428                            .dwattr $C$DW$33, DW_AT_decl_file("../picojpeg.c")
     429                            .dwattr $C$DW$33, DW_AT_decl_line(0xc7)
     430                            .dwattr $C$DW$33, DW_AT_decl_column(0x0f)
     431                    
     432 00000014                   .bss    gRestartsLeft,2,2
     433                    $C$DW$34        .dwtag  DW_TAG_variable
     434                            .dwattr $C$DW$34, DW_AT_name("gRestartsLeft")
     435                            .dwattr $C$DW$34, DW_AT_TI_symbol_name("gRestartsLeft")
     436                            .dwattr $C$DW$34, DW_AT_type(*$C$DW$T$23)
     437                            .dwattr $C$DW$34, DW_AT_location[DW_OP_addr gRestartsLeft]
     438                            .dwattr $C$DW$34, DW_AT_decl_file("../picojpeg.c")
     439                            .dwattr $C$DW$34, DW_AT_decl_line(0xc8)
     440                            .dwattr $C$DW$34, DW_AT_decl_column(0x0f)
TI ARM Assembler PC v16.9.6 Sun Dec 02 13:28:46 2018

Tools Copyright (c) 1996-2017 Texas Instruments Incorporated
picojpeg.asm                                                         PAGE    9

     441                    
     442 00000016                   .bss    gCompsInScan,1,1
     443                    $C$DW$35        .dwtag  DW_TAG_variable
     444                            .dwattr $C$DW$35, DW_AT_name("gCompsInScan")
     445                            .dwattr $C$DW$35, DW_AT_TI_symbol_name("gCompsInScan")
     446                            .dwattr $C$DW$35, DW_AT_type(*$C$DW$T$25)
     447                            .dwattr $C$DW$35, DW_AT_location[DW_OP_addr gCompsInScan]
     448                            .dwattr $C$DW$35, DW_AT_decl_file("../picojpeg.c")
     449                            .dwattr $C$DW$35, DW_AT_decl_line(0xca)
     450                            .dwattr $C$DW$35, DW_AT_decl_column(0x0e)
     451                    
     452 00000000           gCompList:      .usect  ".bss:gCompList",4,1
     453                            .clink ".bss:gCompList"
     454                    $C$DW$36        .dwtag  DW_TAG_variable
     455                            .dwattr $C$DW$36, DW_AT_name("gCompList")
     456                            .dwattr $C$DW$36, DW_AT_TI_symbol_name("gCompList")
     457                            .dwattr $C$DW$36, DW_AT_type(*$C$DW$T$79)
     458                            .dwattr $C$DW$36, DW_AT_location[DW_OP_addr gCompList]
     459                            .dwattr $C$DW$36, DW_AT_decl_file("../picojpeg.c")
     460                            .dwattr $C$DW$36, DW_AT_decl_line(0xcb)
     461                            .dwattr $C$DW$36, DW_AT_decl_column(0x0e)
     462                    
     463 00000000           gCompDCTab:     .usect  ".bss:gCompDCTab",4,1
     464                            .clink ".bss:gCompDCTab"
     465                    $C$DW$37        .dwtag  DW_TAG_variable
     466                            .dwattr $C$DW$37, DW_AT_name("gCompDCTab")
     467                            .dwattr $C$DW$37, DW_AT_TI_symbol_name("gCompDCTab")
     468                            .dwattr $C$DW$37, DW_AT_type(*$C$DW$T$79)
     469                            .dwattr $C$DW$37, DW_AT_location[DW_OP_addr gCompDCTab]
     470                            .dwattr $C$DW$37, DW_AT_decl_file("../picojpeg.c")
     471                            .dwattr $C$DW$37, DW_AT_decl_line(0xcc)
     472                            .dwattr $C$DW$37, DW_AT_decl_column(0x0e)
     473                    
     474 00000000           gCompACTab:     .usect  ".bss:gCompACTab",4,1
     475                            .clink ".bss:gCompACTab"
     476                    $C$DW$38        .dwtag  DW_TAG_variable
     477                            .dwattr $C$DW$38, DW_AT_name("gCompACTab")
     478                            .dwattr $C$DW$38, DW_AT_TI_symbol_name("gCompACTab")
     479                            .dwattr $C$DW$38, DW_AT_type(*$C$DW$T$79)
     480                            .dwattr $C$DW$38, DW_AT_location[DW_OP_addr gCompACTab]
     481                            .dwattr $C$DW$38, DW_AT_decl_file("../picojpeg.c")
     482                            .dwattr $C$DW$38, DW_AT_decl_line(0xcd)
     483                            .dwattr $C$DW$38, DW_AT_decl_column(0x0e)
     484                    
     485 00000017                   .bss    gScanType,1,1
     486                    $C$DW$39        .dwtag  DW_TAG_variable
     487                            .dwattr $C$DW$39, DW_AT_name("gScanType")
     488                            .dwattr $C$DW$39, DW_AT_TI_symbol_name("gScanType")
     489                            .dwattr $C$DW$39, DW_AT_type(*$C$DW$T$20)
     490                            .dwattr $C$DW$39, DW_AT_location[DW_OP_addr gScanType]
     491                            .dwattr $C$DW$39, DW_AT_decl_file("../picojpeg.c")
     492                            .dwattr $C$DW$39, DW_AT_decl_line(0xcf)
     493                            .dwattr $C$DW$39, DW_AT_decl_column(0x1a)
     494                    
     495 00000018                   .bss    gMaxBlocksPerMCU,1,1
TI ARM Assembler PC v16.9.6 Sun Dec 02 13:28:46 2018

Tools Copyright (c) 1996-2017 Texas Instruments Incorporated
picojpeg.asm                                                         PAGE   10

     496                    $C$DW$40        .dwtag  DW_TAG_variable
     497                            .dwattr $C$DW$40, DW_AT_name("gMaxBlocksPerMCU")
     498                            .dwattr $C$DW$40, DW_AT_TI_symbol_name("gMaxBlocksPerMCU")
     499                            .dwattr $C$DW$40, DW_AT_type(*$C$DW$T$25)
     500                            .dwattr $C$DW$40, DW_AT_location[DW_OP_addr gMaxBlocksPerMCU]
     501                            .dwattr $C$DW$40, DW_AT_decl_file("../picojpeg.c")
     502                            .dwattr $C$DW$40, DW_AT_decl_line(0xd1)
     503                            .dwattr $C$DW$40, DW_AT_decl_column(0x0e)
     504                    
     505 00000019                   .bss    gMaxMCUXSize,1,1
     506                    $C$DW$41        .dwtag  DW_TAG_variable
     507                            .dwattr $C$DW$41, DW_AT_name("gMaxMCUXSize")
     508                            .dwattr $C$DW$41, DW_AT_TI_symbol_name("gMaxMCUXSize")
     509                            .dwattr $C$DW$41, DW_AT_type(*$C$DW$T$25)
     510                            .dwattr $C$DW$41, DW_AT_location[DW_OP_addr gMaxMCUXSize]
     511                            .dwattr $C$DW$41, DW_AT_decl_file("../picojpeg.c")
     512                            .dwattr $C$DW$41, DW_AT_decl_line(0xd2)
     513                            .dwattr $C$DW$41, DW_AT_decl_column(0x0e)
     514                    
     515 0000001a                   .bss    gMaxMCUYSize,1,1
     516                    $C$DW$42        .dwtag  DW_TAG_variable
     517                            .dwattr $C$DW$42, DW_AT_name("gMaxMCUYSize")
     518                            .dwattr $C$DW$42, DW_AT_TI_symbol_name("gMaxMCUYSize")
     519                            .dwattr $C$DW$42, DW_AT_type(*$C$DW$T$25)
     520                            .dwattr $C$DW$42, DW_AT_location[DW_OP_addr gMaxMCUYSize]
     521                            .dwattr $C$DW$42, DW_AT_decl_file("../picojpeg.c")
     522                            .dwattr $C$DW$42, DW_AT_decl_line(0xd3)
     523                            .dwattr $C$DW$42, DW_AT_decl_column(0x0e)
     524                    
     525 0000001c                   .bss    gMaxMCUSPerRow,2,2
     526                    $C$DW$43        .dwtag  DW_TAG_variable
     527                            .dwattr $C$DW$43, DW_AT_name("gMaxMCUSPerRow")
     528                            .dwattr $C$DW$43, DW_AT_TI_symbol_name("gMaxMCUSPerRow")
     529                            .dwattr $C$DW$43, DW_AT_type(*$C$DW$T$23)
     530                            .dwattr $C$DW$43, DW_AT_location[DW_OP_addr gMaxMCUSPerRow]
     531                            .dwattr $C$DW$43, DW_AT_decl_file("../picojpeg.c")
     532                            .dwattr $C$DW$43, DW_AT_decl_line(0xd4)
     533                            .dwattr $C$DW$43, DW_AT_decl_column(0x0f)
     534                    
     535 0000001e                   .bss    gMaxMCUSPerCol,2,2
     536                    $C$DW$44        .dwtag  DW_TAG_variable
     537                            .dwattr $C$DW$44, DW_AT_name("gMaxMCUSPerCol")
     538                            .dwattr $C$DW$44, DW_AT_TI_symbol_name("gMaxMCUSPerCol")
     539                            .dwattr $C$DW$44, DW_AT_type(*$C$DW$T$23)
     540                            .dwattr $C$DW$44, DW_AT_location[DW_OP_addr gMaxMCUSPerCol]
     541                            .dwattr $C$DW$44, DW_AT_decl_file("../picojpeg.c")
     542                            .dwattr $C$DW$44, DW_AT_decl_line(0xd5)
     543                            .dwattr $C$DW$44, DW_AT_decl_column(0x0f)
     544                    
     545 00000020                   .bss    gNumMCUSRemaining,2,2
     546                    $C$DW$45        .dwtag  DW_TAG_variable
     547                            .dwattr $C$DW$45, DW_AT_name("gNumMCUSRemaining")
     548                            .dwattr $C$DW$45, DW_AT_TI_symbol_name("gNumMCUSRemaining")
     549                            .dwattr $C$DW$45, DW_AT_type(*$C$DW$T$23)
     550                            .dwattr $C$DW$45, DW_AT_location[DW_OP_addr gNumMCUSRemaining]
TI ARM Assembler PC v16.9.6 Sun Dec 02 13:28:46 2018

Tools Copyright (c) 1996-2017 Texas Instruments Incorporated
picojpeg.asm                                                         PAGE   11

     551                            .dwattr $C$DW$45, DW_AT_decl_file("../picojpeg.c")
     552                            .dwattr $C$DW$45, DW_AT_decl_line(0xd6)
     553                            .dwattr $C$DW$45, DW_AT_decl_column(0x0f)
     554                    
     555 00000000           gMCUOrg:        .usect  ".bss:gMCUOrg",8,1
     556                            .clink ".bss:gMCUOrg"
     557                    $C$DW$46        .dwtag  DW_TAG_variable
     558                            .dwattr $C$DW$46, DW_AT_name("gMCUOrg")
     559                            .dwattr $C$DW$46, DW_AT_TI_symbol_name("gMCUOrg")
     560                            .dwattr $C$DW$46, DW_AT_type(*$C$DW$T$80)
     561                            .dwattr $C$DW$46, DW_AT_location[DW_OP_addr gMCUOrg]
     562                            .dwattr $C$DW$46, DW_AT_decl_file("../picojpeg.c")
     563                            .dwattr $C$DW$46, DW_AT_decl_line(0xd7)
     564                            .dwattr $C$DW$46, DW_AT_decl_column(0x0e)
     565                    
     566 00000024                   .bss    g_pNeedBytesCallback,4,4
     567                    $C$DW$47        .dwtag  DW_TAG_variable
     568                            .dwattr $C$DW$47, DW_AT_name("g_pNeedBytesCallback")
     569                            .dwattr $C$DW$47, DW_AT_TI_symbol_name("g_pNeedBytesCallback")
     570                            .dwattr $C$DW$47, DW_AT_type(*$C$DW$T$61)
     571                            .dwattr $C$DW$47, DW_AT_location[DW_OP_addr g_pNeedBytesCallback]
     572                            .dwattr $C$DW$47, DW_AT_decl_file("../picojpeg.c")
     573                            .dwattr $C$DW$47, DW_AT_decl_line(0xd9)
     574                            .dwattr $C$DW$47, DW_AT_decl_column(0x24)
     575                    
     576 00000028                   .bss    g_pCallback_data,4,4
     577                    $C$DW$48        .dwtag  DW_TAG_variable
     578                            .dwattr $C$DW$48, DW_AT_name("g_pCallback_data")
     579                            .dwattr $C$DW$48, DW_AT_TI_symbol_name("g_pCallback_data")
     580                            .dwattr $C$DW$48, DW_AT_type(*$C$DW$T$3)
     581                            .dwattr $C$DW$48, DW_AT_location[DW_OP_addr g_pCallback_data]
     582                            .dwattr $C$DW$48, DW_AT_decl_file("../picojpeg.c")
     583                            .dwattr $C$DW$48, DW_AT_decl_line(0xda)
     584                            .dwattr $C$DW$48, DW_AT_decl_column(0x0e)
     585                    
     586 0000002c                   .bss    gCallbackStatus,1,1
     587                    $C$DW$49        .dwtag  DW_TAG_variable
     588                            .dwattr $C$DW$49, DW_AT_name("gCallbackStatus")
     589                            .dwattr $C$DW$49, DW_AT_TI_symbol_name("gCallbackStatus")
     590                            .dwattr $C$DW$49, DW_AT_type(*$C$DW$T$25)
     591                            .dwattr $C$DW$49, DW_AT_location[DW_OP_addr gCallbackStatus]
     592                            .dwattr $C$DW$49, DW_AT_decl_file("../picojpeg.c")
     593                            .dwattr $C$DW$49, DW_AT_decl_line(0xdb)
     594                            .dwattr $C$DW$49, DW_AT_decl_column(0x0e)
     595                    
     596 0000002d                   .bss    gReduce,1,1
     597                    $C$DW$50        .dwtag  DW_TAG_variable
     598                            .dwattr $C$DW$50, DW_AT_name("gReduce")
     599                            .dwattr $C$DW$50, DW_AT_TI_symbol_name("gReduce")
     600                            .dwattr $C$DW$50, DW_AT_type(*$C$DW$T$25)
     601                            .dwattr $C$DW$50, DW_AT_location[DW_OP_addr gReduce]
     602                            .dwattr $C$DW$50, DW_AT_decl_file("../picojpeg.c")
     603                            .dwattr $C$DW$50, DW_AT_decl_line(0xdc)
     604                            .dwattr $C$DW$50, DW_AT_decl_column(0x0e)
     605                    
TI ARM Assembler PC v16.9.6 Sun Dec 02 13:28:46 2018

Tools Copyright (c) 1996-2017 Texas Instruments Incorporated
picojpeg.asm                                                         PAGE   12

     606                            .global gWinogradQuant
     607 00000000                   .sect   ".const:.string:gWinogradQuant"
     608                            .clink
     609                            .align  1
     610                            .elfsym gWinogradQuant,SYM_SIZE(64)
     611 00000000           gWinogradQuant:
     612 00000000 00000080          .bits   128,8                   ; gWinogradQuant[0] @ 0
     613 00000000 0000B280          .bits   178,8                   ; gWinogradQuant[1] @ 8
     614 00000000 00B2B280          .bits   178,8                   ; gWinogradQuant[2] @ 16
     615 00000000 A7B2B280          .bits   167,8                   ; gWinogradQuant[3] @ 24
     616 00000004 000000F6          .bits   246,8                   ; gWinogradQuant[4] @ 32
     617 00000004 0000A7F6          .bits   167,8                   ; gWinogradQuant[5] @ 40
     618 00000004 0097A7F6          .bits   151,8                   ; gWinogradQuant[6] @ 48
     619 00000004 E897A7F6          .bits   232,8                   ; gWinogradQuant[7] @ 56
     620 00000008 000000E8          .bits   232,8                   ; gWinogradQuant[8] @ 64
     621 00000008 000097E8          .bits   151,8                   ; gWinogradQuant[9] @ 72
     622 00000008 008097E8          .bits   128,8                   ; gWinogradQuant[10] @ 80
     623 00000008 D18097E8          .bits   209,8                   ; gWinogradQuant[11] @ 88
     624 0000000c 000000DB          .bits   219,8                   ; gWinogradQuant[12] @ 96
     625 0000000c 0000D1DB          .bits   209,8                   ; gWinogradQuant[13] @ 104
     626 0000000c 0080D1DB          .bits   128,8                   ; gWinogradQuant[14] @ 112
     627 0000000c 6580D1DB          .bits   101,8                   ; gWinogradQuant[15] @ 120
     628 00000010 000000B2          .bits   178,8                   ; gWinogradQuant[16] @ 128
     629 00000010 0000C5B2          .bits   197,8                   ; gWinogradQuant[17] @ 136
     630 00000010 00C5C5B2          .bits   197,8                   ; gWinogradQuant[18] @ 144
     631 00000010 B2C5C5B2          .bits   178,8                   ; gWinogradQuant[19] @ 152
     632 00000014 00000065          .bits   101,8                   ; gWinogradQuant[20] @ 160
     633 00000014 00004565          .bits   69,8                    ; gWinogradQuant[21] @ 168
     634 00000014 008B4565          .bits   139,8                   ; gWinogradQuant[22] @ 176
     635 00000014 A78B4565          .bits   167,8                   ; gWinogradQuant[23] @ 184
     636 00000018 000000B1          .bits   177,8                   ; gWinogradQuant[24] @ 192
     637 00000018 0000A7B1          .bits   167,8                   ; gWinogradQuant[25] @ 200
     638 00000018 008BA7B1          .bits   139,8                   ; gWinogradQuant[26] @ 208
     639 00000018 458BA7B1          .bits   69,8                    ; gWinogradQuant[27] @ 216
     640 0000001c 00000023          .bits   35,8                    ; gWinogradQuant[28] @ 224
     641 0000001c 00006023          .bits   96,8                    ; gWinogradQuant[29] @ 232
     642 0000001c 00836023          .bits   131,8                   ; gWinogradQuant[30] @ 240
     643 0000001c 97836023          .bits   151,8                   ; gWinogradQuant[31] @ 248
     644 00000020 00000097          .bits   151,8                   ; gWinogradQuant[32] @ 256
     645 00000020 00008397          .bits   131,8                   ; gWinogradQuant[33] @ 264
     646 00000020 00608397          .bits   96,8                    ; gWinogradQuant[34] @ 272
     647 00000020 23608397          .bits   35,8                    ; gWinogradQuant[35] @ 280
     648 00000024 00000031          .bits   49,8                    ; gWinogradQuant[36] @ 288
     649 00000024 00005B31          .bits   91,8                    ; gWinogradQuant[37] @ 296
     650 00000024 00765B31          .bits   118,8                   ; gWinogradQuant[38] @ 304
     651 00000024 80765B31          .bits   128,8                   ; gWinogradQuant[39] @ 312
     652 00000028 00000076          .bits   118,8                   ; gWinogradQuant[40] @ 320
     653 00000028 00005B76          .bits   91,8                    ; gWinogradQuant[41] @ 328
     654 00000028 00315B76          .bits   49,8                    ; gWinogradQuant[42] @ 336
     655 00000028 2E315B76          .bits   46,8                    ; gWinogradQuant[43] @ 344
     656 0000002c 00000051          .bits   81,8                    ; gWinogradQuant[44] @ 352
     657 0000002c 00006551          .bits   101,8                   ; gWinogradQuant[45] @ 360
     658 0000002c 00656551          .bits   101,8                   ; gWinogradQuant[46] @ 368
     659 0000002c 51656551          .bits   81,8                    ; gWinogradQuant[47] @ 376
     660 00000030 0000002E          .bits   46,8                    ; gWinogradQuant[48] @ 384
TI ARM Assembler PC v16.9.6 Sun Dec 02 13:28:46 2018

Tools Copyright (c) 1996-2017 Texas Instruments Incorporated
picojpeg.asm                                                         PAGE   13

     661 00000030 00002A2E          .bits   42,8                    ; gWinogradQuant[49] @ 392
     662 00000030 00452A2E          .bits   69,8                    ; gWinogradQuant[50] @ 400
     663 00000030 4F452A2E          .bits   79,8                    ; gWinogradQuant[51] @ 408
     664 00000034 00000045          .bits   69,8                    ; gWinogradQuant[52] @ 416
     665 00000034 00002A45          .bits   42,8                    ; gWinogradQuant[53] @ 424
     666 00000034 00232A45          .bits   35,8                    ; gWinogradQuant[54] @ 432
     667 00000034 36232A45          .bits   54,8                    ; gWinogradQuant[55] @ 440
     668 00000038 00000036          .bits   54,8                    ; gWinogradQuant[56] @ 448
     669 00000038 00002336          .bits   35,8                    ; gWinogradQuant[57] @ 456
     670 00000038 001C2336          .bits   28,8                    ; gWinogradQuant[58] @ 464
     671 00000038 251C2336          .bits   37,8                    ; gWinogradQuant[59] @ 472
     672 0000003c 0000001C          .bits   28,8                    ; gWinogradQuant[60] @ 480
     673 0000003c 0000131C          .bits   19,8                    ; gWinogradQuant[61] @ 488
     674 0000003c 0013131C          .bits   19,8                    ; gWinogradQuant[62] @ 496
     675 0000003c 0A13131C          .bits   10,8                    ; gWinogradQuant[63] @ 504
     676                    
     677                    $C$DW$51        .dwtag  DW_TAG_variable
     678                            .dwattr $C$DW$51, DW_AT_name("gWinogradQuant")
     679                            .dwattr $C$DW$51, DW_AT_TI_symbol_name("gWinogradQuant")
     680                            .dwattr $C$DW$51, DW_AT_location[DW_OP_addr gWinogradQuant]
     681                            .dwattr $C$DW$51, DW_AT_type(*$C$DW$T$81)
     682                            .dwattr $C$DW$51, DW_AT_external
     683                            .dwattr $C$DW$51, DW_AT_decl_file("../picojpeg.c")
     684                            .dwattr $C$DW$51, DW_AT_decl_line(0x4c0)
     685                            .dwattr $C$DW$51, DW_AT_decl_column(0x0d)
     686                    
     687                    ;       C:\ti\ccsv7\tools\compiler\ti-cgt-arm_16.9.6.LTS\bin\armacpia.exe -@C:\\Users\\brian\\AppData\
     688 00000000                   .sect   ".text"
     689                            .clink
     690                            .thumbfunc replicateSignBit16
     691 00000000                   .thumb
     692                    
     693                    $C$DW$52        .dwtag  DW_TAG_subprogram
     694                            .dwattr $C$DW$52, DW_AT_name("replicateSignBit16")
     695                            .dwattr $C$DW$52, DW_AT_low_pc(replicateSignBit16)
     696                            .dwattr $C$DW$52, DW_AT_high_pc(0x00)
     697                            .dwattr $C$DW$52, DW_AT_TI_symbol_name("replicateSignBit16")
     698                            .dwattr $C$DW$52, DW_AT_type(*$C$DW$T$48)
     699                            .dwattr $C$DW$52, DW_AT_TI_begin_file("../picojpeg.c")
     700                            .dwattr $C$DW$52, DW_AT_TI_begin_line(0x17)
     701                            .dwattr $C$DW$52, DW_AT_TI_begin_column(0x0e)
     702                            .dwattr $C$DW$52, DW_AT_decl_file("../picojpeg.c")
     703                            .dwattr $C$DW$52, DW_AT_decl_line(0x17)
     704                            .dwattr $C$DW$52, DW_AT_decl_column(0x0e)
     705                            .dwattr $C$DW$52, DW_AT_TI_max_frame_size(0x08)
     706                            .dwpsn  file "../picojpeg.c",line 24,column 1,is_stmt,address replicateSignBit16,isa 1
     707                    
     708                            .dwfde $C$DW$CIE, replicateSignBit16
     709                    $C$DW$53        .dwtag  DW_TAG_formal_parameter
     710                            .dwattr $C$DW$53, DW_AT_name("n")
     711                            .dwattr $C$DW$53, DW_AT_TI_symbol_name("n")
     712                            .dwattr $C$DW$53, DW_AT_type(*$C$DW$T$54)
     713                            .dwattr $C$DW$53, DW_AT_location[DW_OP_reg0]
     714                    
     715                    ;----------------------------------------------------------------------
TI ARM Assembler PC v16.9.6 Sun Dec 02 13:28:46 2018

Tools Copyright (c) 1996-2017 Texas Instruments Incorporated
picojpeg.asm                                                         PAGE   14

     716                    ;  23 | static int16 replicateSignBit16(int8 n)                                
     717                    ;----------------------------------------------------------------------
     718                    
     719                    ;*****************************************************************************
     720                    ;* FUNCTION NAME: replicateSignBit16                                         *
     721                    ;*                                                                           *
     722                    ;*   Regs Modified     : A1,A2,SP,SR                                         *
     723                    ;*   Regs Used         : A1,A2,SP,LR,SR                                      *
     724                    ;*   Local Frame Size  : 0 Args + 4 Auto + 0 Save = 4 byte                   *
     725                    ;*****************************************************************************
     726 00000000           replicateSignBit16:
     727                    ;* --------------------------------------------------------------------------*
     728                            .dwcfi  cfa_offset, 0
     729 00000000 0D08F1AD          SUB       SP, SP, #8            ; [DPU_3_PIPE]  ; [KEEP 32-BIT INS]
     730                            .dwcfi  cfa_offset, 8
     731                    $C$DW$54        .dwtag  DW_TAG_variable
     732                            .dwattr $C$DW$54, DW_AT_name("n")
     733                            .dwattr $C$DW$54, DW_AT_TI_symbol_name("n")
     734                            .dwattr $C$DW$54, DW_AT_type(*$C$DW$T$54)
     735                            .dwattr $C$DW$54, DW_AT_location[DW_OP_breg13 0]
     736                    
     737 00000004 0000F88D          STRB      A1, [SP, #0]          ; [DPU_3_PIPE] |24|  ; [KEEP 32-BIT INS]
     738                            .dwpsn  file "../picojpeg.c",line 25,column 4,is_stmt,isa 1
     739                    ;----------------------------------------------------------------------
     740                    ;  25 | switch (n)                                                             
     741                    ;----------------------------------------------------------------------
     742 00000008 E02A              B         ||$C$L18||            ; [DPU_3_PIPE] |25|  ; [ORIG 16-BIT INS]
     743                            ; BRANCH OCCURS {||$C$L18||}     ; [] |25| 
     744                    ;* --------------------------------------------------------------------------*
     745 0000000a           ||$C$L1||:    
     746                            .dwpsn  file "../picojpeg.c",line 27,column 16,is_stmt,isa 1
     747                    ;----------------------------------------------------------------------
     748                    ;  27 | case 0:  return 0x0000;                                                
     749                    ;----------------------------------------------------------------------
     750 0000000a 2000              MOVS      A1, #0                ; [DPU_3_PIPE] |27|  ; [ORIG 16-BIT INS]
     751 0000000c E050              B         ||$C$L19||            ; [DPU_3_PIPE] |27|  ; [ORIG 16-BIT INS]
     752                            ; BRANCH OCCURS {||$C$L19||}     ; [] |27| 
     753                    ;* --------------------------------------------------------------------------*
     754 0000000e           ||$C$L2||:    
     755                            .dwpsn  file "../picojpeg.c",line 28,column 16,is_stmt,isa 1
     756                    ;----------------------------------------------------------------------
     757                    ;  28 | case 1:  return 0x8000;                                                
     758                    ;----------------------------------------------------------------------
     759 0000000e 48BC              LDR       A1, $C$CON1           ; [DPU_3_PIPE] |28|  ; [ORIG 16-BIT INS]
     760 00000010 E04E              B         ||$C$L19||            ; [DPU_3_PIPE] |28|  ; [ORIG 16-BIT INS]
     761                            ; BRANCH OCCURS {||$C$L19||}     ; [] |28| 
     762                    ;* --------------------------------------------------------------------------*
     763 00000012           ||$C$L3||:    
     764                            .dwpsn  file "../picojpeg.c",line 29,column 16,is_stmt,isa 1
     765                    ;----------------------------------------------------------------------
     766                    ;  29 | case 2:  return 0xC000;                                                
     767                    ;----------------------------------------------------------------------
     768 00000012 48BC              LDR       A1, $C$CON2           ; [DPU_3_PIPE] |29|  ; [ORIG 16-BIT INS]
     769 00000014 E04C              B         ||$C$L19||            ; [DPU_3_PIPE] |29|  ; [ORIG 16-BIT INS]
     770                            ; BRANCH OCCURS {||$C$L19||}     ; [] |29| 
TI ARM Assembler PC v16.9.6 Sun Dec 02 13:28:46 2018

Tools Copyright (c) 1996-2017 Texas Instruments Incorporated
picojpeg.asm                                                         PAGE   15

     771                    ;* --------------------------------------------------------------------------*
     772 00000016           ||$C$L4||:    
     773                            .dwpsn  file "../picojpeg.c",line 30,column 16,is_stmt,isa 1
     774                    ;----------------------------------------------------------------------
     775                    ;  30 | case 3:  return 0xE000;                                                
     776                    ;----------------------------------------------------------------------
     777 00000016 48BC              LDR       A1, $C$CON3           ; [DPU_3_PIPE] |30|  ; [ORIG 16-BIT INS]
     778 00000018 E04A              B         ||$C$L19||            ; [DPU_3_PIPE] |30|  ; [ORIG 16-BIT INS]
     779                            ; BRANCH OCCURS {||$C$L19||}     ; [] |30| 
     780                    ;* --------------------------------------------------------------------------*
     781 0000001a           ||$C$L5||:    
     782                            .dwpsn  file "../picojpeg.c",line 31,column 16,is_stmt,isa 1
     783                    ;----------------------------------------------------------------------
     784                    ;  31 | case 4:  return 0xF000;                                                
     785                    ;----------------------------------------------------------------------
     786 0000001a 48BC              LDR       A1, $C$CON4           ; [DPU_3_PIPE] |31|  ; [ORIG 16-BIT INS]
     787 0000001c E048              B         ||$C$L19||            ; [DPU_3_PIPE] |31|  ; [ORIG 16-BIT INS]
     788                            ; BRANCH OCCURS {||$C$L19||}     ; [] |31| 
     789                    ;* --------------------------------------------------------------------------*
     790 0000001e           ||$C$L6||:    
     791                            .dwpsn  file "../picojpeg.c",line 32,column 16,is_stmt,isa 1
     792                    ;----------------------------------------------------------------------
     793                    ;  32 | case 5:  return 0xF800;                                                
     794                    ;----------------------------------------------------------------------
     795 0000001e 48BC              LDR       A1, $C$CON5           ; [DPU_3_PIPE] |32|  ; [ORIG 16-BIT INS]
     796 00000020 E046              B         ||$C$L19||            ; [DPU_3_PIPE] |32|  ; [ORIG 16-BIT INS]
     797                            ; BRANCH OCCURS {||$C$L19||}     ; [] |32| 
     798                    ;* --------------------------------------------------------------------------*
     799 00000022           ||$C$L7||:    
     800                            .dwpsn  file "../picojpeg.c",line 33,column 16,is_stmt,isa 1
     801                    ;----------------------------------------------------------------------
     802                    ;  33 | case 6:  return 0xFC00;                                                
     803                    ;----------------------------------------------------------------------
     804 00000022 48BC              LDR       A1, $C$CON6           ; [DPU_3_PIPE] |33|  ; [ORIG 16-BIT INS]
     805 00000024 E044              B         ||$C$L19||            ; [DPU_3_PIPE] |33|  ; [ORIG 16-BIT INS]
     806                            ; BRANCH OCCURS {||$C$L19||}     ; [] |33| 
     807                    ;* --------------------------------------------------------------------------*
     808 00000026           ||$C$L8||:    
     809                            .dwpsn  file "../picojpeg.c",line 34,column 16,is_stmt,isa 1
     810                    ;----------------------------------------------------------------------
     811                    ;  34 | case 7:  return 0xFE00;                                                
     812                    ;----------------------------------------------------------------------
     813 00000026 48BC              LDR       A1, $C$CON7           ; [DPU_3_PIPE] |34|  ; [ORIG 16-BIT INS]
     814 00000028 E042              B         ||$C$L19||            ; [DPU_3_PIPE] |34|  ; [ORIG 16-BIT INS]
     815                            ; BRANCH OCCURS {||$C$L19||}     ; [] |34| 
     816                    ;* --------------------------------------------------------------------------*
     817 0000002a           ||$C$L9||:    
     818                            .dwpsn  file "../picojpeg.c",line 35,column 16,is_stmt,isa 1
     819                    ;----------------------------------------------------------------------
     820                    ;  35 | case 8:  return 0xFF00;                                                
     821                    ;----------------------------------------------------------------------
     822 0000002a 00FFF06F          MVN       A1, #255              ; [DPU_3_PIPE] |35|  ; [KEEP 32-BIT INS]
     823 0000002e E03F              B         ||$C$L19||            ; [DPU_3_PIPE] |35|  ; [ORIG 16-BIT INS]
     824                            ; BRANCH OCCURS {||$C$L19||}     ; [] |35| 
     825                    ;* --------------------------------------------------------------------------*
TI ARM Assembler PC v16.9.6 Sun Dec 02 13:28:46 2018

Tools Copyright (c) 1996-2017 Texas Instruments Incorporated
picojpeg.asm                                                         PAGE   16

     826 00000030           ||$C$L10||:    
     827                            .dwpsn  file "../picojpeg.c",line 36,column 16,is_stmt,isa 1
     828                    ;----------------------------------------------------------------------
     829                    ;  36 | case 9:  return 0xFF80;                                                
     830                    ;----------------------------------------------------------------------
     831 00000030 007FF06F          MVN       A1, #127              ; [DPU_3_PIPE] |36|  ; [KEEP 32-BIT INS]
     832 00000034 E03C              B         ||$C$L19||            ; [DPU_3_PIPE] |36|  ; [ORIG 16-BIT INS]
     833                            ; BRANCH OCCURS {||$C$L19||}     ; [] |36| 
     834                    ;* --------------------------------------------------------------------------*
     835 00000036           ||$C$L11||:    
     836                            .dwpsn  file "../picojpeg.c",line 37,column 16,is_stmt,isa 1
     837                    ;----------------------------------------------------------------------
     838                    ;  37 | case 10: return 0xFFC0;                                                
     839                    ;----------------------------------------------------------------------
     840 00000036 003FF06F          MVN       A1, #63               ; [DPU_3_PIPE] |37|  ; [KEEP 32-BIT INS]
     841 0000003a E039              B         ||$C$L19||            ; [DPU_3_PIPE] |37|  ; [ORIG 16-BIT INS]
     842                            ; BRANCH OCCURS {||$C$L19||}     ; [] |37| 
     843                    ;* --------------------------------------------------------------------------*
     844 0000003c           ||$C$L12||:    
     845                            .dwpsn  file "../picojpeg.c",line 38,column 16,is_stmt,isa 1
     846                    ;----------------------------------------------------------------------
     847                    ;  38 | case 11: return 0xFFE0;                                                
     848                    ;----------------------------------------------------------------------
     849 0000003c 001FF06F          MVN       A1, #31               ; [DPU_3_PIPE] |38|  ; [KEEP 32-BIT INS]
     850 00000040 E036              B         ||$C$L19||            ; [DPU_3_PIPE] |38|  ; [ORIG 16-BIT INS]
     851                            ; BRANCH OCCURS {||$C$L19||}     ; [] |38| 
     852                    ;* --------------------------------------------------------------------------*
     853 00000042           ||$C$L13||:    
     854                            .dwpsn  file "../picojpeg.c",line 39,column 16,is_stmt,isa 1
     855                    ;----------------------------------------------------------------------
     856                    ;  39 | case 12: return 0xFFF0;                                                
     857                    ;----------------------------------------------------------------------
     858 00000042 000FF06F          MVN       A1, #15               ; [DPU_3_PIPE] |39|  ; [KEEP 32-BIT INS]
     859 00000046 E033              B         ||$C$L19||            ; [DPU_3_PIPE] |39|  ; [ORIG 16-BIT INS]
     860                            ; BRANCH OCCURS {||$C$L19||}     ; [] |39| 
     861                    ;* --------------------------------------------------------------------------*
     862 00000048           ||$C$L14||:    
     863                            .dwpsn  file "../picojpeg.c",line 40,column 16,is_stmt,isa 1
     864                    ;----------------------------------------------------------------------
     865                    ;  40 | case 13: return 0xFFF8;                                                
     866                    ;----------------------------------------------------------------------
     867 00000048 0007F06F          MVN       A1, #7                ; [DPU_3_PIPE] |40|  ; [KEEP 32-BIT INS]
     868 0000004c E030              B         ||$C$L19||            ; [DPU_3_PIPE] |40|  ; [ORIG 16-BIT INS]
     869                            ; BRANCH OCCURS {||$C$L19||}     ; [] |40| 
     870                    ;* --------------------------------------------------------------------------*
     871 0000004e           ||$C$L15||:    
     872                            .dwpsn  file "../picojpeg.c",line 41,column 16,is_stmt,isa 1
     873                    ;----------------------------------------------------------------------
     874                    ;  41 | case 14: return 0xFFFC;                                                
     875                    ;----------------------------------------------------------------------
     876 0000004e 0003F06F          MVN       A1, #3                ; [DPU_3_PIPE] |41|  ; [KEEP 32-BIT INS]
     877 00000052 E02D              B         ||$C$L19||            ; [DPU_3_PIPE] |41|  ; [ORIG 16-BIT INS]
     878                            ; BRANCH OCCURS {||$C$L19||}     ; [] |41| 
     879                    ;* --------------------------------------------------------------------------*
     880 00000054           ||$C$L16||:    
TI ARM Assembler PC v16.9.6 Sun Dec 02 13:28:46 2018

Tools Copyright (c) 1996-2017 Texas Instruments Incorporated
picojpeg.asm                                                         PAGE   17

     881                            .dwpsn  file "../picojpeg.c",line 42,column 16,is_stmt,isa 1
     882                    ;----------------------------------------------------------------------
     883                    ;  42 | case 15: return 0xFFFE;                                                
     884                    ;----------------------------------------------------------------------
     885 00000054 0001F06F          MVN       A1, #1                ; [DPU_3_PIPE] |42|  ; [KEEP 32-BIT INS]
     886 00000058 E02A              B         ||$C$L19||            ; [DPU_3_PIPE] |42|  ; [ORIG 16-BIT INS]
     887                            ; BRANCH OCCURS {||$C$L19||}     ; [] |42| 
     888                    ;* --------------------------------------------------------------------------*
     889 0000005a           ||$C$L17||:    
     890                            .dwpsn  file "../picojpeg.c",line 43,column 16,is_stmt,isa 1
     891                    ;----------------------------------------------------------------------
     892                    ;  43 | default: return 0xFFFF;                                                
     893                    ;----------------------------------------------------------------------
     894 0000005a 30FFF04F          MOV       A1, #-1               ; [DPU_3_PIPE] |43|  ; [KEEP 32-BIT INS]
     895 0000005e E027              B         ||$C$L19||            ; [DPU_3_PIPE] |43|  ; [ORIG 16-BIT INS]
     896                            ; BRANCH OCCURS {||$C$L19||}     ; [] |43| 
     897                    ;* --------------------------------------------------------------------------*
     898                    ;* --------------------------------------------------------------------------*
     899 00000060           ||$C$L18||:    
     900                            .dwpsn  file "../picojpeg.c",line 25,column 4,is_stmt,isa 1
     901 00000060 0000F99D          LDRSB     A1, [SP, #0]          ; [DPU_3_PIPE] |25|  ; [KEEP 32-BIT INS]
     902 00000064 280F              CMP       A1, #15               ; [DPU_3_PIPE] |25|  ; [ORIG 16-BIT INS]
     903 00000066 D8F8              BHI       ||$C$L17||            ; [DPU_3_PIPE] |25|  ; [ORIG 16-BIT INS]
     904                            ; BRANCHCC OCCURS {||$C$L17||}   ; [] |25| 
     905                    ;* --------------------------------------------------------------------------*
     906 00000068 A101              ADR       A2, ||$C$SW1||        ; [DPU_3_PIPE] |25|  ; [ORIG 16-BIT INS]
     907 0000006a 0020F851          LDR       A1, [A2, +A1, LSL #2] ; [DPU_3_PIPE] |25|  ; [KEEP 32-BIT INS]
     908 0000006e 4687              MOV       PC, A1                ; [DPU_3_PIPE] |25|  ; [ORIG 16-BIT INS]
     909                            ; BRANCH OCCURS                  ; [] |25| 
     910 00000070 00000000! ||$C$SW1||:     .word   ||$C$L1||       ; 0
     911 00000074 00000000!         .word   ||$C$L2||       ; 1
     912 00000078 00000000!         .word   ||$C$L3||       ; 2
     913 0000007c 00000000!         .word   ||$C$L4||       ; 3
     914 00000080 00000000!         .word   ||$C$L5||       ; 4
     915 00000084 00000000!         .word   ||$C$L6||       ; 5
     916 00000088 00000000!         .word   ||$C$L7||       ; 6
     917 0000008c 00000000!         .word   ||$C$L8||       ; 7
     918 00000090 00000000!         .word   ||$C$L9||       ; 8
     919 00000094 00000000!         .word   ||$C$L10||      ; 9
     920 00000098 00000000!         .word   ||$C$L11||      ; 10
     921 0000009c 00000000!         .word   ||$C$L12||      ; 11
     922 000000a0 00000000!         .word   ||$C$L13||      ; 12
     923 000000a4 00000000!         .word   ||$C$L14||      ; 13
     924 000000a8 00000000!         .word   ||$C$L15||      ; 14
     925 000000ac 00000000!         .word   ||$C$L16||      ; 15
     926                    ;* --------------------------------------------------------------------------*
     927 000000b0           ||$C$L19||:    
     928                            .dwpsn  file "../picojpeg.c",line 45,column 1,is_stmt,isa 1
     929 000000b0 B002              ADD       SP, SP, #8            ; [DPU_3_PIPE]  ; [ORIG 16-BIT INS]
     930                            .dwcfi  cfa_offset, 0
     931                    $C$DW$55        .dwtag  DW_TAG_TI_branch
     932                            .dwattr $C$DW$55, DW_AT_low_pc(0x00)
     933                            .dwattr $C$DW$55, DW_AT_TI_return
     934                    
     935 000000b2 4770              BX        LR                    ; [DPU_3_PIPE]  ; [ORIG 16-BIT INS]
TI ARM Assembler PC v16.9.6 Sun Dec 02 13:28:46 2018

Tools Copyright (c) 1996-2017 Texas Instruments Incorporated
picojpeg.asm                                                         PAGE   18

     936                            ; BRANCH OCCURS                  ; [] 
     937                            .dwattr $C$DW$52, DW_AT_TI_end_file("../picojpeg.c")
     938                            .dwattr $C$DW$52, DW_AT_TI_end_line(0x2d)
     939                            .dwattr $C$DW$52, DW_AT_TI_end_column(0x01)
     940                            .dwendentry
     941                            .dwendtag $C$DW$52
     942                    
     943 000000b4                   .sect   ".text"
     944                            .clink
     945                            .thumbfunc arithmeticRightShiftN16
     946 000000b4                   .thumb
     947                    
     948                    $C$DW$56        .dwtag  DW_TAG_subprogram
     949                            .dwattr $C$DW$56, DW_AT_name("arithmeticRightShiftN16")
     950                            .dwattr $C$DW$56, DW_AT_low_pc(arithmeticRightShiftN16)
     951                            .dwattr $C$DW$56, DW_AT_high_pc(0x00)
     952                            .dwattr $C$DW$56, DW_AT_TI_symbol_name("arithmeticRightShiftN16")
     953                            .dwattr $C$DW$56, DW_AT_type(*$C$DW$T$48)
     954                            .dwattr $C$DW$56, DW_AT_TI_begin_file("../picojpeg.c")
     955                            .dwattr $C$DW$56, DW_AT_TI_begin_line(0x2e)
     956                            .dwattr $C$DW$56, DW_AT_TI_begin_column(0x1a)
     957                            .dwattr $C$DW$56, DW_AT_decl_file("../picojpeg.c")
     958                            .dwattr $C$DW$56, DW_AT_decl_line(0x2e)
     959                            .dwattr $C$DW$56, DW_AT_decl_column(0x1a)
     960                            .dwattr $C$DW$56, DW_AT_TI_max_frame_size(0x10)
     961                            .dwpsn  file "../picojpeg.c",line 47,column 1,is_stmt,address arithmeticRightShiftN16,isa 1
     962                    
     963                            .dwfde $C$DW$CIE, arithmeticRightShiftN16
     964                    $C$DW$57        .dwtag  DW_TAG_formal_parameter
     965                            .dwattr $C$DW$57, DW_AT_name("x")
     966                            .dwattr $C$DW$57, DW_AT_TI_symbol_name("x")
     967                            .dwattr $C$DW$57, DW_AT_type(*$C$DW$T$48)
     968                            .dwattr $C$DW$57, DW_AT_location[DW_OP_reg0]
     969                    
     970                    $C$DW$58        .dwtag  DW_TAG_formal_parameter
     971                            .dwattr $C$DW$58, DW_AT_name("n")
     972                            .dwattr $C$DW$58, DW_AT_TI_symbol_name("n")
     973                            .dwattr $C$DW$58, DW_AT_type(*$C$DW$T$54)
     974                            .dwattr $C$DW$58, DW_AT_location[DW_OP_reg1]
     975                    
     976                    ;----------------------------------------------------------------------
     977                    ;  46 | static PJPG_INLINE int16 arithmeticRightShiftN16(int16 x, int8 n)      
     978                    ;----------------------------------------------------------------------
     979                    
     980                    ;*****************************************************************************
     981                    ;* FUNCTION NAME: arithmeticRightShiftN16                                    *
     982                    ;*                                                                           *
     983                    ;*   Regs Modified     : A1,A2,A3,A4,SP,LR,SR,FPEXC,FPSCR                    *
     984                    ;*   Regs Used         : A1,A2,A3,A4,SP,LR,SR,FPEXC,FPSCR                    *
     985                    ;*   Local Frame Size  : 0 Args + 8 Auto + 4 Save = 12 byte                  *
     986                    ;*****************************************************************************
     987 000000b4           arithmeticRightShiftN16:
     988                    ;* --------------------------------------------------------------------------*
     989                            .dwcfi  cfa_offset, 0
     990 000000b4 B50E              PUSH      {A2, A3, A4, LR}      ; [DPU_3_PIPE]  ; [ORIG 16-BIT INS]
TI ARM Assembler PC v16.9.6 Sun Dec 02 13:28:46 2018

Tools Copyright (c) 1996-2017 Texas Instruments Incorporated
picojpeg.asm                                                         PAGE   19

     991                            .dwcfi  cfa_offset, 16
     992                            .dwcfi  save_reg_to_mem, 14, -4
     993                            .dwcfi  save_reg_to_mem, 3, -8
     994                            .dwcfi  save_reg_to_mem, 2, -12
     995                            .dwcfi  save_reg_to_mem, 1, -16
     996                    $C$DW$59        .dwtag  DW_TAG_variable
     997                            .dwattr $C$DW$59, DW_AT_name("x")
     998                            .dwattr $C$DW$59, DW_AT_TI_symbol_name("x")
     999                            .dwattr $C$DW$59, DW_AT_type(*$C$DW$T$48)
    1000                            .dwattr $C$DW$59, DW_AT_location[DW_OP_breg13 0]
    1001                    
    1002                    $C$DW$60        .dwtag  DW_TAG_variable
    1003                            .dwattr $C$DW$60, DW_AT_name("r")
    1004                            .dwattr $C$DW$60, DW_AT_TI_symbol_name("r")
    1005                            .dwattr $C$DW$60, DW_AT_type(*$C$DW$T$48)
    1006                            .dwattr $C$DW$60, DW_AT_location[DW_OP_breg13 2]
    1007                    
    1008                    $C$DW$61        .dwtag  DW_TAG_variable
    1009                            .dwattr $C$DW$61, DW_AT_name("n")
    1010                            .dwattr $C$DW$61, DW_AT_TI_symbol_name("n")
    1011                            .dwattr $C$DW$61, DW_AT_type(*$C$DW$T$54)
    1012                            .dwattr $C$DW$61, DW_AT_location[DW_OP_breg13 4]
    1013                    
    1014 000000b6 1004F88D          STRB      A2, [SP, #4]          ; [DPU_3_PIPE] |47|  ; [KEEP 32-BIT INS]
    1015 000000ba 0000F8AD          STRH      A1, [SP, #0]          ; [DPU_3_PIPE] |47|  ; [KEEP 32-BIT INS]
    1016                            .dwpsn  file "../picojpeg.c",line 48,column 12,is_stmt,isa 1
    1017                    ;----------------------------------------------------------------------
    1018                    ;  48 | int16 r = (uint16)x >> (uint8)n;                                       
    1019                    ;----------------------------------------------------------------------
    1020 000000be 0000F8BD          LDRH      A1, [SP, #0]          ; [DPU_3_PIPE] |48|  ; [KEEP 32-BIT INS]
    1021 000000c2 1004F89D          LDRB      A2, [SP, #4]          ; [DPU_3_PIPE] |48|  ; [KEEP 32-BIT INS]
    1022 000000c6 4108              ASRS      A1, A1, A2            ; [DPU_3_PIPE] |48|  ; [ORIG 16-BIT INS]
    1023 000000c8 0002F8AD          STRH      A1, [SP, #2]          ; [DPU_3_PIPE] |48|  ; [KEEP 32-BIT INS]
    1024                            .dwpsn  file "../picojpeg.c",line 49,column 4,is_stmt,isa 1
    1025                    ;----------------------------------------------------------------------
    1026                    ;  49 | if (x < 0)                                                             
    1027                    ;----------------------------------------------------------------------
    1028 000000cc 0000F9BD          LDRSH     A1, [SP, #0]          ; [DPU_3_PIPE] |49|  ; [KEEP 32-BIT INS]
    1029 000000d0 2800              CMP       A1, #0                ; [DPU_3_PIPE] |49|  ; [ORIG 16-BIT INS]
    1030 000000d2 D508              BPL       ||$C$L20||            ; [DPU_3_PIPE] |49|  ; [ORIG 16-BIT INS]
    1031                            ; BRANCHCC OCCURS {||$C$L20||}   ; [] |49| 
    1032                    ;* --------------------------------------------------------------------------*
    1033                            .dwpsn  file "../picojpeg.c",line 50,column 7,is_stmt,isa 1
    1034                    ;----------------------------------------------------------------------
    1035                    ;  50 | r |= replicateSignBit16(n);                                            
    1036                    ;----------------------------------------------------------------------
    1037 000000d4 0004F99D          LDRSB     A1, [SP, #4]          ; [DPU_3_PIPE] |50|  ; [KEEP 32-BIT INS]
    1038                    $C$DW$62        .dwtag  DW_TAG_TI_branch
    1039                            .dwattr $C$DW$62, DW_AT_low_pc(0x00)
    1040                            .dwattr $C$DW$62, DW_AT_name("replicateSignBit16")
    1041                            .dwattr $C$DW$62, DW_AT_TI_call
    1042                    
    1043 000000d8 FFFEF7FF!         BL        replicateSignBit16    ; [DPU_3_PIPE] |50|  ; [KEEP 32-BIT INS]
    1044                            ; CALL OCCURS {replicateSignBit16 }  ; [] |50| 
    1045 000000dc 1002F9BD          LDRSH     A2, [SP, #2]          ; [DPU_3_PIPE] |50|  ; [KEEP 32-BIT INS]
TI ARM Assembler PC v16.9.6 Sun Dec 02 13:28:46 2018

Tools Copyright (c) 1996-2017 Texas Instruments Incorporated
picojpeg.asm                                                         PAGE   20

    1046 000000e0 4308              ORRS      A1, A1, A2            ; [DPU_3_PIPE] |50|  ; [ORIG 16-BIT INS]
    1047 000000e2 0002F8AD          STRH      A1, [SP, #2]          ; [DPU_3_PIPE] |50|  ; [KEEP 32-BIT INS]
    1048                    ;* --------------------------------------------------------------------------*
    1049 000000e6           ||$C$L20||:    
    1050                            .dwpsn  file "../picojpeg.c",line 51,column 4,is_stmt,isa 1
    1051                    ;----------------------------------------------------------------------
    1052                    ;  51 | return r;                                                              
    1053                    ;----------------------------------------------------------------------
    1054 000000e6 0002F9BD          LDRSH     A1, [SP, #2]          ; [DPU_3_PIPE] |51|  ; [KEEP 32-BIT INS]
    1055                            .dwpsn  file "../picojpeg.c",line 52,column 1,is_stmt,isa 1
    1056                    $C$DW$63        .dwtag  DW_TAG_TI_branch
    1057                            .dwattr $C$DW$63, DW_AT_low_pc(0x00)
    1058                            .dwattr $C$DW$63, DW_AT_TI_return
    1059                    
    1060 000000ea BD0E              POP       {A2, A3, A4, PC}      ; [DPU_3_PIPE]  ; [ORIG 16-BIT INS]
    1061                            .dwcfi  cfa_offset, 0
    1062                            .dwcfi  restore_reg, 3
    1063                            .dwcfi  restore_reg, 2
    1064                            .dwcfi  restore_reg, 1
    1065                            ; BRANCH OCCURS                  ; [] 
    1066                            .dwattr $C$DW$56, DW_AT_TI_end_file("../picojpeg.c")
    1067                            .dwattr $C$DW$56, DW_AT_TI_end_line(0x34)
    1068                            .dwattr $C$DW$56, DW_AT_TI_end_column(0x01)
    1069                            .dwendentry
    1070                            .dwendtag $C$DW$56
    1071                    
    1072 000000ec                   .sect   ".text"
    1073                            .clink
    1074                            .thumbfunc arithmeticRightShift8L
    1075 000000ec                   .thumb
    1076                    
    1077                    $C$DW$64        .dwtag  DW_TAG_subprogram
    1078                            .dwattr $C$DW$64, DW_AT_name("arithmeticRightShift8L")
    1079                            .dwattr $C$DW$64, DW_AT_low_pc(arithmeticRightShift8L)
    1080                            .dwattr $C$DW$64, DW_AT_high_pc(0x00)
    1081                            .dwattr $C$DW$64, DW_AT_TI_symbol_name("arithmeticRightShift8L")
    1082                            .dwattr $C$DW$64, DW_AT_type(*$C$DW$T$12)
    1083                            .dwattr $C$DW$64, DW_AT_TI_begin_file("../picojpeg.c")
    1084                            .dwattr $C$DW$64, DW_AT_TI_begin_line(0x35)
    1085                            .dwattr $C$DW$64, DW_AT_TI_begin_column(0x19)
    1086                            .dwattr $C$DW$64, DW_AT_decl_file("../picojpeg.c")
    1087                            .dwattr $C$DW$64, DW_AT_decl_line(0x35)
    1088                            .dwattr $C$DW$64, DW_AT_decl_column(0x19)
    1089                            .dwattr $C$DW$64, DW_AT_TI_max_frame_size(0x08)
    1090                            .dwpsn  file "../picojpeg.c",line 54,column 1,is_stmt,address arithmeticRightShift8L,isa 1
    1091                    
    1092                            .dwfde $C$DW$CIE, arithmeticRightShift8L
    1093                    $C$DW$65        .dwtag  DW_TAG_formal_parameter
    1094                            .dwattr $C$DW$65, DW_AT_name("x")
    1095                            .dwattr $C$DW$65, DW_AT_TI_symbol_name("x")
    1096                            .dwattr $C$DW$65, DW_AT_type(*$C$DW$T$12)
    1097                            .dwattr $C$DW$65, DW_AT_location[DW_OP_reg0]
    1098                    
    1099                    ;----------------------------------------------------------------------
    1100                    ;  53 | static PJPG_INLINE long arithmeticRightShift8L(long x)                 
TI ARM Assembler PC v16.9.6 Sun Dec 02 13:28:46 2018

Tools Copyright (c) 1996-2017 Texas Instruments Incorporated
picojpeg.asm                                                         PAGE   21

    1101                    ;----------------------------------------------------------------------
    1102                    
    1103                    ;*****************************************************************************
    1104                    ;* FUNCTION NAME: arithmeticRightShift8L                                     *
    1105                    ;*                                                                           *
    1106                    ;*   Regs Modified     : A1,SP,SR                                            *
    1107                    ;*   Regs Used         : A1,SP,LR,SR                                         *
    1108                    ;*   Local Frame Size  : 0 Args + 8 Auto + 0 Save = 8 byte                   *
    1109                    ;*****************************************************************************
    1110 000000ec           arithmeticRightShift8L:
    1111                    ;* --------------------------------------------------------------------------*
    1112                            .dwcfi  cfa_offset, 0
    1113 000000ec 0D08F1AD          SUB       SP, SP, #8            ; [DPU_3_PIPE]  ; [KEEP 32-BIT INS]
    1114                            .dwcfi  cfa_offset, 8
    1115                    $C$DW$66        .dwtag  DW_TAG_variable
    1116                            .dwattr $C$DW$66, DW_AT_name("x")
    1117                            .dwattr $C$DW$66, DW_AT_TI_symbol_name("x")
    1118                            .dwattr $C$DW$66, DW_AT_type(*$C$DW$T$12)
    1119                            .dwattr $C$DW$66, DW_AT_location[DW_OP_breg13 0]
    1120                    
    1121                    $C$DW$67        .dwtag  DW_TAG_variable
    1122                            .dwattr $C$DW$67, DW_AT_name("r")
    1123                            .dwattr $C$DW$67, DW_AT_TI_symbol_name("r")
    1124                            .dwattr $C$DW$67, DW_AT_type(*$C$DW$T$12)
    1125                            .dwattr $C$DW$67, DW_AT_location[DW_OP_breg13 4]
    1126                    
    1127 000000f0 9000              STR       A1, [SP, #0]          ; [DPU_3_PIPE] |54|  ; [ORIG 16-BIT INS]
    1128                            .dwpsn  file "../picojpeg.c",line 55,column 11,is_stmt,isa 1
    1129                    ;----------------------------------------------------------------------
    1130                    ;  55 | long r = (unsigned long)x >> 8U;                                       
    1131                    ;----------------------------------------------------------------------
    1132 000000f2 9800              LDR       A1, [SP, #0]          ; [DPU_3_PIPE] |55|  ; [ORIG 16-BIT INS]
    1133 000000f4 0A00              LSRS      A1, A1, #8            ; [DPU_3_PIPE] |55|  ; [ORIG 16-BIT INS]
    1134 000000f6 9001              STR       A1, [SP, #4]          ; [DPU_3_PIPE] |55|  ; [ORIG 16-BIT INS]
    1135                            .dwpsn  file "../picojpeg.c",line 56,column 4,is_stmt,isa 1
    1136                    ;----------------------------------------------------------------------
    1137                    ;  56 | if (x < 0)                                                             
    1138                    ;----------------------------------------------------------------------
    1139 000000f8 9800              LDR       A1, [SP, #0]          ; [DPU_3_PIPE] |56|  ; [ORIG 16-BIT INS]
    1140 000000fa 2800              CMP       A1, #0                ; [DPU_3_PIPE] |56|  ; [ORIG 16-BIT INS]
    1141 000000fc D503              BPL       ||$C$L21||            ; [DPU_3_PIPE] |56|  ; [ORIG 16-BIT INS]
    1142                            ; BRANCHCC OCCURS {||$C$L21||}   ; [] |56| 
    1143                    ;* --------------------------------------------------------------------------*
    1144                            .dwpsn  file "../picojpeg.c",line 57,column 7,is_stmt,isa 1
    1145                    ;----------------------------------------------------------------------
    1146                    ;  57 | r |= ~(~(unsigned long)0U >> 8U);                                      
    1147                    ;----------------------------------------------------------------------
    1148 000000fe 9801              LDR       A1, [SP, #4]          ; [DPU_3_PIPE] |57|  ; [ORIG 16-BIT INS]
    1149 00000100 407FF040          ORR       A1, A1, #-16777216    ; [DPU_3_PIPE] |57|  ; [KEEP 32-BIT INS]
    1150 00000104 9001              STR       A1, [SP, #4]          ; [DPU_3_PIPE] |57|  ; [ORIG 16-BIT INS]
    1151                    ;* --------------------------------------------------------------------------*
    1152 00000106           ||$C$L21||:    
    1153                            .dwpsn  file "../picojpeg.c",line 58,column 4,is_stmt,isa 1
    1154                    ;----------------------------------------------------------------------
    1155                    ;  58 | return r;                                                              
TI ARM Assembler PC v16.9.6 Sun Dec 02 13:28:46 2018

Tools Copyright (c) 1996-2017 Texas Instruments Incorporated
picojpeg.asm                                                         PAGE   22

    1156                    ;----------------------------------------------------------------------
    1157 00000106 9801              LDR       A1, [SP, #4]          ; [DPU_3_PIPE] |58|  ; [ORIG 16-BIT INS]
    1158                            .dwpsn  file "../picojpeg.c",line 59,column 1,is_stmt,isa 1
    1159 00000108 B002              ADD       SP, SP, #8            ; [DPU_3_PIPE]  ; [ORIG 16-BIT INS]
    1160                            .dwcfi  cfa_offset, 0
    1161                    $C$DW$68        .dwtag  DW_TAG_TI_branch
    1162                            .dwattr $C$DW$68, DW_AT_low_pc(0x00)
    1163                            .dwattr $C$DW$68, DW_AT_TI_return
    1164                    
    1165 0000010a 4770              BX        LR                    ; [DPU_3_PIPE]  ; [ORIG 16-BIT INS]
    1166                            ; BRANCH OCCURS                  ; [] 
    1167                            .dwattr $C$DW$64, DW_AT_TI_end_file("../picojpeg.c")
    1168                            .dwattr $C$DW$64, DW_AT_TI_end_line(0x3b)
    1169                            .dwattr $C$DW$64, DW_AT_TI_end_column(0x01)
    1170                            .dwendentry
    1171                            .dwendtag $C$DW$64
    1172                    
    1173 0000010c                   .sect   ".text"
    1174                            .clink
    1175                            .thumbfunc fillInBuf
    1176 0000010c                   .thumb
    1177                    
    1178                    $C$DW$69        .dwtag  DW_TAG_subprogram
    1179                            .dwattr $C$DW$69, DW_AT_name("fillInBuf")
    1180                            .dwattr $C$DW$69, DW_AT_low_pc(fillInBuf)
    1181                            .dwattr $C$DW$69, DW_AT_high_pc(0x00)
    1182                            .dwattr $C$DW$69, DW_AT_TI_symbol_name("fillInBuf")
    1183                            .dwattr $C$DW$69, DW_AT_TI_begin_file("../picojpeg.c")
    1184                            .dwattr $C$DW$69, DW_AT_TI_begin_line(0xde)
    1185                            .dwattr $C$DW$69, DW_AT_TI_begin_column(0x0d)
    1186                            .dwattr $C$DW$69, DW_AT_decl_file("../picojpeg.c")
    1187                            .dwattr $C$DW$69, DW_AT_decl_line(0xde)
    1188                            .dwattr $C$DW$69, DW_AT_decl_column(0x0d)
    1189                            .dwattr $C$DW$69, DW_AT_TI_max_frame_size(0x10)
    1190                            .dwpsn  file "../picojpeg.c",line 223,column 1,is_stmt,address fillInBuf,isa 1
    1191                    
    1192                            .dwfde $C$DW$CIE, fillInBuf
    1193                    ;----------------------------------------------------------------------
    1194                    ; 222 | static void fillInBuf(void)                                            
    1195                    ; 224 | unsigned char status;                                                  
    1196                    ; 226 | // Reserve a few bytes at the beginning of the buffer for putting back
    1197                    ;     | ("stuffing") chars.                                                    
    1198                    ;----------------------------------------------------------------------
    1199                    
    1200                    ;*****************************************************************************
    1201                    ;* FUNCTION NAME: fillInBuf                                                  *
    1202                    ;*                                                                           *
    1203                    ;*   Regs Modified     : A1,A2,A3,A4,V1,V9,SP,LR,SR,D0,D0_hi,D1,D1_hi,D2,    *
    1204                    ;*                           D2_hi,D3,D3_hi,D4,D4_hi,D5,D5_hi,D6,D6_hi,D7,   *
    1205                    ;*                           D7_hi,FPEXC,FPSCR                               *
    1206                    ;*   Regs Used         : A1,A2,A3,A4,V1,V9,SP,LR,SR,D0,D0_hi,D1,D1_hi,D2,    *
    1207                    ;*                           D2_hi,D3,D3_hi,D4,D4_hi,D5,D5_hi,D6,D6_hi,D7,   *
    1208                    ;*                           D7_hi,FPEXC,FPSCR                               *
    1209                    ;*   Local Frame Size  : 0 Args + 4 Auto + 8 Save = 12 byte                  *
    1210                    ;*****************************************************************************
TI ARM Assembler PC v16.9.6 Sun Dec 02 13:28:46 2018

Tools Copyright (c) 1996-2017 Texas Instruments Incorporated
picojpeg.asm                                                         PAGE   23

    1211 0000010c           fillInBuf:
    1212                    ;* --------------------------------------------------------------------------*
    1213                            .dwcfi  cfa_offset, 0
    1214 0000010c B51C              PUSH      {A3, A4, V1, LR}      ; [DPU_3_PIPE]  ; [ORIG 16-BIT INS]
    1215                            .dwcfi  cfa_offset, 16
    1216                            .dwcfi  save_reg_to_mem, 14, -4
    1217                            .dwcfi  save_reg_to_mem, 4, -8
    1218                            .dwcfi  save_reg_to_mem, 3, -12
    1219                            .dwcfi  save_reg_to_mem, 2, -16
    1220                    $C$DW$70        .dwtag  DW_TAG_variable
    1221                            .dwattr $C$DW$70, DW_AT_name("status")
    1222                            .dwattr $C$DW$70, DW_AT_TI_symbol_name("status")
    1223                            .dwattr $C$DW$70, DW_AT_type(*$C$DW$T$6)
    1224                            .dwattr $C$DW$70, DW_AT_location[DW_OP_breg13 0]
    1225                    
    1226                            .dwpsn  file "../picojpeg.c",line 227,column 4,is_stmt,isa 1
    1227                    ;----------------------------------------------------------------------
    1228                    ; 227 | gInBufOfs = 4;                                                         
    1229                    ;----------------------------------------------------------------------
    1230 0000010e 49C1              LDR       A2, $C$CON8           ; [DPU_3_PIPE] |227|  ; [ORIG 16-BIT INS]
    1231 00000110 2004              MOVS      A1, #4                ; [DPU_3_PIPE] |227|  ; [ORIG 16-BIT INS]
    1232 00000112 7008              STRB      A1, [A2, #0]          ; [DPU_3_PIPE] |227|  ; [ORIG 16-BIT INS]
    1233                            .dwpsn  file "../picojpeg.c",line 228,column 4,is_stmt,isa 1
    1234                    ;----------------------------------------------------------------------
    1235                    ; 228 | gInBufLeft = 0;                                                        
    1236                    ;----------------------------------------------------------------------
    1237 00000114 49C0              LDR       A2, $C$CON9           ; [DPU_3_PIPE] |228|  ; [ORIG 16-BIT INS]
    1238 00000116 2000              MOVS      A1, #0                ; [DPU_3_PIPE] |228|  ; [ORIG 16-BIT INS]
    1239 00000118 7008              STRB      A1, [A2, #0]          ; [DPU_3_PIPE] |228|  ; [ORIG 16-BIT INS]
    1240                            .dwpsn  file "../picojpeg.c",line 230,column 4,is_stmt,isa 1
    1241                    ;----------------------------------------------------------------------
    1242                    ; 230 | status = (*g_pNeedBytesCallback)(gInBuf + gInBufOfs, PJPG_MAX_IN_BUF_SI
    1243                    ;     | ZE - gInBufOfs, &gInBufLeft, g_pCallback_data);                        
    1244                    ;----------------------------------------------------------------------
    1245 0000011a 4AC2              LDR       A3, $C$CON12          ; [DPU_3_PIPE] |230|  ; [ORIG 16-BIT INS]
    1246 0000011c 48BD              LDR       A1, $C$CON8           ; [DPU_3_PIPE] |230|  ; [ORIG 16-BIT INS]
    1247 0000011e 4BC0              LDR       A4, $C$CON11          ; [DPU_3_PIPE] |230|  ; [ORIG 16-BIT INS]
    1248 00000120 49BC              LDR       A2, $C$CON8           ; [DPU_3_PIPE] |230|  ; [ORIG 16-BIT INS]
    1249 00000122 4CBE              LDR       V1, $C$CON10          ; [DPU_3_PIPE] |230|  ; [ORIG 16-BIT INS]
    1250 00000124 6812              LDR       A3, [A3, #0]          ; [DPU_3_PIPE] |230|  ; [ORIG 16-BIT INS]
    1251 00000126 7800              LDRB      A1, [A1, #0]          ; [DPU_3_PIPE] |230|  ; [ORIG 16-BIT INS]
    1252 00000128 681B              LDR       A4, [A4, #0]          ; [DPU_3_PIPE] |230|  ; [ORIG 16-BIT INS]
    1253 0000012a 7809              LDRB      A2, [A2, #0]          ; [DPU_3_PIPE] |230|  ; [ORIG 16-BIT INS]
    1254 0000012c 1900              ADDS      A1, A1, V1            ; [DPU_3_PIPE] |230|  ; [ORIG 16-BIT INS]
    1255 0000012e 4614              MOV       V1, A3                ; [DPU_3_PIPE] |230|  ; [ORIG 16-BIT INS]
    1256 00000130 4AB9              LDR       A3, $C$CON9           ; [DPU_3_PIPE] |230|  ; [ORIG 16-BIT INS]
    1257 00000132 7180F5C1          RSB       A2, A2, #256          ; [DPU_3_PIPE] |230|  ; [KEEP 32-BIT INS]
    1258 00000136 B2C9              UXTB      A2, A2                ; [DPU_3_PIPE] |230|  ; [ORIG 16-BIT INS]
    1259                    $C$DW$71        .dwtag  DW_TAG_TI_branch
    1260                            .dwattr $C$DW$71, DW_AT_low_pc(0x00)
    1261                            .dwattr $C$DW$71, DW_AT_TI_call
    1262                            .dwattr $C$DW$71, DW_AT_TI_indirect
    1263                    
    1264 00000138 47A0              BLX       V1                    ; [DPU_3_PIPE] |230|  ; [ORIG 16-BIT INS]
    1265                            ; CALL OCCURS {}                 ; [] |230| 
TI ARM Assembler PC v16.9.6 Sun Dec 02 13:28:46 2018

Tools Copyright (c) 1996-2017 Texas Instruments Incorporated
picojpeg.asm                                                         PAGE   24

    1266 0000013a 0000F88D          STRB      A1, [SP, #0]          ; [DPU_3_PIPE] |230|  ; [KEEP 32-BIT INS]
    1267                            .dwpsn  file "../picojpeg.c",line 231,column 4,is_stmt,isa 1
    1268                    ;----------------------------------------------------------------------
    1269                    ; 231 | if (status)                                                            
    1270                    ; 233 |    // The user provided need bytes callback has indicated an error, so
    1271                    ;     | record the error and continue trying to decode.                        
    1272                    ; 234 |    // The highest level pjpeg entrypoints will catch the error and retu
    1273                    ;     | rn the non-zero status.                                                
    1274                    ;----------------------------------------------------------------------
    1275 0000013e 0000F89D          LDRB      A1, [SP, #0]          ; [DPU_3_PIPE] |231|  ; [KEEP 32-BIT INS]
    1276 00000142 B118              CBZ       A1, ||$C$L22||        ; []  ; [ORIG 16-BIT INS]
    1277                            ; BRANCHCC OCCURS {||$C$L22||}   ; [] |231| 
    1278                    ;* --------------------------------------------------------------------------*
    1279                            .dwpsn  file "../picojpeg.c",line 235,column 7,is_stmt,isa 1
    1280                    ;----------------------------------------------------------------------
    1281                    ; 235 | gCallbackStatus = status;                                              
    1282                    ;----------------------------------------------------------------------
    1283 00000144 0000F89D          LDRB      A1, [SP, #0]          ; [DPU_3_PIPE] |235|  ; [KEEP 32-BIT INS]
    1284 00000148 49B7              LDR       A2, $C$CON13          ; [DPU_3_PIPE] |235|  ; [ORIG 16-BIT INS]
    1285 0000014a 7008              STRB      A1, [A2, #0]          ; [DPU_3_PIPE] |235|  ; [ORIG 16-BIT INS]
    1286                            .dwpsn  file "../picojpeg.c",line 237,column 1,is_stmt,isa 1
    1287                    ;* --------------------------------------------------------------------------*
    1288                    ||$C$L22||:    
    1289                    $C$DW$72        .dwtag  DW_TAG_TI_branch
    1290                            .dwattr $C$DW$72, DW_AT_low_pc(0x00)
    1291                            .dwattr $C$DW$72, DW_AT_TI_return
    1292                    
    1293 0000014c BD1C              POP       {A3, A4, V1, PC}      ; [DPU_3_PIPE]  ; [ORIG 16-BIT INS]
    1294                            .dwcfi  cfa_offset, 0
    1295                            .dwcfi  restore_reg, 4
    1296                            .dwcfi  restore_reg, 3
    1297                            .dwcfi  restore_reg, 2
    1298                            ; BRANCH OCCURS                  ; [] 
    1299                            .dwattr $C$DW$69, DW_AT_TI_end_file("../picojpeg.c")
    1300                            .dwattr $C$DW$69, DW_AT_TI_end_line(0xed)
    1301                            .dwattr $C$DW$69, DW_AT_TI_end_column(0x01)
    1302                            .dwendentry
    1303                            .dwendtag $C$DW$69
    1304                    
    1305 0000014e                   .sect   ".text"
    1306                            .clink
    1307                            .thumbfunc getChar
    1308 0000014e                   .thumb
    1309                    
    1310                    $C$DW$73        .dwtag  DW_TAG_subprogram
    1311                            .dwattr $C$DW$73, DW_AT_name("getChar")
    1312                            .dwattr $C$DW$73, DW_AT_low_pc(getChar)
    1313                            .dwattr $C$DW$73, DW_AT_high_pc(0x00)
    1314                            .dwattr $C$DW$73, DW_AT_TI_symbol_name("getChar")
    1315                            .dwattr $C$DW$73, DW_AT_type(*$C$DW$T$25)
    1316                            .dwattr $C$DW$73, DW_AT_TI_begin_file("../picojpeg.c")
    1317                            .dwattr $C$DW$73, DW_AT_TI_begin_line(0xef)
    1318                            .dwattr $C$DW$73, DW_AT_TI_begin_column(0x1a)
    1319                            .dwattr $C$DW$73, DW_AT_decl_file("../picojpeg.c")
    1320                            .dwattr $C$DW$73, DW_AT_decl_line(0xef)
TI ARM Assembler PC v16.9.6 Sun Dec 02 13:28:46 2018

Tools Copyright (c) 1996-2017 Texas Instruments Incorporated
picojpeg.asm                                                         PAGE   25

    1321                            .dwattr $C$DW$73, DW_AT_decl_column(0x1a)
    1322                            .dwattr $C$DW$73, DW_AT_TI_max_frame_size(0x08)
    1323                            .dwpsn  file "../picojpeg.c",line 240,column 1,is_stmt,address getChar,isa 1
    1324                    
    1325                            .dwfde $C$DW$CIE, getChar
    1326                    ;----------------------------------------------------------------------
    1327                    ; 239 | static PJPG_INLINE uint8 getChar(void)                                 
    1328                    ;----------------------------------------------------------------------
    1329                    
    1330                    ;*****************************************************************************
    1331                    ;* FUNCTION NAME: getChar                                                    *
    1332                    ;*                                                                           *
    1333                    ;*   Regs Modified     : A1,A2,A3,A4,V9,SP,LR,SR,D0,D0_hi,D1,D1_hi,D2,D2_hi, *
    1334                    ;*                           D3,D3_hi,D4,D4_hi,D5,D5_hi,D6,D6_hi,D7,D7_hi,   *
    1335                    ;*                           FPEXC,FPSCR                                     *
    1336                    ;*   Regs Used         : A1,A2,A3,A4,V9,SP,LR,SR,D0,D0_hi,D1,D1_hi,D2,D2_hi, *
    1337                    ;*                           D3,D3_hi,D4,D4_hi,D5,D5_hi,D6,D6_hi,D7,D7_hi,   *
    1338                    ;*                           FPEXC,FPSCR                                     *
    1339                    ;*   Local Frame Size  : 0 Args + 0 Auto + 4 Save = 4 byte                   *
    1340                    ;*****************************************************************************
    1341 0000014e           getChar:
    1342                    ;* --------------------------------------------------------------------------*
    1343                            .dwcfi  cfa_offset, 0
    1344 0000014e B508              PUSH      {A4, LR}              ; [DPU_3_PIPE]  ; [ORIG 16-BIT INS]
    1345                            .dwcfi  cfa_offset, 8
    1346                            .dwcfi  save_reg_to_mem, 14, -4
    1347                            .dwcfi  save_reg_to_mem, 3, -8
    1348                            .dwpsn  file "../picojpeg.c",line 241,column 4,is_stmt,isa 1
    1349                    ;----------------------------------------------------------------------
    1350                    ; 241 | if (!gInBufLeft)                                                       
    1351                    ;----------------------------------------------------------------------
    1352 00000150 48B1              LDR       A1, $C$CON9           ; [DPU_3_PIPE] |241|  ; [ORIG 16-BIT INS]
    1353 00000152 7800              LDRB      A1, [A1, #0]          ; [DPU_3_PIPE] |241|  ; [ORIG 16-BIT INS]
    1354 00000154 B988              CBNZ      A1, ||$C$L25||        ; []  ; [ORIG 16-BIT INS]
    1355                            ; BRANCHCC OCCURS {||$C$L25||}   ; [] |241| 
    1356                    ;* --------------------------------------------------------------------------*
    1357                            .dwpsn  file "../picojpeg.c",line 243,column 7,is_stmt,isa 1
    1358                    ;----------------------------------------------------------------------
    1359                    ; 243 | fillInBuf();                                                           
    1360                    ;----------------------------------------------------------------------
    1361                    $C$DW$74        .dwtag  DW_TAG_TI_branch
    1362                            .dwattr $C$DW$74, DW_AT_low_pc(0x00)
    1363                            .dwattr $C$DW$74, DW_AT_name("fillInBuf")
    1364                            .dwattr $C$DW$74, DW_AT_TI_call
    1365                    
    1366 00000156 FFFEF7FF!         BL        fillInBuf             ; [DPU_3_PIPE] |243|  ; [KEEP 32-BIT INS]
    1367                            ; CALL OCCURS {fillInBuf }       ; [] |243| 
    1368                            .dwpsn  file "../picojpeg.c",line 244,column 7,is_stmt,isa 1
    1369                    ;----------------------------------------------------------------------
    1370                    ; 244 | if (!gInBufLeft)                                                       
    1371                    ;----------------------------------------------------------------------
    1372 0000015a 48AF              LDR       A1, $C$CON9           ; [DPU_3_PIPE] |244|  ; [ORIG 16-BIT INS]
    1373 0000015c 7800              LDRB      A1, [A1, #0]          ; [DPU_3_PIPE] |244|  ; [ORIG 16-BIT INS]
    1374 0000015e B960              CBNZ      A1, ||$C$L25||        ; []  ; [ORIG 16-BIT INS]
    1375                            ; BRANCHCC OCCURS {||$C$L25||}   ; [] |244| 
TI ARM Assembler PC v16.9.6 Sun Dec 02 13:28:46 2018

Tools Copyright (c) 1996-2017 Texas Instruments Incorporated
picojpeg.asm                                                         PAGE   26

    1376                    ;* --------------------------------------------------------------------------*
    1377                            .dwpsn  file "../picojpeg.c",line 246,column 10,is_stmt,isa 1
    1378                    ;----------------------------------------------------------------------
    1379                    ; 246 | gTemFlag = ~gTemFlag;                                                  
    1380                    ;----------------------------------------------------------------------
    1381 00000160 48B2              LDR       A1, $C$CON14          ; [DPU_3_PIPE] |246|  ; [ORIG 16-BIT INS]
    1382 00000162 49B2              LDR       A2, $C$CON14          ; [DPU_3_PIPE] |246|  ; [ORIG 16-BIT INS]
    1383 00000164 7800              LDRB      A1, [A1, #0]          ; [DPU_3_PIPE] |246|  ; [ORIG 16-BIT INS]
    1384 00000166 43C0              MVNS      A1, A1                ; [DPU_3_PIPE] |246|  ; [ORIG 16-BIT INS]
    1385 00000168 7008              STRB      A1, [A2, #0]          ; [DPU_3_PIPE] |246|  ; [ORIG 16-BIT INS]
    1386                            .dwpsn  file "../picojpeg.c",line 247,column 10,is_stmt,isa 1
    1387                    ;----------------------------------------------------------------------
    1388                    ; 247 | return gTemFlag ? 0xFF : 0xD9;                                         
    1389                    ;----------------------------------------------------------------------
    1390 0000016a 48B0              LDR       A1, $C$CON14          ; [DPU_3_PIPE] |247|  ; [ORIG 16-BIT INS]
    1391 0000016c 7800              LDRB      A1, [A1, #0]          ; [DPU_3_PIPE] |247|  ; [ORIG 16-BIT INS]
    1392 0000016e B108              CBZ       A1, ||$C$L23||        ; []  ; [ORIG 16-BIT INS]
    1393                            ; BRANCHCC OCCURS {||$C$L23||}   ; [] |247| 
    1394                    ;* --------------------------------------------------------------------------*
    1395 00000170 20FF              MOVS      A1, #255              ; [DPU_3_PIPE] |247|  ; [ORIG 16-BIT INS]
    1396 00000172 E000              B         ||$C$L24||            ; [DPU_3_PIPE] |247|  ; [ORIG 16-BIT INS]
    1397                            ; BRANCH OCCURS {||$C$L24||}     ; [] |247| 
    1398                    ;* --------------------------------------------------------------------------*
    1399 00000174           ||$C$L23||:    
    1400 00000174 20D9              MOVS      A1, #217              ; [DPU_3_PIPE] |247|  ; [ORIG 16-BIT INS]
    1401                    ;* --------------------------------------------------------------------------*
    1402 00000176           ||$C$L24||:    
    1403 00000176 B2C0              UXTB      A1, A1                ; [DPU_3_PIPE] |247|  ; [ORIG 16-BIT INS]
    1404 00000178 E009              B         ||$C$L26||            ; [DPU_3_PIPE] |247|  ; [ORIG 16-BIT INS]
    1405                            ; BRANCH OCCURS {||$C$L26||}     ; [] |247| 
    1406                    ;* --------------------------------------------------------------------------*
    1407 0000017a           ||$C$L25||:    
    1408                            .dwpsn  file "../picojpeg.c",line 251,column 4,is_stmt,isa 1
    1409                    ;----------------------------------------------------------------------
    1410                    ; 251 | gInBufLeft--;                                                          
    1411                    ;----------------------------------------------------------------------
    1412 0000017a 49A7              LDR       A2, $C$CON9           ; [DPU_3_PIPE] |251|  ; [ORIG 16-BIT INS]
    1413 0000017c 7808              LDRB      A1, [A2, #0]          ; [DPU_3_PIPE] |251|  ; [ORIG 16-BIT INS]
    1414 0000017e 1E40              SUBS      A1, A1, #1            ; [DPU_3_PIPE] |251|  ; [ORIG 16-BIT INS]
    1415 00000180 7008              STRB      A1, [A2, #0]          ; [DPU_3_PIPE] |251|  ; [ORIG 16-BIT INS]
    1416                            .dwpsn  file "../picojpeg.c",line 252,column 4,is_stmt,isa 1
    1417                    ;----------------------------------------------------------------------
    1418                    ; 252 | return gInBuf[gInBufOfs++];                                            
    1419                    ;----------------------------------------------------------------------
    1420 00000182 4AA4              LDR       A3, $C$CON8           ; [DPU_3_PIPE] |252|  ; [ORIG 16-BIT INS]
    1421 00000184 4BA5              LDR       A4, $C$CON10          ; [DPU_3_PIPE] |252|  ; [ORIG 16-BIT INS]
    1422 00000186 7810              LDRB      A1, [A3, #0]          ; [DPU_3_PIPE] |252|  ; [ORIG 16-BIT INS]
    1423 00000188 1C41              ADDS      A2, A1, #1            ; [DPU_3_PIPE] |252|  ; [ORIG 16-BIT INS]
    1424 0000018a 5C18              LDRB      A1, [A4, +A1]         ; [DPU_3_PIPE] |252|  ; [ORIG 16-BIT INS]
    1425 0000018c 7011              STRB      A2, [A3, #0]          ; [DPU_3_PIPE] |252|  ; [ORIG 16-BIT INS]
    1426                    ;* --------------------------------------------------------------------------*
    1427 0000018e           ||$C$L26||:    
    1428                            .dwpsn  file "../picojpeg.c",line 253,column 1,is_stmt,isa 1
    1429                    $C$DW$75        .dwtag  DW_TAG_TI_branch
    1430                            .dwattr $C$DW$75, DW_AT_low_pc(0x00)
TI ARM Assembler PC v16.9.6 Sun Dec 02 13:28:46 2018

Tools Copyright (c) 1996-2017 Texas Instruments Incorporated
picojpeg.asm                                                         PAGE   27

    1431                            .dwattr $C$DW$75, DW_AT_TI_return
    1432                    
    1433 0000018e BD08              POP       {A4, PC}              ; [DPU_3_PIPE]  ; [ORIG 16-BIT INS]
    1434                            .dwcfi  cfa_offset, 0
    1435                            .dwcfi  restore_reg, 3
    1436                            ; BRANCH OCCURS                  ; [] 
    1437                            .dwattr $C$DW$73, DW_AT_TI_end_file("../picojpeg.c")
    1438                            .dwattr $C$DW$73, DW_AT_TI_end_line(0xfd)
    1439                            .dwattr $C$DW$73, DW_AT_TI_end_column(0x01)
    1440                            .dwendentry
    1441                            .dwendtag $C$DW$73
    1442                    
    1443 00000190                   .sect   ".text"
    1444                            .clink
    1445                            .thumbfunc stuffChar
    1446 00000190                   .thumb
    1447                    
    1448                    $C$DW$76        .dwtag  DW_TAG_subprogram
    1449                            .dwattr $C$DW$76, DW_AT_name("stuffChar")
    1450                            .dwattr $C$DW$76, DW_AT_low_pc(stuffChar)
    1451                            .dwattr $C$DW$76, DW_AT_high_pc(0x00)
    1452                            .dwattr $C$DW$76, DW_AT_TI_symbol_name("stuffChar")
    1453                            .dwattr $C$DW$76, DW_AT_TI_begin_file("../picojpeg.c")
    1454                            .dwattr $C$DW$76, DW_AT_TI_begin_line(0xff)
    1455                            .dwattr $C$DW$76, DW_AT_TI_begin_column(0x19)
    1456                            .dwattr $C$DW$76, DW_AT_decl_file("../picojpeg.c")
    1457                            .dwattr $C$DW$76, DW_AT_decl_line(0xff)
    1458                            .dwattr $C$DW$76, DW_AT_decl_column(0x19)
    1459                            .dwattr $C$DW$76, DW_AT_TI_max_frame_size(0x08)
    1460                            .dwpsn  file "../picojpeg.c",line 256,column 1,is_stmt,address stuffChar,isa 1
    1461                    
    1462                            .dwfde $C$DW$CIE, stuffChar
    1463                    $C$DW$77        .dwtag  DW_TAG_formal_parameter
    1464                            .dwattr $C$DW$77, DW_AT_name("i")
    1465                            .dwattr $C$DW$77, DW_AT_TI_symbol_name("i")
    1466                            .dwattr $C$DW$77, DW_AT_type(*$C$DW$T$25)
    1467                            .dwattr $C$DW$77, DW_AT_location[DW_OP_reg0]
    1468                    
    1469                    ;----------------------------------------------------------------------
    1470                    ; 255 | static PJPG_INLINE void stuffChar(uint8 i)                             
    1471                    ;----------------------------------------------------------------------
    1472                    
    1473                    ;*****************************************************************************
    1474                    ;* FUNCTION NAME: stuffChar                                                  *
    1475                    ;*                                                                           *
    1476                    ;*   Regs Modified     : A1,A2,A3,SP,SR                                      *
    1477                    ;*   Regs Used         : A1,A2,A3,SP,LR,SR                                   *
    1478                    ;*   Local Frame Size  : 0 Args + 4 Auto + 0 Save = 4 byte                   *
    1479                    ;*****************************************************************************
    1480 00000190           stuffChar:
    1481                    ;* --------------------------------------------------------------------------*
    1482                            .dwcfi  cfa_offset, 0
    1483 00000190 0D08F1AD          SUB       SP, SP, #8            ; [DPU_3_PIPE]  ; [KEEP 32-BIT INS]
    1484                            .dwcfi  cfa_offset, 8
    1485                    $C$DW$78        .dwtag  DW_TAG_variable
TI ARM Assembler PC v16.9.6 Sun Dec 02 13:28:46 2018

Tools Copyright (c) 1996-2017 Texas Instruments Incorporated
picojpeg.asm                                                         PAGE   28

    1486                            .dwattr $C$DW$78, DW_AT_name("i")
    1487                            .dwattr $C$DW$78, DW_AT_TI_symbol_name("i")
    1488                            .dwattr $C$DW$78, DW_AT_type(*$C$DW$T$25)
    1489                            .dwattr $C$DW$78, DW_AT_location[DW_OP_breg13 0]
    1490                    
    1491 00000194 0000F88D          STRB      A1, [SP, #0]          ; [DPU_3_PIPE] |256|  ; [KEEP 32-BIT INS]
    1492                            .dwpsn  file "../picojpeg.c",line 257,column 4,is_stmt,isa 1
    1493                    ;----------------------------------------------------------------------
    1494                    ; 257 | gInBufOfs--;                                                           
    1495                    ;----------------------------------------------------------------------
    1496 00000198 499E              LDR       A2, $C$CON8           ; [DPU_3_PIPE] |257|  ; [ORIG 16-BIT INS]
    1497 0000019a 7808              LDRB      A1, [A2, #0]          ; [DPU_3_PIPE] |257|  ; [ORIG 16-BIT INS]
    1498 0000019c 1E40              SUBS      A1, A1, #1            ; [DPU_3_PIPE] |257|  ; [ORIG 16-BIT INS]
    1499 0000019e 7008              STRB      A1, [A2, #0]          ; [DPU_3_PIPE] |257|  ; [ORIG 16-BIT INS]
    1500                            .dwpsn  file "../picojpeg.c",line 258,column 4,is_stmt,isa 1
    1501                    ;----------------------------------------------------------------------
    1502                    ; 258 | gInBuf[gInBufOfs] = i;                                                 
    1503                    ;----------------------------------------------------------------------
    1504 000001a0 4A9E              LDR       A3, $C$CON10          ; [DPU_3_PIPE] |258|  ; [ORIG 16-BIT INS]
    1505 000001a2 499C              LDR       A2, $C$CON8           ; [DPU_3_PIPE] |258|  ; [ORIG 16-BIT INS]
    1506 000001a4 0000F89D          LDRB      A1, [SP, #0]          ; [DPU_3_PIPE] |258|  ; [KEEP 32-BIT INS]
    1507 000001a8 7809              LDRB      A2, [A2, #0]          ; [DPU_3_PIPE] |258|  ; [ORIG 16-BIT INS]
    1508 000001aa 5450              STRB      A1, [A3, +A2]         ; [DPU_3_PIPE] |258|  ; [ORIG 16-BIT INS]
    1509                            .dwpsn  file "../picojpeg.c",line 259,column 4,is_stmt,isa 1
    1510                    ;----------------------------------------------------------------------
    1511                    ; 259 | gInBufLeft++;                                                          
    1512                    ;----------------------------------------------------------------------
    1513 000001ac 499A              LDR       A2, $C$CON9           ; [DPU_3_PIPE] |259|  ; [ORIG 16-BIT INS]
    1514 000001ae 7808              LDRB      A1, [A2, #0]          ; [DPU_3_PIPE] |259|  ; [ORIG 16-BIT INS]
    1515 000001b0 1C40              ADDS      A1, A1, #1            ; [DPU_3_PIPE] |259|  ; [ORIG 16-BIT INS]
    1516 000001b2 7008              STRB      A1, [A2, #0]          ; [DPU_3_PIPE] |259|  ; [ORIG 16-BIT INS]
    1517                            .dwpsn  file "../picojpeg.c",line 260,column 1,is_stmt,isa 1
    1518 000001b4 B002              ADD       SP, SP, #8            ; [DPU_3_PIPE]  ; [ORIG 16-BIT INS]
    1519                            .dwcfi  cfa_offset, 0
    1520                    $C$DW$79        .dwtag  DW_TAG_TI_branch
    1521                            .dwattr $C$DW$79, DW_AT_low_pc(0x00)
    1522                            .dwattr $C$DW$79, DW_AT_TI_return
    1523                    
    1524 000001b6 4770              BX        LR                    ; [DPU_3_PIPE]  ; [ORIG 16-BIT INS]
    1525                            ; BRANCH OCCURS                  ; [] 
    1526                            .dwattr $C$DW$76, DW_AT_TI_end_file("../picojpeg.c")
    1527                            .dwattr $C$DW$76, DW_AT_TI_end_line(0x104)
    1528                            .dwattr $C$DW$76, DW_AT_TI_end_column(0x01)
    1529                            .dwendentry
    1530                            .dwendtag $C$DW$76
    1531                    
    1532 000001b8                   .sect   ".text"
    1533                            .clink
    1534                            .thumbfunc getOctet
    1535 000001b8                   .thumb
    1536                    
    1537                    $C$DW$80        .dwtag  DW_TAG_subprogram
    1538                            .dwattr $C$DW$80, DW_AT_name("getOctet")
    1539                            .dwattr $C$DW$80, DW_AT_low_pc(getOctet)
    1540                            .dwattr $C$DW$80, DW_AT_high_pc(0x00)
TI ARM Assembler PC v16.9.6 Sun Dec 02 13:28:46 2018

Tools Copyright (c) 1996-2017 Texas Instruments Incorporated
picojpeg.asm                                                         PAGE   29

    1541                            .dwattr $C$DW$80, DW_AT_TI_symbol_name("getOctet")
    1542                            .dwattr $C$DW$80, DW_AT_type(*$C$DW$T$25)
    1543                            .dwattr $C$DW$80, DW_AT_TI_begin_file("../picojpeg.c")
    1544                            .dwattr $C$DW$80, DW_AT_TI_begin_line(0x106)
    1545                            .dwattr $C$DW$80, DW_AT_TI_begin_column(0x1a)
    1546                            .dwattr $C$DW$80, DW_AT_decl_file("../picojpeg.c")
    1547                            .dwattr $C$DW$80, DW_AT_decl_line(0x106)
    1548                            .dwattr $C$DW$80, DW_AT_decl_column(0x1a)
    1549                            .dwattr $C$DW$80, DW_AT_TI_max_frame_size(0x10)
    1550                            .dwpsn  file "../picojpeg.c",line 263,column 1,is_stmt,address getOctet,isa 1
    1551                    
    1552                            .dwfde $C$DW$CIE, getOctet
    1553                    $C$DW$81        .dwtag  DW_TAG_formal_parameter
    1554                            .dwattr $C$DW$81, DW_AT_name("FFCheck")
    1555                            .dwattr $C$DW$81, DW_AT_TI_symbol_name("FFCheck")
    1556                            .dwattr $C$DW$81, DW_AT_type(*$C$DW$T$25)
    1557                            .dwattr $C$DW$81, DW_AT_location[DW_OP_reg0]
    1558                    
    1559                    ;----------------------------------------------------------------------
    1560                    ; 262 | static PJPG_INLINE uint8 getOctet(uint8 FFCheck)                       
    1561                    ;----------------------------------------------------------------------
    1562                    
    1563                    ;*****************************************************************************
    1564                    ;* FUNCTION NAME: getOctet                                                   *
    1565                    ;*                                                                           *
    1566                    ;*   Regs Modified     : A1,A2,A3,A4,V9,SP,LR,SR,D0,D0_hi,D1,D1_hi,D2,D2_hi, *
    1567                    ;*                           D3,D3_hi,D4,D4_hi,D5,D5_hi,D6,D6_hi,D7,D7_hi,   *
    1568                    ;*                           FPEXC,FPSCR                                     *
    1569                    ;*   Regs Used         : A1,A2,A3,A4,V9,SP,LR,SR,D0,D0_hi,D1,D1_hi,D2,D2_hi, *
    1570                    ;*                           D3,D3_hi,D4,D4_hi,D5,D5_hi,D6,D6_hi,D7,D7_hi,   *
    1571                    ;*                           FPEXC,FPSCR                                     *
    1572                    ;*   Local Frame Size  : 0 Args + 8 Auto + 4 Save = 12 byte                  *
    1573                    ;*****************************************************************************
    1574 000001b8           getOctet:
    1575                    ;* --------------------------------------------------------------------------*
    1576                            .dwcfi  cfa_offset, 0
    1577 000001b8 B50E              PUSH      {A2, A3, A4, LR}      ; [DPU_3_PIPE]  ; [ORIG 16-BIT INS]
    1578                            .dwcfi  cfa_offset, 16
    1579                            .dwcfi  save_reg_to_mem, 14, -4
    1580                            .dwcfi  save_reg_to_mem, 3, -8
    1581                            .dwcfi  save_reg_to_mem, 2, -12
    1582                            .dwcfi  save_reg_to_mem, 1, -16
    1583                    $C$DW$82        .dwtag  DW_TAG_variable
    1584                            .dwattr $C$DW$82, DW_AT_name("FFCheck")
    1585                            .dwattr $C$DW$82, DW_AT_TI_symbol_name("FFCheck")
    1586                            .dwattr $C$DW$82, DW_AT_type(*$C$DW$T$25)
    1587                            .dwattr $C$DW$82, DW_AT_location[DW_OP_breg13 0]
    1588                    
    1589                    $C$DW$83        .dwtag  DW_TAG_variable
    1590                            .dwattr $C$DW$83, DW_AT_name("c")
    1591                            .dwattr $C$DW$83, DW_AT_TI_symbol_name("c")
    1592                            .dwattr $C$DW$83, DW_AT_type(*$C$DW$T$25)
    1593                            .dwattr $C$DW$83, DW_AT_location[DW_OP_breg13 1]
    1594                    
    1595 000001ba 0000F88D          STRB      A1, [SP, #0]          ; [DPU_3_PIPE] |263|  ; [KEEP 32-BIT INS]
TI ARM Assembler PC v16.9.6 Sun Dec 02 13:28:46 2018

Tools Copyright (c) 1996-2017 Texas Instruments Incorporated
picojpeg.asm                                                         PAGE   30

    1596                            .dwpsn  file "../picojpeg.c",line 264,column 12,is_stmt,isa 1
    1597                    ;----------------------------------------------------------------------
    1598                    ; 264 | uint8 c = getChar();                                                   
    1599                    ;----------------------------------------------------------------------
    1600                    $C$DW$84        .dwtag  DW_TAG_TI_branch
    1601                            .dwattr $C$DW$84, DW_AT_low_pc(0x00)
    1602                            .dwattr $C$DW$84, DW_AT_name("getChar")
    1603                            .dwattr $C$DW$84, DW_AT_TI_call
    1604                    
    1605 000001be FFFEF7FF!         BL        getChar               ; [DPU_3_PIPE] |264|  ; [KEEP 32-BIT INS]
    1606                            ; CALL OCCURS {getChar }         ; [] |264| 
    1607 000001c2 0001F88D          STRB      A1, [SP, #1]          ; [DPU_3_PIPE] |264|  ; [KEEP 32-BIT INS]
    1608                            .dwpsn  file "../picojpeg.c",line 266,column 4,is_stmt,isa 1
    1609                    ;----------------------------------------------------------------------
    1610                    ; 266 | if ((FFCheck) && (c == 0xFF))                                          
    1611                    ;----------------------------------------------------------------------
    1612 000001c6 0000F89D          LDRB      A1, [SP, #0]          ; [DPU_3_PIPE] |266|  ; [KEEP 32-BIT INS]
    1613 000001ca B188              CBZ       A1, ||$C$L28||        ; []  ; [ORIG 16-BIT INS]
    1614                            ; BRANCHCC OCCURS {||$C$L28||}   ; [] |266| 
    1615                    ;* --------------------------------------------------------------------------*
    1616 000001cc 0001F89D          LDRB      A1, [SP, #1]          ; [DPU_3_PIPE] |266|  ; [KEEP 32-BIT INS]
    1617 000001d0 28FF              CMP       A1, #255              ; [DPU_3_PIPE] |266|  ; [ORIG 16-BIT INS]
    1618 000001d2 D10D              BNE       ||$C$L28||            ; [DPU_3_PIPE] |266|  ; [ORIG 16-BIT INS]
    1619                            ; BRANCHCC OCCURS {||$C$L28||}   ; [] |266| 
    1620                    ;* --------------------------------------------------------------------------*
    1621                    
    1622                    $C$DW$85        .dwtag  DW_TAG_lexical_block
    1623                            .dwattr $C$DW$85, DW_AT_low_pc(0x00)
    1624                            .dwattr $C$DW$85, DW_AT_high_pc(0x00)
    1625                    $C$DW$86        .dwtag  DW_TAG_variable
    1626                            .dwattr $C$DW$86, DW_AT_name("n")
    1627                            .dwattr $C$DW$86, DW_AT_TI_symbol_name("n")
    1628                            .dwattr $C$DW$86, DW_AT_type(*$C$DW$T$25)
    1629                            .dwattr $C$DW$86, DW_AT_location[DW_OP_breg13 4]
    1630                    
    1631                            .dwpsn  file "../picojpeg.c",line 268,column 15,is_stmt,isa 1
    1632                    ;----------------------------------------------------------------------
    1633                    ; 268 | uint8 n = getChar();                                                   
    1634                    ;----------------------------------------------------------------------
    1635                    $C$DW$87        .dwtag  DW_TAG_TI_branch
    1636                            .dwattr $C$DW$87, DW_AT_low_pc(0x00)
    1637                            .dwattr $C$DW$87, DW_AT_name("getChar")
    1638                            .dwattr $C$DW$87, DW_AT_TI_call
    1639                    
    1640 000001d4 FFFEF7FF!         BL        getChar               ; [DPU_3_PIPE] |268|  ; [KEEP 32-BIT INS]
    1641                            ; CALL OCCURS {getChar }         ; [] |268| 
    1642 000001d8 0004F88D          STRB      A1, [SP, #4]          ; [DPU_3_PIPE] |268|  ; [KEEP 32-BIT INS]
    1643                            .dwpsn  file "../picojpeg.c",line 270,column 7,is_stmt,isa 1
    1644                    ;----------------------------------------------------------------------
    1645                    ; 270 | if (n)                                                                 
    1646                    ;----------------------------------------------------------------------
    1647 000001dc 0004F89D          LDRB      A1, [SP, #4]          ; [DPU_3_PIPE] |270|  ; [KEEP 32-BIT INS]
    1648 000001e0 B130              CBZ       A1, ||$C$L27||        ; []  ; [ORIG 16-BIT INS]
    1649                            ; BRANCHCC OCCURS {||$C$L27||}   ; [] |270| 
    1650                    ;* --------------------------------------------------------------------------*
TI ARM Assembler PC v16.9.6 Sun Dec 02 13:28:46 2018

Tools Copyright (c) 1996-2017 Texas Instruments Incorporated
picojpeg.asm                                                         PAGE   31

    1651                            .dwpsn  file "../picojpeg.c",line 272,column 10,is_stmt,isa 1
    1652                    ;----------------------------------------------------------------------
    1653                    ; 272 | stuffChar(n);                                                          
    1654                    ;----------------------------------------------------------------------
    1655 000001e2 0004F89D          LDRB      A1, [SP, #4]          ; [DPU_3_PIPE] |272|  ; [KEEP 32-BIT INS]
    1656                    $C$DW$88        .dwtag  DW_TAG_TI_branch
    1657                            .dwattr $C$DW$88, DW_AT_low_pc(0x00)
    1658                            .dwattr $C$DW$88, DW_AT_name("stuffChar")
    1659                            .dwattr $C$DW$88, DW_AT_TI_call
    1660                    
    1661 000001e6 FFFEF7FF!         BL        stuffChar             ; [DPU_3_PIPE] |272|  ; [KEEP 32-BIT INS]
    1662                            ; CALL OCCURS {stuffChar }       ; [] |272| 
    1663                            .dwpsn  file "../picojpeg.c",line 273,column 10,is_stmt,isa 1
    1664                    ;----------------------------------------------------------------------
    1665                    ; 273 | stuffChar(0xFF);                                                       
    1666                    ;----------------------------------------------------------------------
    1667 000001ea 20FF              MOVS      A1, #255              ; [DPU_3_PIPE] |273|  ; [ORIG 16-BIT INS]
    1668                    $C$DW$89        .dwtag  DW_TAG_TI_branch
    1669                            .dwattr $C$DW$89, DW_AT_low_pc(0x00)
    1670                            .dwattr $C$DW$89, DW_AT_name("stuffChar")
    1671                            .dwattr $C$DW$89, DW_AT_TI_call
    1672                    
    1673 000001ec FFFEF7FF!         BL        stuffChar             ; [DPU_3_PIPE] |273|  ; [KEEP 32-BIT INS]
    1674                            ; CALL OCCURS {stuffChar }       ; [] |273| 
    1675                    ;* --------------------------------------------------------------------------*
    1676                    ||$C$L27||:    
    1677                            .dwendtag $C$DW$85
    1678                    
    1679                    ;* --------------------------------------------------------------------------*
    1680 000001f0           ||$C$L28||:    
    1681                            .dwpsn  file "../picojpeg.c",line 277,column 4,is_stmt,isa 1
    1682                    ;----------------------------------------------------------------------
    1683                    ; 277 | return c;                                                              
    1684                    ;----------------------------------------------------------------------
    1685 000001f0 0001F89D          LDRB      A1, [SP, #1]          ; [DPU_3_PIPE] |277|  ; [KEEP 32-BIT INS]
    1686                            .dwpsn  file "../picojpeg.c",line 278,column 1,is_stmt,isa 1
    1687                    $C$DW$90        .dwtag  DW_TAG_TI_branch
    1688                            .dwattr $C$DW$90, DW_AT_low_pc(0x00)
    1689                            .dwattr $C$DW$90, DW_AT_TI_return
    1690                    
    1691 000001f4 BD0E              POP       {A2, A3, A4, PC}      ; [DPU_3_PIPE]  ; [ORIG 16-BIT INS]
    1692                            .dwcfi  cfa_offset, 0
    1693                            .dwcfi  restore_reg, 3
    1694                            .dwcfi  restore_reg, 2
    1695                            .dwcfi  restore_reg, 1
    1696                            ; BRANCH OCCURS                  ; [] 
    1697                            .dwattr $C$DW$80, DW_AT_TI_end_file("../picojpeg.c")
    1698                            .dwattr $C$DW$80, DW_AT_TI_end_line(0x116)
    1699                            .dwattr $C$DW$80, DW_AT_TI_end_column(0x01)
    1700                            .dwendentry
    1701                            .dwendtag $C$DW$80
    1702                    
    1703 000001f6                   .sect   ".text"
    1704                            .clink
    1705                            .thumbfunc getBits
TI ARM Assembler PC v16.9.6 Sun Dec 02 13:28:46 2018

Tools Copyright (c) 1996-2017 Texas Instruments Incorporated
picojpeg.asm                                                         PAGE   32

    1706 000001f6                   .thumb
    1707                    
    1708                    $C$DW$91        .dwtag  DW_TAG_subprogram
    1709                            .dwattr $C$DW$91, DW_AT_name("getBits")
    1710                            .dwattr $C$DW$91, DW_AT_low_pc(getBits)
    1711                            .dwattr $C$DW$91, DW_AT_high_pc(0x00)
    1712                            .dwattr $C$DW$91, DW_AT_TI_symbol_name("getBits")
    1713                            .dwattr $C$DW$91, DW_AT_type(*$C$DW$T$23)
    1714                            .dwattr $C$DW$91, DW_AT_TI_begin_file("../picojpeg.c")
    1715                            .dwattr $C$DW$91, DW_AT_TI_begin_line(0x118)
    1716                            .dwattr $C$DW$91, DW_AT_TI_begin_column(0x0f)
    1717                            .dwattr $C$DW$91, DW_AT_decl_file("../picojpeg.c")
    1718                            .dwattr $C$DW$91, DW_AT_decl_line(0x118)
    1719                            .dwattr $C$DW$91, DW_AT_decl_column(0x0f)
    1720                            .dwattr $C$DW$91, DW_AT_TI_max_frame_size(0x10)
    1721                            .dwpsn  file "../picojpeg.c",line 281,column 1,is_stmt,address getBits,isa 1
    1722                    
    1723                            .dwfde $C$DW$CIE, getBits
    1724                    $C$DW$92        .dwtag  DW_TAG_formal_parameter
    1725                            .dwattr $C$DW$92, DW_AT_name("numBits")
    1726                            .dwattr $C$DW$92, DW_AT_TI_symbol_name("numBits")
    1727                            .dwattr $C$DW$92, DW_AT_type(*$C$DW$T$25)
    1728                            .dwattr $C$DW$92, DW_AT_location[DW_OP_reg0]
    1729                    
    1730                    $C$DW$93        .dwtag  DW_TAG_formal_parameter
    1731                            .dwattr $C$DW$93, DW_AT_name("FFCheck")
    1732                            .dwattr $C$DW$93, DW_AT_TI_symbol_name("FFCheck")
    1733                            .dwattr $C$DW$93, DW_AT_type(*$C$DW$T$25)
    1734                            .dwattr $C$DW$93, DW_AT_location[DW_OP_reg1]
    1735                    
    1736                    ;----------------------------------------------------------------------
    1737                    ; 280 | static uint16 getBits(uint8 numBits, uint8 FFCheck)                    
    1738                    ;----------------------------------------------------------------------
    1739                    
    1740                    ;*****************************************************************************
    1741                    ;* FUNCTION NAME: getBits                                                    *
    1742                    ;*                                                                           *
    1743                    ;*   Regs Modified     : A1,A2,A3,A4,V1,V9,SP,LR,SR,D0,D0_hi,D1,D1_hi,D2,    *
    1744                    ;*                           D2_hi,D3,D3_hi,D4,D4_hi,D5,D5_hi,D6,D6_hi,D7,   *
    1745                    ;*                           D7_hi,FPEXC,FPSCR                               *
    1746                    ;*   Regs Used         : A1,A2,A3,A4,V1,V9,SP,LR,SR,D0,D0_hi,D1,D1_hi,D2,    *
    1747                    ;*                           D2_hi,D3,D3_hi,D4,D4_hi,D5,D5_hi,D6,D6_hi,D7,   *
    1748                    ;*                           D7_hi,FPEXC,FPSCR                               *
    1749                    ;*   Local Frame Size  : 0 Args + 8 Auto + 8 Save = 16 byte                  *
    1750                    ;*****************************************************************************
    1751 000001f6           getBits:
    1752                    ;* --------------------------------------------------------------------------*
    1753                            .dwcfi  cfa_offset, 0
    1754 000001f6 B51C              PUSH      {A3, A4, V1, LR}      ; [DPU_3_PIPE]  ; [ORIG 16-BIT INS]
    1755                            .dwcfi  cfa_offset, 16
    1756                            .dwcfi  save_reg_to_mem, 14, -4
    1757                            .dwcfi  save_reg_to_mem, 4, -8
    1758                            .dwcfi  save_reg_to_mem, 3, -12
    1759                            .dwcfi  save_reg_to_mem, 2, -16
    1760                    $C$DW$94        .dwtag  DW_TAG_variable
TI ARM Assembler PC v16.9.6 Sun Dec 02 13:28:46 2018

Tools Copyright (c) 1996-2017 Texas Instruments Incorporated
picojpeg.asm                                                         PAGE   33

    1761                            .dwattr $C$DW$94, DW_AT_name("ret")
    1762                            .dwattr $C$DW$94, DW_AT_TI_symbol_name("ret")
    1763                            .dwattr $C$DW$94, DW_AT_type(*$C$DW$T$23)
    1764                            .dwattr $C$DW$94, DW_AT_location[DW_OP_breg13 0]
    1765                    
    1766                    $C$DW$95        .dwtag  DW_TAG_variable
    1767                            .dwattr $C$DW$95, DW_AT_name("numBits")
    1768                            .dwattr $C$DW$95, DW_AT_TI_symbol_name("numBits")
    1769                            .dwattr $C$DW$95, DW_AT_type(*$C$DW$T$25)
    1770                            .dwattr $C$DW$95, DW_AT_location[DW_OP_breg13 2]
    1771                    
    1772                    $C$DW$96        .dwtag  DW_TAG_variable
    1773                            .dwattr $C$DW$96, DW_AT_name("FFCheck")
    1774                            .dwattr $C$DW$96, DW_AT_TI_symbol_name("FFCheck")
    1775                            .dwattr $C$DW$96, DW_AT_type(*$C$DW$T$25)
    1776                            .dwattr $C$DW$96, DW_AT_location[DW_OP_breg13 3]
    1777                    
    1778                    $C$DW$97        .dwtag  DW_TAG_variable
    1779                            .dwattr $C$DW$97, DW_AT_name("origBits")
    1780                            .dwattr $C$DW$97, DW_AT_TI_symbol_name("origBits")
    1781                            .dwattr $C$DW$97, DW_AT_type(*$C$DW$T$25)
    1782                            .dwattr $C$DW$97, DW_AT_location[DW_OP_breg13 4]
    1783                    
    1784 000001f8 1003F88D          STRB      A2, [SP, #3]          ; [DPU_3_PIPE] |281|  ; [KEEP 32-BIT INS]
    1785 000001fc 0002F88D          STRB      A1, [SP, #2]          ; [DPU_3_PIPE] |281|  ; [KEEP 32-BIT INS]
    1786                            .dwpsn  file "../picojpeg.c",line 282,column 19,is_stmt,isa 1
    1787                    ;----------------------------------------------------------------------
    1788                    ; 282 | uint8 origBits = numBits;                                              
    1789                    ;----------------------------------------------------------------------
    1790 00000200 0002F89D          LDRB      A1, [SP, #2]          ; [DPU_3_PIPE] |282|  ; [KEEP 32-BIT INS]
    1791 00000204 0004F88D          STRB      A1, [SP, #4]          ; [DPU_3_PIPE] |282|  ; [KEEP 32-BIT INS]
    1792                            .dwpsn  file "../picojpeg.c",line 283,column 15,is_stmt,isa 1
    1793                    ;----------------------------------------------------------------------
    1794                    ; 283 | uint16 ret = gBitBuf;                                                  
    1795                    ;----------------------------------------------------------------------
    1796 00000208 48C3              LDR       A1, $C$CON15          ; [DPU_3_PIPE] |283|  ; [ORIG 16-BIT INS]
    1797 0000020a 8800              LDRH      A1, [A1, #0]          ; [DPU_3_PIPE] |283|  ; [ORIG 16-BIT INS]
    1798 0000020c 0000F8AD          STRH      A1, [SP, #0]          ; [DPU_3_PIPE] |283|  ; [KEEP 32-BIT INS]
    1799                            .dwpsn  file "../picojpeg.c",line 285,column 4,is_stmt,isa 1
    1800                    ;----------------------------------------------------------------------
    1801                    ; 285 | if (numBits > 8)                                                       
    1802                    ;----------------------------------------------------------------------
    1803 00000210 0002F89D          LDRB      A1, [SP, #2]          ; [DPU_3_PIPE] |285|  ; [KEEP 32-BIT INS]
    1804 00000214 2808              CMP       A1, #8                ; [DPU_3_PIPE] |285|  ; [ORIG 16-BIT INS]
    1805 00000216 DD24              BLE       ||$C$L29||            ; [DPU_3_PIPE] |285|  ; [ORIG 16-BIT INS]
    1806                            ; BRANCHCC OCCURS {||$C$L29||}   ; [] |285| 
    1807                    ;* --------------------------------------------------------------------------*
    1808                            .dwpsn  file "../picojpeg.c",line 287,column 7,is_stmt,isa 1
    1809                    ;----------------------------------------------------------------------
    1810                    ; 287 | numBits -= 8;                                                          
    1811                    ;----------------------------------------------------------------------
    1812 00000218 0002F89D          LDRB      A1, [SP, #2]          ; [DPU_3_PIPE] |287|  ; [KEEP 32-BIT INS]
    1813 0000021c 3808              SUBS      A1, A1, #8            ; [DPU_3_PIPE] |287|  ; [ORIG 16-BIT INS]
    1814 0000021e 0002F88D          STRB      A1, [SP, #2]          ; [DPU_3_PIPE] |287|  ; [KEEP 32-BIT INS]
    1815                            .dwpsn  file "../picojpeg.c",line 289,column 7,is_stmt,isa 1
TI ARM Assembler PC v16.9.6 Sun Dec 02 13:28:46 2018

Tools Copyright (c) 1996-2017 Texas Instruments Incorporated
picojpeg.asm                                                         PAGE   34

    1816                    ;----------------------------------------------------------------------
    1817                    ; 289 | gBitBuf <<= gBitsLeft;                                                 
    1818                    ;----------------------------------------------------------------------
    1819 00000222 48BE              LDR       A1, $C$CON16          ; [DPU_3_PIPE] |289|  ; [ORIG 16-BIT INS]
    1820 00000224 49BC              LDR       A2, $C$CON15          ; [DPU_3_PIPE] |289|  ; [ORIG 16-BIT INS]
    1821 00000226 7802              LDRB      A3, [A1, #0]          ; [DPU_3_PIPE] |289|  ; [ORIG 16-BIT INS]
    1822 00000228 8808              LDRH      A1, [A2, #0]          ; [DPU_3_PIPE] |289|  ; [ORIG 16-BIT INS]
    1823 0000022a 4090              LSLS      A1, A1, A3            ; [DPU_3_PIPE] |289|  ; [ORIG 16-BIT INS]
    1824 0000022c 8008              STRH      A1, [A2, #0]          ; [DPU_3_PIPE] |289|  ; [ORIG 16-BIT INS]
    1825                            .dwpsn  file "../picojpeg.c",line 291,column 7,is_stmt,isa 1
    1826                    ;----------------------------------------------------------------------
    1827                    ; 291 | gBitBuf |= getOctet(FFCheck);                                          
    1828                    ;----------------------------------------------------------------------
    1829 0000022e 4CBA              LDR       V1, $C$CON15          ; [DPU_3_PIPE] |291|  ; [ORIG 16-BIT INS]
    1830 00000230 0003F89D          LDRB      A1, [SP, #3]          ; [DPU_3_PIPE] |291|  ; [KEEP 32-BIT INS]
    1831                    $C$DW$98        .dwtag  DW_TAG_TI_branch
    1832                            .dwattr $C$DW$98, DW_AT_low_pc(0x00)
    1833                            .dwattr $C$DW$98, DW_AT_name("getOctet")
    1834                            .dwattr $C$DW$98, DW_AT_TI_call
    1835                    
    1836 00000234 FFFEF7FF!         BL        getOctet              ; [DPU_3_PIPE] |291|  ; [KEEP 32-BIT INS]
    1837                            ; CALL OCCURS {getOctet }        ; [] |291| 
    1838 00000238 8821              LDRH      A2, [V1, #0]          ; [DPU_3_PIPE] |291|  ; [ORIG 16-BIT INS]
    1839 0000023a 4308              ORRS      A1, A1, A2            ; [DPU_3_PIPE] |291|  ; [ORIG 16-BIT INS]
    1840 0000023c 8020              STRH      A1, [V1, #0]          ; [DPU_3_PIPE] |291|  ; [ORIG 16-BIT INS]
    1841                            .dwpsn  file "../picojpeg.c",line 293,column 7,is_stmt,isa 1
    1842                    ;----------------------------------------------------------------------
    1843                    ; 293 | gBitBuf <<= (8 - gBitsLeft);                                           
    1844                    ;----------------------------------------------------------------------
    1845 0000023e 48B7              LDR       A1, $C$CON16          ; [DPU_3_PIPE] |293|  ; [ORIG 16-BIT INS]
    1846 00000240 4AB5              LDR       A3, $C$CON15          ; [DPU_3_PIPE] |293|  ; [ORIG 16-BIT INS]
    1847 00000242 7800              LDRB      A1, [A1, #0]          ; [DPU_3_PIPE] |293|  ; [ORIG 16-BIT INS]
    1848 00000244 8811              LDRH      A2, [A3, #0]          ; [DPU_3_PIPE] |293|  ; [ORIG 16-BIT INS]
    1849 00000246 0008F1C0          RSB       A1, A1, #8            ; [DPU_3_PIPE] |293|  ; [KEEP 32-BIT INS]
    1850 0000024a 4081              LSLS      A2, A2, A1            ; [DPU_3_PIPE] |293|  ; [ORIG 16-BIT INS]
    1851 0000024c 8011              STRH      A2, [A3, #0]          ; [DPU_3_PIPE] |293|  ; [ORIG 16-BIT INS]
    1852                            .dwpsn  file "../picojpeg.c",line 295,column 7,is_stmt,isa 1
    1853                    ;----------------------------------------------------------------------
    1854                    ; 295 | ret = (ret & 0xFF00) | (gBitBuf >> 8);                                 
    1855                    ;----------------------------------------------------------------------
    1856 0000024e 49B2              LDR       A2, $C$CON15          ; [DPU_3_PIPE] |295|  ; [ORIG 16-BIT INS]
    1857 00000250 0000F8BD          LDRH      A1, [SP, #0]          ; [DPU_3_PIPE] |295|  ; [KEEP 32-BIT INS]
    1858 00000254 8809              LDRH      A2, [A2, #0]          ; [DPU_3_PIPE] |295|  ; [ORIG 16-BIT INS]
    1859 00000256 407FF400          AND       A1, A1, #65280        ; [DPU_3_PIPE] |295|  ; [KEEP 32-BIT INS]
    1860 0000025a 2021EA40          ORR       A1, A1, A2, ASR #8    ; [DPU_3_PIPE] |295|  ; [KEEP 32-BIT INS]
    1861 0000025e 0000F8AD          STRH      A1, [SP, #0]          ; [DPU_3_PIPE] |295|  ; [KEEP 32-BIT INS]
    1862                    ;* --------------------------------------------------------------------------*
    1863 00000262           ||$C$L29||:    
    1864                            .dwpsn  file "../picojpeg.c",line 298,column 4,is_stmt,isa 1
    1865                    ;----------------------------------------------------------------------
    1866                    ; 298 | if (gBitsLeft < numBits)                                               
    1867                    ;----------------------------------------------------------------------
    1868 00000262 49AE              LDR       A2, $C$CON16          ; [DPU_3_PIPE] |298|  ; [ORIG 16-BIT INS]
    1869 00000264 0002F89D          LDRB      A1, [SP, #2]          ; [DPU_3_PIPE] |298|  ; [KEEP 32-BIT INS]
    1870 00000268 7809              LDRB      A2, [A2, #0]          ; [DPU_3_PIPE] |298|  ; [ORIG 16-BIT INS]
TI ARM Assembler PC v16.9.6 Sun Dec 02 13:28:46 2018

Tools Copyright (c) 1996-2017 Texas Instruments Incorporated
picojpeg.asm                                                         PAGE   35

    1871 0000026a 4288              CMP       A1, A2                ; [DPU_3_PIPE] |298|  ; [ORIG 16-BIT INS]
    1872 0000026c DD1F              BLE       ||$C$L30||            ; [DPU_3_PIPE] |298|  ; [ORIG 16-BIT INS]
    1873                            ; BRANCHCC OCCURS {||$C$L30||}   ; [] |298| 
    1874                    ;* --------------------------------------------------------------------------*
    1875                            .dwpsn  file "../picojpeg.c",line 300,column 7,is_stmt,isa 1
    1876                    ;----------------------------------------------------------------------
    1877                    ; 300 | gBitBuf <<= gBitsLeft;                                                 
    1878                    ;----------------------------------------------------------------------
    1879 0000026e 48AB              LDR       A1, $C$CON16          ; [DPU_3_PIPE] |300|  ; [ORIG 16-BIT INS]
    1880 00000270 49A9              LDR       A2, $C$CON15          ; [DPU_3_PIPE] |300|  ; [ORIG 16-BIT INS]
    1881 00000272 7802              LDRB      A3, [A1, #0]          ; [DPU_3_PIPE] |300|  ; [ORIG 16-BIT INS]
    1882 00000274 8808              LDRH      A1, [A2, #0]          ; [DPU_3_PIPE] |300|  ; [ORIG 16-BIT INS]
    1883 00000276 4090              LSLS      A1, A1, A3            ; [DPU_3_PIPE] |300|  ; [ORIG 16-BIT INS]
    1884 00000278 8008              STRH      A1, [A2, #0]          ; [DPU_3_PIPE] |300|  ; [ORIG 16-BIT INS]
    1885                            .dwpsn  file "../picojpeg.c",line 302,column 7,is_stmt,isa 1
    1886                    ;----------------------------------------------------------------------
    1887                    ; 302 | gBitBuf |= getOctet(FFCheck);                                          
    1888                    ;----------------------------------------------------------------------
    1889 0000027a 4CA7              LDR       V1, $C$CON15          ; [DPU_3_PIPE] |302|  ; [ORIG 16-BIT INS]
    1890 0000027c 0003F89D          LDRB      A1, [SP, #3]          ; [DPU_3_PIPE] |302|  ; [KEEP 32-BIT INS]
    1891                    $C$DW$99        .dwtag  DW_TAG_TI_branch
    1892                            .dwattr $C$DW$99, DW_AT_low_pc(0x00)
    1893                            .dwattr $C$DW$99, DW_AT_name("getOctet")
    1894                            .dwattr $C$DW$99, DW_AT_TI_call
    1895                    
    1896 00000280 FFFEF7FF!         BL        getOctet              ; [DPU_3_PIPE] |302|  ; [KEEP 32-BIT INS]
    1897                            ; CALL OCCURS {getOctet }        ; [] |302| 
    1898 00000284 8821              LDRH      A2, [V1, #0]          ; [DPU_3_PIPE] |302|  ; [ORIG 16-BIT INS]
    1899 00000286 4308              ORRS      A1, A1, A2            ; [DPU_3_PIPE] |302|  ; [ORIG 16-BIT INS]
    1900 00000288 8020              STRH      A1, [V1, #0]          ; [DPU_3_PIPE] |302|  ; [ORIG 16-BIT INS]
    1901                            .dwpsn  file "../picojpeg.c",line 304,column 7,is_stmt,isa 1
    1902                    ;----------------------------------------------------------------------
    1903                    ; 304 | gBitBuf <<= (numBits - gBitsLeft);                                     
    1904                    ;----------------------------------------------------------------------
    1905 0000028a 49A4              LDR       A2, $C$CON16          ; [DPU_3_PIPE] |304|  ; [ORIG 16-BIT INS]
    1906 0000028c 4AA2              LDR       A3, $C$CON15          ; [DPU_3_PIPE] |304|  ; [ORIG 16-BIT INS]
    1907 0000028e 0002F89D          LDRB      A1, [SP, #2]          ; [DPU_3_PIPE] |304|  ; [KEEP 32-BIT INS]
    1908 00000292 780B              LDRB      A4, [A2, #0]          ; [DPU_3_PIPE] |304|  ; [ORIG 16-BIT INS]
    1909 00000294 8811              LDRH      A2, [A3, #0]          ; [DPU_3_PIPE] |304|  ; [ORIG 16-BIT INS]
    1910 00000296 1AC0              SUBS      A1, A1, A4            ; [DPU_3_PIPE] |304|  ; [ORIG 16-BIT INS]
    1911 00000298 4081              LSLS      A2, A2, A1            ; [DPU_3_PIPE] |304|  ; [ORIG 16-BIT INS]
    1912 0000029a 8011              STRH      A2, [A3, #0]          ; [DPU_3_PIPE] |304|  ; [ORIG 16-BIT INS]
    1913                            .dwpsn  file "../picojpeg.c",line 306,column 7,is_stmt,isa 1
    1914                    ;----------------------------------------------------------------------
    1915                    ; 306 | gBitsLeft = 8 - (numBits - gBitsLeft);                                 
    1916                    ;----------------------------------------------------------------------
    1917 0000029c 489F              LDR       A1, $C$CON16          ; [DPU_3_PIPE] |306|  ; [ORIG 16-BIT INS]
    1918 0000029e 2002F89D          LDRB      A3, [SP, #2]          ; [DPU_3_PIPE] |306|  ; [KEEP 32-BIT INS]
    1919 000002a2 499E              LDR       A2, $C$CON16          ; [DPU_3_PIPE] |306|  ; [ORIG 16-BIT INS]
    1920 000002a4 7800              LDRB      A1, [A1, #0]          ; [DPU_3_PIPE] |306|  ; [ORIG 16-BIT INS]
    1921 000002a6 1A80              SUBS      A1, A1, A3            ; [DPU_3_PIPE] |306|  ; [ORIG 16-BIT INS]
    1922 000002a8 3008              ADDS      A1, A1, #8            ; [DPU_3_PIPE] |306|  ; [ORIG 16-BIT INS]
    1923 000002aa 7008              STRB      A1, [A2, #0]          ; [DPU_3_PIPE] |306|  ; [ORIG 16-BIT INS]
    1924                            .dwpsn  file "../picojpeg.c",line 307,column 4,is_stmt,isa 1
    1925                    ;----------------------------------------------------------------------
TI ARM Assembler PC v16.9.6 Sun Dec 02 13:28:46 2018

Tools Copyright (c) 1996-2017 Texas Instruments Incorporated
picojpeg.asm                                                         PAGE   36

    1926                    ; 308 | else                                                                   
    1927                    ;----------------------------------------------------------------------
    1928 000002ac E00C              B         ||$C$L31||            ; [DPU_3_PIPE] |307|  ; [ORIG 16-BIT INS]
    1929                            ; BRANCH OCCURS {||$C$L31||}     ; [] |307| 
    1930                    ;* --------------------------------------------------------------------------*
    1931 000002ae           ||$C$L30||:    
    1932                            .dwpsn  file "../picojpeg.c",line 310,column 7,is_stmt,isa 1
    1933                    ;----------------------------------------------------------------------
    1934                    ; 310 | gBitsLeft = (uint8)(gBitsLeft - numBits);                              
    1935                    ;----------------------------------------------------------------------
    1936 000002ae 489B              LDR       A1, $C$CON16          ; [DPU_3_PIPE] |310|  ; [ORIG 16-BIT INS]
    1937 000002b0 2002F89D          LDRB      A3, [SP, #2]          ; [DPU_3_PIPE] |310|  ; [KEEP 32-BIT INS]
    1938 000002b4 4999              LDR       A2, $C$CON16          ; [DPU_3_PIPE] |310|  ; [ORIG 16-BIT INS]
    1939 000002b6 7800              LDRB      A1, [A1, #0]          ; [DPU_3_PIPE] |310|  ; [ORIG 16-BIT INS]
    1940 000002b8 1A80              SUBS      A1, A1, A3            ; [DPU_3_PIPE] |310|  ; [ORIG 16-BIT INS]
    1941 000002ba 7008              STRB      A1, [A2, #0]          ; [DPU_3_PIPE] |310|  ; [ORIG 16-BIT INS]
    1942                            .dwpsn  file "../picojpeg.c",line 311,column 7,is_stmt,isa 1
    1943                    ;----------------------------------------------------------------------
    1944                    ; 311 | gBitBuf <<= numBits;                                                   
    1945                    ;----------------------------------------------------------------------
    1946 000002bc 4996              LDR       A2, $C$CON15          ; [DPU_3_PIPE] |311|  ; [ORIG 16-BIT INS]
    1947 000002be 2002F89D          LDRB      A3, [SP, #2]          ; [DPU_3_PIPE] |311|  ; [KEEP 32-BIT INS]
    1948 000002c2 8808              LDRH      A1, [A2, #0]          ; [DPU_3_PIPE] |311|  ; [ORIG 16-BIT INS]
    1949 000002c4 4090              LSLS      A1, A1, A3            ; [DPU_3_PIPE] |311|  ; [ORIG 16-BIT INS]
    1950 000002c6 8008              STRH      A1, [A2, #0]          ; [DPU_3_PIPE] |311|  ; [ORIG 16-BIT INS]
    1951                    ;* --------------------------------------------------------------------------*
    1952 000002c8           ||$C$L31||:    
    1953                            .dwpsn  file "../picojpeg.c",line 314,column 4,is_stmt,isa 1
    1954                    ;----------------------------------------------------------------------
    1955                    ; 314 | return ret >> (16 - origBits);                                         
    1956                    ;----------------------------------------------------------------------
    1957 000002c8 0004F89D          LDRB      A1, [SP, #4]          ; [DPU_3_PIPE] |314|  ; [KEEP 32-BIT INS]
    1958 000002cc 1000F8BD          LDRH      A2, [SP, #0]          ; [DPU_3_PIPE] |314|  ; [KEEP 32-BIT INS]
    1959 000002d0 0010F1C0          RSB       A1, A1, #16           ; [DPU_3_PIPE] |314|  ; [KEEP 32-BIT INS]
    1960 000002d4 4101              ASRS      A2, A2, A1            ; [DPU_3_PIPE] |314|  ; [ORIG 16-BIT INS]
    1961 000002d6 B288              UXTH      A1, A2                ; [DPU_3_PIPE] |314|  ; [ORIG 16-BIT INS]
    1962                            .dwpsn  file "../picojpeg.c",line 315,column 1,is_stmt,isa 1
    1963                    $C$DW$100       .dwtag  DW_TAG_TI_branch
    1964                            .dwattr $C$DW$100, DW_AT_low_pc(0x00)
    1965                            .dwattr $C$DW$100, DW_AT_TI_return
    1966                    
    1967 000002d8 BD1C              POP       {A3, A4, V1, PC}      ; [DPU_3_PIPE]  ; [ORIG 16-BIT INS]
    1968                            .dwcfi  cfa_offset, 0
    1969                            .dwcfi  restore_reg, 4
    1970                            .dwcfi  restore_reg, 3
    1971                            .dwcfi  restore_reg, 2
    1972                            ; BRANCH OCCURS                  ; [] 
    1973                            .dwattr $C$DW$91, DW_AT_TI_end_file("../picojpeg.c")
    1974                            .dwattr $C$DW$91, DW_AT_TI_end_line(0x13b)
    1975                            .dwattr $C$DW$91, DW_AT_TI_end_column(0x01)
    1976                            .dwendentry
    1977                            .dwendtag $C$DW$91
    1978                    
    1979 000002da                   .sect   ".text"
    1980                            .clink
TI ARM Assembler PC v16.9.6 Sun Dec 02 13:28:46 2018

Tools Copyright (c) 1996-2017 Texas Instruments Incorporated
picojpeg.asm                                                         PAGE   37

    1981                            .thumbfunc getBits1
    1982 000002da                   .thumb
    1983                    
    1984                    $C$DW$101       .dwtag  DW_TAG_subprogram
    1985                            .dwattr $C$DW$101, DW_AT_name("getBits1")
    1986                            .dwattr $C$DW$101, DW_AT_low_pc(getBits1)
    1987                            .dwattr $C$DW$101, DW_AT_high_pc(0x00)
    1988                            .dwattr $C$DW$101, DW_AT_TI_symbol_name("getBits1")
    1989                            .dwattr $C$DW$101, DW_AT_type(*$C$DW$T$23)
    1990                            .dwattr $C$DW$101, DW_AT_TI_begin_file("../picojpeg.c")
    1991                            .dwattr $C$DW$101, DW_AT_TI_begin_line(0x13d)
    1992                            .dwattr $C$DW$101, DW_AT_TI_begin_column(0x1b)
    1993                            .dwattr $C$DW$101, DW_AT_decl_file("../picojpeg.c")
    1994                            .dwattr $C$DW$101, DW_AT_decl_line(0x13d)
    1995                            .dwattr $C$DW$101, DW_AT_decl_column(0x1b)
    1996                            .dwattr $C$DW$101, DW_AT_TI_max_frame_size(0x08)
    1997                            .dwpsn  file "../picojpeg.c",line 318,column 1,is_stmt,address getBits1,isa 1
    1998                    
    1999                            .dwfde $C$DW$CIE, getBits1
    2000                    $C$DW$102       .dwtag  DW_TAG_formal_parameter
    2001                            .dwattr $C$DW$102, DW_AT_name("numBits")
    2002                            .dwattr $C$DW$102, DW_AT_TI_symbol_name("numBits")
    2003                            .dwattr $C$DW$102, DW_AT_type(*$C$DW$T$25)
    2004                            .dwattr $C$DW$102, DW_AT_location[DW_OP_reg0]
    2005                    
    2006                    ;----------------------------------------------------------------------
    2007                    ; 317 | static PJPG_INLINE uint16 getBits1(uint8 numBits)                      
    2008                    ;----------------------------------------------------------------------
    2009                    
    2010                    ;*****************************************************************************
    2011                    ;* FUNCTION NAME: getBits1                                                   *
    2012                    ;*                                                                           *
    2013                    ;*   Regs Modified     : A1,A2,A3,A4,V9,SP,LR,SR,D0,D0_hi,D1,D1_hi,D2,D2_hi, *
    2014                    ;*                           D3,D3_hi,D4,D4_hi,D5,D5_hi,D6,D6_hi,D7,D7_hi,   *
    2015                    ;*                           FPEXC,FPSCR                                     *
    2016                    ;*   Regs Used         : A1,A2,A3,A4,V9,SP,LR,SR,D0,D0_hi,D1,D1_hi,D2,D2_hi, *
    2017                    ;*                           D3,D3_hi,D4,D4_hi,D5,D5_hi,D6,D6_hi,D7,D7_hi,   *
    2018                    ;*                           FPEXC,FPSCR                                     *
    2019                    ;*   Local Frame Size  : 0 Args + 4 Auto + 4 Save = 8 byte                   *
    2020                    ;*****************************************************************************
    2021 000002da           getBits1:
    2022                    ;* --------------------------------------------------------------------------*
    2023                            .dwcfi  cfa_offset, 0
    2024 000002da B508              PUSH      {A4, LR}              ; [DPU_3_PIPE]  ; [ORIG 16-BIT INS]
    2025                            .dwcfi  cfa_offset, 8
    2026                            .dwcfi  save_reg_to_mem, 14, -4
    2027                            .dwcfi  save_reg_to_mem, 3, -8
    2028                    $C$DW$103       .dwtag  DW_TAG_variable
    2029                            .dwattr $C$DW$103, DW_AT_name("numBits")
    2030                            .dwattr $C$DW$103, DW_AT_TI_symbol_name("numBits")
    2031                            .dwattr $C$DW$103, DW_AT_type(*$C$DW$T$25)
    2032                            .dwattr $C$DW$103, DW_AT_location[DW_OP_breg13 0]
    2033                    
    2034 000002dc 0000F88D          STRB      A1, [SP, #0]          ; [DPU_3_PIPE] |318|  ; [KEEP 32-BIT INS]
    2035                            .dwpsn  file "../picojpeg.c",line 319,column 4,is_stmt,isa 1
TI ARM Assembler PC v16.9.6 Sun Dec 02 13:28:46 2018

Tools Copyright (c) 1996-2017 Texas Instruments Incorporated
picojpeg.asm                                                         PAGE   38

    2036                    ;----------------------------------------------------------------------
    2037                    ; 319 | return getBits(numBits, 0);                                            
    2038                    ;----------------------------------------------------------------------
    2039 000002e0 0000F89D          LDRB      A1, [SP, #0]          ; [DPU_3_PIPE] |319|  ; [KEEP 32-BIT INS]
    2040 000002e4 2100              MOVS      A2, #0                ; [DPU_3_PIPE] |319|  ; [ORIG 16-BIT INS]
    2041                    $C$DW$104       .dwtag  DW_TAG_TI_branch
    2042                            .dwattr $C$DW$104, DW_AT_low_pc(0x00)
    2043                            .dwattr $C$DW$104, DW_AT_name("getBits")
    2044                            .dwattr $C$DW$104, DW_AT_TI_call
    2045                    
    2046 000002e6 FFFEF7FF!         BL        getBits               ; [DPU_3_PIPE] |319|  ; [KEEP 32-BIT INS]
    2047                            ; CALL OCCURS {getBits }         ; [] |319| 
    2048                            .dwpsn  file "../picojpeg.c",line 320,column 1,is_stmt,isa 1
    2049                    $C$DW$105       .dwtag  DW_TAG_TI_branch
    2050                            .dwattr $C$DW$105, DW_AT_low_pc(0x00)
    2051                            .dwattr $C$DW$105, DW_AT_TI_return
    2052                    
    2053 000002ea BD08              POP       {A4, PC}              ; [DPU_3_PIPE]  ; [ORIG 16-BIT INS]
    2054                            .dwcfi  cfa_offset, 0
    2055                            .dwcfi  restore_reg, 3
    2056                            ; BRANCH OCCURS                  ; [] 
    2057                            .dwattr $C$DW$101, DW_AT_TI_end_file("../picojpeg.c")
    2058                            .dwattr $C$DW$101, DW_AT_TI_end_line(0x140)
    2059                            .dwattr $C$DW$101, DW_AT_TI_end_column(0x01)
    2060                            .dwendentry
    2061                            .dwendtag $C$DW$101
    2062                    
    2063 000002ec                   .sect   ".text"
    2064                            .clink
    2065                            .thumbfunc getBits2
    2066 000002ec                   .thumb
    2067                    
    2068                    $C$DW$106       .dwtag  DW_TAG_subprogram
    2069                            .dwattr $C$DW$106, DW_AT_name("getBits2")
    2070                            .dwattr $C$DW$106, DW_AT_low_pc(getBits2)
    2071                            .dwattr $C$DW$106, DW_AT_high_pc(0x00)
    2072                            .dwattr $C$DW$106, DW_AT_TI_symbol_name("getBits2")
    2073                            .dwattr $C$DW$106, DW_AT_type(*$C$DW$T$23)
    2074                            .dwattr $C$DW$106, DW_AT_TI_begin_file("../picojpeg.c")
    2075                            .dwattr $C$DW$106, DW_AT_TI_begin_line(0x142)
    2076                            .dwattr $C$DW$106, DW_AT_TI_begin_column(0x1b)
    2077                            .dwattr $C$DW$106, DW_AT_decl_file("../picojpeg.c")
    2078                            .dwattr $C$DW$106, DW_AT_decl_line(0x142)
    2079                            .dwattr $C$DW$106, DW_AT_decl_column(0x1b)
    2080                            .dwattr $C$DW$106, DW_AT_TI_max_frame_size(0x08)
    2081                            .dwpsn  file "../picojpeg.c",line 323,column 1,is_stmt,address getBits2,isa 1
    2082                    
    2083                            .dwfde $C$DW$CIE, getBits2
    2084                    $C$DW$107       .dwtag  DW_TAG_formal_parameter
    2085                            .dwattr $C$DW$107, DW_AT_name("numBits")
    2086                            .dwattr $C$DW$107, DW_AT_TI_symbol_name("numBits")
    2087                            .dwattr $C$DW$107, DW_AT_type(*$C$DW$T$25)
    2088                            .dwattr $C$DW$107, DW_AT_location[DW_OP_reg0]
    2089                    
    2090                    ;----------------------------------------------------------------------
TI ARM Assembler PC v16.9.6 Sun Dec 02 13:28:46 2018

Tools Copyright (c) 1996-2017 Texas Instruments Incorporated
picojpeg.asm                                                         PAGE   39

    2091                    ; 322 | static PJPG_INLINE uint16 getBits2(uint8 numBits)                      
    2092                    ;----------------------------------------------------------------------
    2093                    
    2094                    ;*****************************************************************************
    2095                    ;* FUNCTION NAME: getBits2                                                   *
    2096                    ;*                                                                           *
    2097                    ;*   Regs Modified     : A1,A2,A3,A4,V9,SP,LR,SR,D0,D0_hi,D1,D1_hi,D2,D2_hi, *
    2098                    ;*                           D3,D3_hi,D4,D4_hi,D5,D5_hi,D6,D6_hi,D7,D7_hi,   *
    2099                    ;*                           FPEXC,FPSCR                                     *
    2100                    ;*   Regs Used         : A1,A2,A3,A4,V9,SP,LR,SR,D0,D0_hi,D1,D1_hi,D2,D2_hi, *
    2101                    ;*                           D3,D3_hi,D4,D4_hi,D5,D5_hi,D6,D6_hi,D7,D7_hi,   *
    2102                    ;*                           FPEXC,FPSCR                                     *
    2103                    ;*   Local Frame Size  : 0 Args + 4 Auto + 4 Save = 8 byte                   *
    2104                    ;*****************************************************************************
    2105 000002ec           getBits2:
    2106                    ;* --------------------------------------------------------------------------*
    2107                            .dwcfi  cfa_offset, 0
    2108 000002ec B508              PUSH      {A4, LR}              ; [DPU_3_PIPE]  ; [ORIG 16-BIT INS]
    2109                            .dwcfi  cfa_offset, 8
    2110                            .dwcfi  save_reg_to_mem, 14, -4
    2111                            .dwcfi  save_reg_to_mem, 3, -8
    2112                    $C$DW$108       .dwtag  DW_TAG_variable
    2113                            .dwattr $C$DW$108, DW_AT_name("numBits")
    2114                            .dwattr $C$DW$108, DW_AT_TI_symbol_name("numBits")
    2115                            .dwattr $C$DW$108, DW_AT_type(*$C$DW$T$25)
    2116                            .dwattr $C$DW$108, DW_AT_location[DW_OP_breg13 0]
    2117                    
    2118 000002ee 0000F88D          STRB      A1, [SP, #0]          ; [DPU_3_PIPE] |323|  ; [KEEP 32-BIT INS]
    2119                            .dwpsn  file "../picojpeg.c",line 324,column 4,is_stmt,isa 1
    2120                    ;----------------------------------------------------------------------
    2121                    ; 324 | return getBits(numBits, 1);                                            
    2122                    ;----------------------------------------------------------------------
    2123 000002f2 0000F89D          LDRB      A1, [SP, #0]          ; [DPU_3_PIPE] |324|  ; [KEEP 32-BIT INS]
    2124 000002f6 2101              MOVS      A2, #1                ; [DPU_3_PIPE] |324|  ; [ORIG 16-BIT INS]
    2125                    $C$DW$109       .dwtag  DW_TAG_TI_branch
    2126                            .dwattr $C$DW$109, DW_AT_low_pc(0x00)
    2127                            .dwattr $C$DW$109, DW_AT_name("getBits")
    2128                            .dwattr $C$DW$109, DW_AT_TI_call
    2129                    
    2130 000002f8 FFFEF7FF!         BL        getBits               ; [DPU_3_PIPE] |324|  ; [KEEP 32-BIT INS]
    2131                            ; CALL OCCURS {getBits }         ; [] |324| 
    2132                            .dwpsn  file "../picojpeg.c",line 325,column 1,is_stmt,isa 1
    2133                    $C$DW$110       .dwtag  DW_TAG_TI_branch
    2134                            .dwattr $C$DW$110, DW_AT_low_pc(0x00)
    2135                            .dwattr $C$DW$110, DW_AT_TI_return
    2136                    
    2137 000002fc BD08              POP       {A4, PC}              ; [DPU_3_PIPE]  ; [ORIG 16-BIT INS]
    2138                            .dwcfi  cfa_offset, 0
    2139                            .dwcfi  restore_reg, 3
    2140                            ; BRANCH OCCURS                  ; [] 
    2141                            .dwattr $C$DW$106, DW_AT_TI_end_file("../picojpeg.c")
    2142                            .dwattr $C$DW$106, DW_AT_TI_end_line(0x145)
    2143                            .dwattr $C$DW$106, DW_AT_TI_end_column(0x01)
    2144                            .dwendentry
    2145                            .dwendtag $C$DW$106
TI ARM Assembler PC v16.9.6 Sun Dec 02 13:28:46 2018

Tools Copyright (c) 1996-2017 Texas Instruments Incorporated
picojpeg.asm                                                         PAGE   40

    2146                    
    2147                    ;******************************************************************************
    2148                    ;* CONSTANT TABLE                                                             *
    2149                    ;******************************************************************************
    2150 000002fe                   .sect   ".text"
    2151                            .align  4
    2152 000002fe 800046C0  ||$C$CON1||:    .bits   -32768,32
         00000302 0000FFFF 
    2153                            .align  4
    2154 00000302 C000FFFF  ||$C$CON2||:    .bits   -16384,32
         00000306 0000FFFF 
    2155                            .align  4
    2156 00000306 E000FFFF  ||$C$CON3||:    .bits   -8192,32
         0000030a 0000FFFF 
    2157                            .align  4
    2158 0000030a F000FFFF  ||$C$CON4||:    .bits   -4096,32
         0000030e 0000FFFF 
    2159                            .align  4
    2160 0000030e F800FFFF  ||$C$CON5||:    .bits   -2048,32
         00000312 0000FFFF 
    2161                            .align  4
    2162 00000312 FC00FFFF  ||$C$CON6||:    .bits   -1024,32
         00000316 0000FFFF 
    2163                            .align  4
    2164 00000316 FE00FFFF  ||$C$CON7||:    .bits   -512,32
         0000031a 0000FFFF 
    2165 0000031c                   .sect   ".text"
    2166                            .clink
    2167                            .thumbfunc getBit
    2168 0000031c                   .thumb
    2169                    
    2170                    $C$DW$111       .dwtag  DW_TAG_subprogram
    2171                            .dwattr $C$DW$111, DW_AT_name("getBit")
    2172                            .dwattr $C$DW$111, DW_AT_low_pc(getBit)
    2173                            .dwattr $C$DW$111, DW_AT_high_pc(0x00)
    2174                            .dwattr $C$DW$111, DW_AT_TI_symbol_name("getBit")
    2175                            .dwattr $C$DW$111, DW_AT_type(*$C$DW$T$25)
    2176                            .dwattr $C$DW$111, DW_AT_TI_begin_file("../picojpeg.c")
    2177                            .dwattr $C$DW$111, DW_AT_TI_begin_line(0x147)
    2178                            .dwattr $C$DW$111, DW_AT_TI_begin_column(0x1a)
    2179                            .dwattr $C$DW$111, DW_AT_decl_file("../picojpeg.c")
    2180                            .dwattr $C$DW$111, DW_AT_decl_line(0x147)
    2181                            .dwattr $C$DW$111, DW_AT_decl_column(0x1a)
    2182                            .dwattr $C$DW$111, DW_AT_TI_max_frame_size(0x10)
    2183                            .dwpsn  file "../picojpeg.c",line 328,column 1,is_stmt,address getBit,isa 1
    2184                    
    2185                            .dwfde $C$DW$CIE, getBit
    2186                    ;----------------------------------------------------------------------
    2187                    ; 327 | static PJPG_INLINE uint8 getBit(void)                                  
    2188                    ;----------------------------------------------------------------------
    2189                    
    2190                    ;*****************************************************************************
    2191                    ;* FUNCTION NAME: getBit                                                     *
    2192                    ;*                                                                           *
    2193                    ;*   Regs Modified     : A1,A2,A3,A4,V1,V9,SP,LR,SR,D0,D0_hi,D1,D1_hi,D2,    *
TI ARM Assembler PC v16.9.6 Sun Dec 02 13:28:46 2018

Tools Copyright (c) 1996-2017 Texas Instruments Incorporated
picojpeg.asm                                                         PAGE   41

    2194                    ;*                           D2_hi,D3,D3_hi,D4,D4_hi,D5,D5_hi,D6,D6_hi,D7,   *
    2195                    ;*                           D7_hi,FPEXC,FPSCR                               *
    2196                    ;*   Regs Used         : A1,A2,A3,A4,V1,V9,SP,LR,SR,D0,D0_hi,D1,D1_hi,D2,    *
    2197                    ;*                           D2_hi,D3,D3_hi,D4,D4_hi,D5,D5_hi,D6,D6_hi,D7,   *
    2198                    ;*                           D7_hi,FPEXC,FPSCR                               *
    2199                    ;*   Local Frame Size  : 0 Args + 4 Auto + 8 Save = 12 byte                  *
    2200                    ;*****************************************************************************
    2201 0000031c           getBit:
    2202                    ;* --------------------------------------------------------------------------*
    2203                            .dwcfi  cfa_offset, 0
    2204 0000031c B51C              PUSH      {A3, A4, V1, LR}      ; [DPU_3_PIPE]  ; [ORIG 16-BIT INS]
    2205                            .dwcfi  cfa_offset, 16
    2206                            .dwcfi  save_reg_to_mem, 14, -4
    2207                            .dwcfi  save_reg_to_mem, 4, -8
    2208                            .dwcfi  save_reg_to_mem, 3, -12
    2209                            .dwcfi  save_reg_to_mem, 2, -16
    2210                    $C$DW$112       .dwtag  DW_TAG_variable
    2211                            .dwattr $C$DW$112, DW_AT_name("ret")
    2212                            .dwattr $C$DW$112, DW_AT_TI_symbol_name("ret")
    2213                            .dwattr $C$DW$112, DW_AT_type(*$C$DW$T$25)
    2214                            .dwattr $C$DW$112, DW_AT_location[DW_OP_breg13 0]
    2215                    
    2216                            .dwpsn  file "../picojpeg.c",line 329,column 14,is_stmt,isa 1
    2217                    ;----------------------------------------------------------------------
    2218                    ; 329 | uint8 ret = 0;                                                         
    2219                    ;----------------------------------------------------------------------
    2220 0000031e 2000              MOVS      A1, #0                ; [DPU_3_PIPE] |329|  ; [ORIG 16-BIT INS]
    2221 00000320 0000F88D          STRB      A1, [SP, #0]          ; [DPU_3_PIPE] |329|  ; [KEEP 32-BIT INS]
    2222                            .dwpsn  file "../picojpeg.c",line 330,column 4,is_stmt,isa 1
    2223                    ;----------------------------------------------------------------------
    2224                    ; 330 | if (gBitBuf & 0x8000)                                                  
    2225                    ;----------------------------------------------------------------------
    2226 00000324 487C              LDR       A1, $C$CON15          ; [DPU_3_PIPE] |330|  ; [ORIG 16-BIT INS]
    2227 00000326 8800              LDRH      A1, [A1, #0]          ; [DPU_3_PIPE] |330|  ; [ORIG 16-BIT INS]
    2228 00000328 0C00              LSRS      A1, A1, #16           ; [DPU_3_PIPE] |330|  ; [ORIG 16-BIT INS]
    2229 0000032a D302              BCC       ||$C$L32||            ; [DPU_3_PIPE] |330|  ; [ORIG 16-BIT INS]
    2230                            ; BRANCHCC OCCURS {||$C$L32||}   ; [] |330| 
    2231                    ;* --------------------------------------------------------------------------*
    2232                            .dwpsn  file "../picojpeg.c",line 331,column 7,is_stmt,isa 1
    2233                    ;----------------------------------------------------------------------
    2234                    ; 331 | ret = 1;                                                               
    2235                    ;----------------------------------------------------------------------
    2236 0000032c 2001              MOVS      A1, #1                ; [DPU_3_PIPE] |331|  ; [ORIG 16-BIT INS]
    2237 0000032e 0000F88D          STRB      A1, [SP, #0]          ; [DPU_3_PIPE] |331|  ; [KEEP 32-BIT INS]
    2238                    ;* --------------------------------------------------------------------------*
    2239 00000332           ||$C$L32||:    
    2240                            .dwpsn  file "../picojpeg.c",line 333,column 4,is_stmt,isa 1
    2241                    ;----------------------------------------------------------------------
    2242                    ; 333 | if (!gBitsLeft)                                                        
    2243                    ;----------------------------------------------------------------------
    2244 00000332 487A              LDR       A1, $C$CON16          ; [DPU_3_PIPE] |333|  ; [ORIG 16-BIT INS]
    2245 00000334 7800              LDRB      A1, [A1, #0]          ; [DPU_3_PIPE] |333|  ; [ORIG 16-BIT INS]
    2246 00000336 B950              CBNZ      A1, ||$C$L33||        ; []  ; [ORIG 16-BIT INS]
    2247                            ; BRANCHCC OCCURS {||$C$L33||}   ; [] |333| 
    2248                    ;* --------------------------------------------------------------------------*
TI ARM Assembler PC v16.9.6 Sun Dec 02 13:28:46 2018

Tools Copyright (c) 1996-2017 Texas Instruments Incorporated
picojpeg.asm                                                         PAGE   42

    2249                            .dwpsn  file "../picojpeg.c",line 335,column 7,is_stmt,isa 1
    2250                    ;----------------------------------------------------------------------
    2251                    ; 335 | gBitBuf |= getOctet(1);                                                
    2252                    ;----------------------------------------------------------------------
    2253 00000338 4C77              LDR       V1, $C$CON15          ; [DPU_3_PIPE] |335|  ; [ORIG 16-BIT INS]
    2254 0000033a 2001              MOVS      A1, #1                ; [DPU_3_PIPE] |335|  ; [ORIG 16-BIT INS]
    2255                    $C$DW$113       .dwtag  DW_TAG_TI_branch
    2256                            .dwattr $C$DW$113, DW_AT_low_pc(0x00)
    2257                            .dwattr $C$DW$113, DW_AT_name("getOctet")
    2258                            .dwattr $C$DW$113, DW_AT_TI_call
    2259                    
    2260 0000033c FFFEF7FF!         BL        getOctet              ; [DPU_3_PIPE] |335|  ; [KEEP 32-BIT INS]
    2261                            ; CALL OCCURS {getOctet }        ; [] |335| 
    2262 00000340 8821              LDRH      A2, [V1, #0]          ; [DPU_3_PIPE] |335|  ; [ORIG 16-BIT INS]
    2263 00000342 4308              ORRS      A1, A1, A2            ; [DPU_3_PIPE] |335|  ; [ORIG 16-BIT INS]
    2264 00000344 8020              STRH      A1, [V1, #0]          ; [DPU_3_PIPE] |335|  ; [ORIG 16-BIT INS]
    2265                            .dwpsn  file "../picojpeg.c",line 337,column 7,is_stmt,isa 1
    2266                    ;----------------------------------------------------------------------
    2267                    ; 337 | gBitsLeft += 8;                                                        
    2268                    ;----------------------------------------------------------------------
    2269 00000346 4975              LDR       A2, $C$CON16          ; [DPU_3_PIPE] |337|  ; [ORIG 16-BIT INS]
    2270 00000348 7808              LDRB      A1, [A2, #0]          ; [DPU_3_PIPE] |337|  ; [ORIG 16-BIT INS]
    2271 0000034a 3008              ADDS      A1, A1, #8            ; [DPU_3_PIPE] |337|  ; [ORIG 16-BIT INS]
    2272 0000034c 7008              STRB      A1, [A2, #0]          ; [DPU_3_PIPE] |337|  ; [ORIG 16-BIT INS]
    2273                    ;* --------------------------------------------------------------------------*
    2274 0000034e           ||$C$L33||:    
    2275                            .dwpsn  file "../picojpeg.c",line 340,column 4,is_stmt,isa 1
    2276                    ;----------------------------------------------------------------------
    2277                    ; 340 | gBitsLeft--;                                                           
    2278                    ;----------------------------------------------------------------------
    2279 0000034e 4973              LDR       A2, $C$CON16          ; [DPU_3_PIPE] |340|  ; [ORIG 16-BIT INS]
    2280 00000350 7808              LDRB      A1, [A2, #0]          ; [DPU_3_PIPE] |340|  ; [ORIG 16-BIT INS]
    2281 00000352 1E40              SUBS      A1, A1, #1            ; [DPU_3_PIPE] |340|  ; [ORIG 16-BIT INS]
    2282 00000354 7008              STRB      A1, [A2, #0]          ; [DPU_3_PIPE] |340|  ; [ORIG 16-BIT INS]
    2283                            .dwpsn  file "../picojpeg.c",line 341,column 4,is_stmt,isa 1
    2284                    ;----------------------------------------------------------------------
    2285                    ; 341 | gBitBuf <<= 1;                                                         
    2286                    ;----------------------------------------------------------------------
    2287 00000356 4970              LDR       A2, $C$CON15          ; [DPU_3_PIPE] |341|  ; [ORIG 16-BIT INS]
    2288 00000358 8808              LDRH      A1, [A2, #0]          ; [DPU_3_PIPE] |341|  ; [ORIG 16-BIT INS]
    2289 0000035a 0040              LSLS      A1, A1, #1            ; [DPU_3_PIPE] |341|  ; [ORIG 16-BIT INS]
    2290 0000035c 8008              STRH      A1, [A2, #0]          ; [DPU_3_PIPE] |341|  ; [ORIG 16-BIT INS]
    2291                            .dwpsn  file "../picojpeg.c",line 343,column 4,is_stmt,isa 1
    2292                    ;----------------------------------------------------------------------
    2293                    ; 343 | return ret;                                                            
    2294                    ;----------------------------------------------------------------------
    2295 0000035e 0000F89D          LDRB      A1, [SP, #0]          ; [DPU_3_PIPE] |343|  ; [KEEP 32-BIT INS]
    2296                            .dwpsn  file "../picojpeg.c",line 344,column 1,is_stmt,isa 1
    2297                    $C$DW$114       .dwtag  DW_TAG_TI_branch
    2298                            .dwattr $C$DW$114, DW_AT_low_pc(0x00)
    2299                            .dwattr $C$DW$114, DW_AT_TI_return
    2300                    
    2301 00000362 BD1C              POP       {A3, A4, V1, PC}      ; [DPU_3_PIPE]  ; [ORIG 16-BIT INS]
    2302                            .dwcfi  cfa_offset, 0
    2303                            .dwcfi  restore_reg, 4
TI ARM Assembler PC v16.9.6 Sun Dec 02 13:28:46 2018

Tools Copyright (c) 1996-2017 Texas Instruments Incorporated
picojpeg.asm                                                         PAGE   43

    2304                            .dwcfi  restore_reg, 3
    2305                            .dwcfi  restore_reg, 2
    2306                            ; BRANCH OCCURS                  ; [] 
    2307                            .dwattr $C$DW$111, DW_AT_TI_end_file("../picojpeg.c")
    2308                            .dwattr $C$DW$111, DW_AT_TI_end_line(0x158)
    2309                            .dwattr $C$DW$111, DW_AT_TI_end_column(0x01)
    2310                            .dwendentry
    2311                            .dwendtag $C$DW$111
    2312                    
    2313 00000364                   .sect   ".text"
    2314                            .clink
    2315                            .thumbfunc getExtendTest
    2316 00000364                   .thumb
    2317                    
    2318                    $C$DW$115       .dwtag  DW_TAG_subprogram
    2319                            .dwattr $C$DW$115, DW_AT_name("getExtendTest")
    2320                            .dwattr $C$DW$115, DW_AT_low_pc(getExtendTest)
    2321                            .dwattr $C$DW$115, DW_AT_high_pc(0x00)
    2322                            .dwattr $C$DW$115, DW_AT_TI_symbol_name("getExtendTest")
    2323                            .dwattr $C$DW$115, DW_AT_type(*$C$DW$T$23)
    2324                            .dwattr $C$DW$115, DW_AT_TI_begin_file("../picojpeg.c")
    2325                            .dwattr $C$DW$115, DW_AT_TI_begin_line(0x15a)
    2326                            .dwattr $C$DW$115, DW_AT_TI_begin_column(0x0f)
    2327                            .dwattr $C$DW$115, DW_AT_decl_file("../picojpeg.c")
    2328                            .dwattr $C$DW$115, DW_AT_decl_line(0x15a)
    2329                            .dwattr $C$DW$115, DW_AT_decl_column(0x0f)
    2330                            .dwattr $C$DW$115, DW_AT_TI_max_frame_size(0x08)
    2331                            .dwpsn  file "../picojpeg.c",line 347,column 1,is_stmt,address getExtendTest,isa 1
    2332                    
    2333                            .dwfde $C$DW$CIE, getExtendTest
    2334                    $C$DW$116       .dwtag  DW_TAG_formal_parameter
    2335                            .dwattr $C$DW$116, DW_AT_name("i")
    2336                            .dwattr $C$DW$116, DW_AT_TI_symbol_name("i")
    2337                            .dwattr $C$DW$116, DW_AT_type(*$C$DW$T$25)
    2338                            .dwattr $C$DW$116, DW_AT_location[DW_OP_reg0]
    2339                    
    2340                    ;----------------------------------------------------------------------
    2341                    ; 346 | static uint16 getExtendTest(uint8 i)                                   
    2342                    ;----------------------------------------------------------------------
    2343                    
    2344                    ;*****************************************************************************
    2345                    ;* FUNCTION NAME: getExtendTest                                              *
    2346                    ;*                                                                           *
    2347                    ;*   Regs Modified     : A1,A2,SP,SR                                         *
    2348                    ;*   Regs Used         : A1,A2,SP,LR,SR                                      *
    2349                    ;*   Local Frame Size  : 0 Args + 4 Auto + 0 Save = 4 byte                   *
    2350                    ;*****************************************************************************
    2351 00000364           getExtendTest:
    2352                    ;* --------------------------------------------------------------------------*
    2353                            .dwcfi  cfa_offset, 0
    2354 00000364 0D08F1AD          SUB       SP, SP, #8            ; [DPU_3_PIPE]  ; [KEEP 32-BIT INS]
    2355                            .dwcfi  cfa_offset, 8
    2356                    $C$DW$117       .dwtag  DW_TAG_variable
    2357                            .dwattr $C$DW$117, DW_AT_name("i")
    2358                            .dwattr $C$DW$117, DW_AT_TI_symbol_name("i")
TI ARM Assembler PC v16.9.6 Sun Dec 02 13:28:46 2018

Tools Copyright (c) 1996-2017 Texas Instruments Incorporated
picojpeg.asm                                                         PAGE   44

    2359                            .dwattr $C$DW$117, DW_AT_type(*$C$DW$T$25)
    2360                            .dwattr $C$DW$117, DW_AT_location[DW_OP_breg13 0]
    2361                    
    2362 00000368 0000F88D          STRB      A1, [SP, #0]          ; [DPU_3_PIPE] |347|  ; [KEEP 32-BIT INS]
    2363                            .dwpsn  file "../picojpeg.c",line 348,column 4,is_stmt,isa 1
    2364                    ;----------------------------------------------------------------------
    2365                    ; 348 | switch (i)                                                             
    2366                    ;----------------------------------------------------------------------
    2367 0000036c E028              B         ||$C$L51||            ; [DPU_3_PIPE] |348|  ; [ORIG 16-BIT INS]
    2368                            ; BRANCH OCCURS {||$C$L51||}     ; [] |348| 
    2369                    ;* --------------------------------------------------------------------------*
    2370 0000036e           ||$C$L34||:    
    2371                            .dwpsn  file "../picojpeg.c",line 350,column 15,is_stmt,isa 1
    2372                    ;----------------------------------------------------------------------
    2373                    ; 350 | case 0: return 0;                                                      
    2374                    ;----------------------------------------------------------------------
    2375 0000036e 2000              MOVS      A1, #0                ; [DPU_3_PIPE] |350|  ; [ORIG 16-BIT INS]
    2376 00000370 E04E              B         ||$C$L52||            ; [DPU_3_PIPE] |350|  ; [ORIG 16-BIT INS]
    2377                            ; BRANCH OCCURS {||$C$L52||}     ; [] |350| 
    2378                    ;* --------------------------------------------------------------------------*
    2379 00000372           ||$C$L35||:    
    2380                            .dwpsn  file "../picojpeg.c",line 351,column 15,is_stmt,isa 1
    2381                    ;----------------------------------------------------------------------
    2382                    ; 351 | case 1: return 0x0001;                                                 
    2383                    ;----------------------------------------------------------------------
    2384 00000372 2001              MOVS      A1, #1                ; [DPU_3_PIPE] |351|  ; [ORIG 16-BIT INS]
    2385 00000374 E04C              B         ||$C$L52||            ; [DPU_3_PIPE] |351|  ; [ORIG 16-BIT INS]
    2386                            ; BRANCH OCCURS {||$C$L52||}     ; [] |351| 
    2387                    ;* --------------------------------------------------------------------------*
    2388 00000376           ||$C$L36||:    
    2389                            .dwpsn  file "../picojpeg.c",line 352,column 15,is_stmt,isa 1
    2390                    ;----------------------------------------------------------------------
    2391                    ; 352 | case 2: return 0x0002;                                                 
    2392                    ;----------------------------------------------------------------------
    2393 00000376 2002              MOVS      A1, #2                ; [DPU_3_PIPE] |352|  ; [ORIG 16-BIT INS]
    2394 00000378 E04A              B         ||$C$L52||            ; [DPU_3_PIPE] |352|  ; [ORIG 16-BIT INS]
    2395                            ; BRANCH OCCURS {||$C$L52||}     ; [] |352| 
    2396                    ;* --------------------------------------------------------------------------*
    2397 0000037a           ||$C$L37||:    
    2398                            .dwpsn  file "../picojpeg.c",line 353,column 15,is_stmt,isa 1
    2399                    ;----------------------------------------------------------------------
    2400                    ; 353 | case 3: return 0x0004;                                                 
    2401                    ;----------------------------------------------------------------------
    2402 0000037a 2004              MOVS      A1, #4                ; [DPU_3_PIPE] |353|  ; [ORIG 16-BIT INS]
    2403 0000037c E048              B         ||$C$L52||            ; [DPU_3_PIPE] |353|  ; [ORIG 16-BIT INS]
    2404                            ; BRANCH OCCURS {||$C$L52||}     ; [] |353| 
    2405                    ;* --------------------------------------------------------------------------*
    2406 0000037e           ||$C$L38||:    
    2407                            .dwpsn  file "../picojpeg.c",line 354,column 15,is_stmt,isa 1
    2408                    ;----------------------------------------------------------------------
    2409                    ; 354 | case 4: return 0x0008;                                                 
    2410                    ;----------------------------------------------------------------------
    2411 0000037e 2008              MOVS      A1, #8                ; [DPU_3_PIPE] |354|  ; [ORIG 16-BIT INS]
    2412 00000380 E046              B         ||$C$L52||            ; [DPU_3_PIPE] |354|  ; [ORIG 16-BIT INS]
    2413                            ; BRANCH OCCURS {||$C$L52||}     ; [] |354| 
TI ARM Assembler PC v16.9.6 Sun Dec 02 13:28:46 2018

Tools Copyright (c) 1996-2017 Texas Instruments Incorporated
picojpeg.asm                                                         PAGE   45

    2414                    ;* --------------------------------------------------------------------------*
    2415 00000382           ||$C$L39||:    
    2416                            .dwpsn  file "../picojpeg.c",line 355,column 15,is_stmt,isa 1
    2417                    ;----------------------------------------------------------------------
    2418                    ; 355 | case 5: return 0x0010;                                                 
    2419                    ;----------------------------------------------------------------------
    2420 00000382 2010              MOVS      A1, #16               ; [DPU_3_PIPE] |355|  ; [ORIG 16-BIT INS]
    2421 00000384 E044              B         ||$C$L52||            ; [DPU_3_PIPE] |355|  ; [ORIG 16-BIT INS]
    2422                            ; BRANCH OCCURS {||$C$L52||}     ; [] |355| 
    2423                    ;* --------------------------------------------------------------------------*
    2424 00000386           ||$C$L40||:    
    2425                            .dwpsn  file "../picojpeg.c",line 356,column 15,is_stmt,isa 1
    2426                    ;----------------------------------------------------------------------
    2427                    ; 356 | case 6: return 0x0020;                                                 
    2428                    ;----------------------------------------------------------------------
    2429 00000386 2020              MOVS      A1, #32               ; [DPU_3_PIPE] |356|  ; [ORIG 16-BIT INS]
    2430 00000388 E042              B         ||$C$L52||            ; [DPU_3_PIPE] |356|  ; [ORIG 16-BIT INS]
    2431                            ; BRANCH OCCURS {||$C$L52||}     ; [] |356| 
    2432                    ;* --------------------------------------------------------------------------*
    2433 0000038a           ||$C$L41||:    
    2434                            .dwpsn  file "../picojpeg.c",line 357,column 15,is_stmt,isa 1
    2435                    ;----------------------------------------------------------------------
    2436                    ; 357 | case 7: return 0x0040;                                                 
    2437                    ;----------------------------------------------------------------------
    2438 0000038a 2040              MOVS      A1, #64               ; [DPU_3_PIPE] |357|  ; [ORIG 16-BIT INS]
    2439 0000038c E040              B         ||$C$L52||            ; [DPU_3_PIPE] |357|  ; [ORIG 16-BIT INS]
    2440                            ; BRANCH OCCURS {||$C$L52||}     ; [] |357| 
    2441                    ;* --------------------------------------------------------------------------*
    2442 0000038e           ||$C$L42||:    
    2443                            .dwpsn  file "../picojpeg.c",line 358,column 16,is_stmt,isa 1
    2444                    ;----------------------------------------------------------------------
    2445                    ; 358 | case 8:  return 0x0080;                                                
    2446                    ;----------------------------------------------------------------------
    2447 0000038e 2080              MOVS      A1, #128              ; [DPU_3_PIPE] |358|  ; [ORIG 16-BIT INS]
    2448 00000390 E03E              B         ||$C$L52||            ; [DPU_3_PIPE] |358|  ; [ORIG 16-BIT INS]
    2449                            ; BRANCH OCCURS {||$C$L52||}     ; [] |358| 
    2450                    ;* --------------------------------------------------------------------------*
    2451 00000392           ||$C$L43||:    
    2452                            .dwpsn  file "../picojpeg.c",line 359,column 16,is_stmt,isa 1
    2453                    ;----------------------------------------------------------------------
    2454                    ; 359 | case 9:  return 0x0100;                                                
    2455                    ;----------------------------------------------------------------------
    2456 00000392 7080F44F          MOV       A1, #256              ; [DPU_3_PIPE] |359|  ; [KEEP 32-BIT INS]
    2457 00000396 E03B              B         ||$C$L52||            ; [DPU_3_PIPE] |359|  ; [ORIG 16-BIT INS]
    2458                            ; BRANCH OCCURS {||$C$L52||}     ; [] |359| 
    2459                    ;* --------------------------------------------------------------------------*
    2460 00000398           ||$C$L44||:    
    2461                            .dwpsn  file "../picojpeg.c",line 360,column 16,is_stmt,isa 1
    2462                    ;----------------------------------------------------------------------
    2463                    ; 360 | case 10: return 0x0200;                                                
    2464                    ;----------------------------------------------------------------------
    2465 00000398 7000F44F          MOV       A1, #512              ; [DPU_3_PIPE] |360|  ; [KEEP 32-BIT INS]
    2466 0000039c E038              B         ||$C$L52||            ; [DPU_3_PIPE] |360|  ; [ORIG 16-BIT INS]
    2467                            ; BRANCH OCCURS {||$C$L52||}     ; [] |360| 
    2468                    ;* --------------------------------------------------------------------------*
TI ARM Assembler PC v16.9.6 Sun Dec 02 13:28:46 2018

Tools Copyright (c) 1996-2017 Texas Instruments Incorporated
picojpeg.asm                                                         PAGE   46

    2469 0000039e           ||$C$L45||:    
    2470                            .dwpsn  file "../picojpeg.c",line 361,column 16,is_stmt,isa 1
    2471                    ;----------------------------------------------------------------------
    2472                    ; 361 | case 11: return 0x0400;                                                
    2473                    ;----------------------------------------------------------------------
    2474 0000039e 6080F44F          MOV       A1, #1024             ; [DPU_3_PIPE] |361|  ; [KEEP 32-BIT INS]
    2475 000003a2 E035              B         ||$C$L52||            ; [DPU_3_PIPE] |361|  ; [ORIG 16-BIT INS]
    2476                            ; BRANCH OCCURS {||$C$L52||}     ; [] |361| 
    2477                    ;* --------------------------------------------------------------------------*
    2478 000003a4           ||$C$L46||:    
    2479                            .dwpsn  file "../picojpeg.c",line 362,column 16,is_stmt,isa 1
    2480                    ;----------------------------------------------------------------------
    2481                    ; 362 | case 12: return 0x0800;                                                
    2482                    ;----------------------------------------------------------------------
    2483 000003a4 6000F44F          MOV       A1, #2048             ; [DPU_3_PIPE] |362|  ; [KEEP 32-BIT INS]
    2484 000003a8 E032              B         ||$C$L52||            ; [DPU_3_PIPE] |362|  ; [ORIG 16-BIT INS]
    2485                            ; BRANCH OCCURS {||$C$L52||}     ; [] |362| 
    2486                    ;* --------------------------------------------------------------------------*
    2487 000003aa           ||$C$L47||:    
    2488                            .dwpsn  file "../picojpeg.c",line 363,column 16,is_stmt,isa 1
    2489                    ;----------------------------------------------------------------------
    2490                    ; 363 | case 13: return 0x1000;                                                
    2491                    ;----------------------------------------------------------------------
    2492 000003aa 5080F44F          MOV       A1, #4096             ; [DPU_3_PIPE] |363|  ; [KEEP 32-BIT INS]
    2493 000003ae E02F              B         ||$C$L52||            ; [DPU_3_PIPE] |363|  ; [ORIG 16-BIT INS]
    2494                            ; BRANCH OCCURS {||$C$L52||}     ; [] |363| 
    2495                    ;* --------------------------------------------------------------------------*
    2496 000003b0           ||$C$L48||:    
    2497                            .dwpsn  file "../picojpeg.c",line 364,column 16,is_stmt,isa 1
    2498                    ;----------------------------------------------------------------------
    2499                    ; 364 | case 14: return 0x2000;                                                
    2500                    ;----------------------------------------------------------------------
    2501 000003b0 5000F44F          MOV       A1, #8192             ; [DPU_3_PIPE] |364|  ; [KEEP 32-BIT INS]
    2502 000003b4 E02C              B         ||$C$L52||            ; [DPU_3_PIPE] |364|  ; [ORIG 16-BIT INS]
    2503                            ; BRANCH OCCURS {||$C$L52||}     ; [] |364| 
    2504                    ;* --------------------------------------------------------------------------*
    2505 000003b6           ||$C$L49||:    
    2506                            .dwpsn  file "../picojpeg.c",line 365,column 16,is_stmt,isa 1
    2507                    ;----------------------------------------------------------------------
    2508                    ; 365 | case 15: return 0x4000;                                                
    2509                    ;----------------------------------------------------------------------
    2510 000003b6 4080F44F          MOV       A1, #16384            ; [DPU_3_PIPE] |365|  ; [KEEP 32-BIT INS]
    2511 000003ba E029              B         ||$C$L52||            ; [DPU_3_PIPE] |365|  ; [ORIG 16-BIT INS]
    2512                            ; BRANCH OCCURS {||$C$L52||}     ; [] |365| 
    2513                    ;* --------------------------------------------------------------------------*
    2514 000003bc           ||$C$L50||:    
    2515                            .dwpsn  file "../picojpeg.c",line 366,column 16,is_stmt,isa 1
    2516                    ;----------------------------------------------------------------------
    2517                    ; 366 | default: return 0;                                                     
    2518                    ;----------------------------------------------------------------------
    2519 000003bc 2000              MOVS      A1, #0                ; [DPU_3_PIPE] |366|  ; [ORIG 16-BIT INS]
    2520 000003be E027              B         ||$C$L52||            ; [DPU_3_PIPE] |366|  ; [ORIG 16-BIT INS]
    2521                            ; BRANCH OCCURS {||$C$L52||}     ; [] |366| 
    2522                    ;* --------------------------------------------------------------------------*
    2523                    ;* --------------------------------------------------------------------------*
TI ARM Assembler PC v16.9.6 Sun Dec 02 13:28:46 2018

Tools Copyright (c) 1996-2017 Texas Instruments Incorporated
picojpeg.asm                                                         PAGE   47

    2524 000003c0           ||$C$L51||:    
    2525                            .dwpsn  file "../picojpeg.c",line 348,column 4,is_stmt,isa 1
    2526 000003c0 0000F89D          LDRB      A1, [SP, #0]          ; [DPU_3_PIPE] |348|  ; [KEEP 32-BIT INS]
    2527 000003c4 280F              CMP       A1, #15               ; [DPU_3_PIPE] |348|  ; [ORIG 16-BIT INS]
    2528 000003c6 D8F9              BHI       ||$C$L50||            ; [DPU_3_PIPE] |348|  ; [ORIG 16-BIT INS]
    2529                            ; BRANCHCC OCCURS {||$C$L50||}   ; [] |348| 
    2530                    ;* --------------------------------------------------------------------------*
    2531 000003c8 A101              ADR       A2, ||$C$SW3||        ; [DPU_3_PIPE] |348|  ; [ORIG 16-BIT INS]
    2532 000003ca 0020F851          LDR       A1, [A2, +A1, LSL #2] ; [DPU_3_PIPE] |348|  ; [KEEP 32-BIT INS]
    2533 000003ce 4687              MOV       PC, A1                ; [DPU_3_PIPE] |348|  ; [ORIG 16-BIT INS]
    2534                            ; BRANCH OCCURS                  ; [] |348| 
    2535 000003d0 00000000! ||$C$SW3||:     .word   ||$C$L34||      ; 0
    2536 000003d4 00000000!         .word   ||$C$L35||      ; 1
    2537 000003d8 00000000!         .word   ||$C$L36||      ; 2
    2538 000003dc 00000000!         .word   ||$C$L37||      ; 3
    2539 000003e0 00000000!         .word   ||$C$L38||      ; 4
    2540 000003e4 00000000!         .word   ||$C$L39||      ; 5
    2541 000003e8 00000000!         .word   ||$C$L40||      ; 6
    2542 000003ec 00000000!         .word   ||$C$L41||      ; 7
    2543 000003f0 00000000!         .word   ||$C$L42||      ; 8
    2544 000003f4 00000000!         .word   ||$C$L43||      ; 9
    2545 000003f8 00000000!         .word   ||$C$L44||      ; 10
    2546 000003fc 00000000!         .word   ||$C$L45||      ; 11
    2547 00000400 00000000!         .word   ||$C$L46||      ; 12
    2548 00000404 00000000!         .word   ||$C$L47||      ; 13
    2549 00000408 00000000!         .word   ||$C$L48||      ; 14
    2550 0000040c 00000000!         .word   ||$C$L49||      ; 15
    2551                    ;* --------------------------------------------------------------------------*
    2552 00000410           ||$C$L52||:    
    2553                            .dwpsn  file "../picojpeg.c",line 368,column 1,is_stmt,isa 1
    2554 00000410 B002              ADD       SP, SP, #8            ; [DPU_3_PIPE]  ; [ORIG 16-BIT INS]
    2555                            .dwcfi  cfa_offset, 0
    2556                    $C$DW$118       .dwtag  DW_TAG_TI_branch
    2557                            .dwattr $C$DW$118, DW_AT_low_pc(0x00)
    2558                            .dwattr $C$DW$118, DW_AT_TI_return
    2559                    
    2560 00000412 4770              BX        LR                    ; [DPU_3_PIPE]  ; [ORIG 16-BIT INS]
    2561                            ; BRANCH OCCURS                  ; [] 
    2562                            .dwattr $C$DW$115, DW_AT_TI_end_file("../picojpeg.c")
    2563                            .dwattr $C$DW$115, DW_AT_TI_end_line(0x170)
    2564                            .dwattr $C$DW$115, DW_AT_TI_end_column(0x01)
    2565                            .dwendentry
    2566                            .dwendtag $C$DW$115
    2567                    
    2568                    ;******************************************************************************
    2569                    ;* CONSTANT TABLE                                                             *
    2570                    ;******************************************************************************
    2571 00000414                   .sect   ".text"
    2572                            .align  4
    2573 00000414 00000000! ||$C$CON8||:    .bits   gInBufOfs,32
    2574                            .align  4
    2575 00000418 00000000! ||$C$CON9||:    .bits   gInBufLeft,32
    2576                            .align  4
    2577 0000041c 00000000! ||$C$CON10||:   .bits   gInBuf,32
    2578                            .align  4
TI ARM Assembler PC v16.9.6 Sun Dec 02 13:28:46 2018

Tools Copyright (c) 1996-2017 Texas Instruments Incorporated
picojpeg.asm                                                         PAGE   48

    2579 00000420 00000000! ||$C$CON11||:   .bits   g_pCallback_data,32
    2580                            .align  4
    2581 00000424 00000000! ||$C$CON12||:   .bits   g_pNeedBytesCallback,32
    2582                            .align  4
    2583 00000428 00000000! ||$C$CON13||:   .bits   gCallbackStatus,32
    2584                            .align  4
    2585 0000042c 00000000! ||$C$CON14||:   .bits   gTemFlag,32
    2586 00000430                   .sect   ".text"
    2587                            .clink
    2588                            .thumbfunc getExtendOffset
    2589 00000430                   .thumb
    2590                    
    2591                    $C$DW$119       .dwtag  DW_TAG_subprogram
    2592                            .dwattr $C$DW$119, DW_AT_name("getExtendOffset")
    2593                            .dwattr $C$DW$119, DW_AT_low_pc(getExtendOffset)
    2594                            .dwattr $C$DW$119, DW_AT_high_pc(0x00)
    2595                            .dwattr $C$DW$119, DW_AT_TI_symbol_name("getExtendOffset")
    2596                            .dwattr $C$DW$119, DW_AT_type(*$C$DW$T$48)
    2597                            .dwattr $C$DW$119, DW_AT_TI_begin_file("../picojpeg.c")
    2598                            .dwattr $C$DW$119, DW_AT_TI_begin_line(0x172)
    2599                            .dwattr $C$DW$119, DW_AT_TI_begin_column(0x0e)
    2600                            .dwattr $C$DW$119, DW_AT_decl_file("../picojpeg.c")
    2601                            .dwattr $C$DW$119, DW_AT_decl_line(0x172)
    2602                            .dwattr $C$DW$119, DW_AT_decl_column(0x0e)
    2603                            .dwattr $C$DW$119, DW_AT_TI_max_frame_size(0x08)
    2604                            .dwpsn  file "../picojpeg.c",line 371,column 1,is_stmt,address getExtendOffset,isa 1
    2605                    
    2606                            .dwfde $C$DW$CIE, getExtendOffset
    2607                    $C$DW$120       .dwtag  DW_TAG_formal_parameter
    2608                            .dwattr $C$DW$120, DW_AT_name("i")
    2609                            .dwattr $C$DW$120, DW_AT_TI_symbol_name("i")
    2610                            .dwattr $C$DW$120, DW_AT_type(*$C$DW$T$25)
    2611                            .dwattr $C$DW$120, DW_AT_location[DW_OP_reg0]
    2612                    
    2613                    ;----------------------------------------------------------------------
    2614                    ; 370 | static int16 getExtendOffset(uint8 i)                                  
    2615                    ;----------------------------------------------------------------------
    2616                    
    2617                    ;*****************************************************************************
    2618                    ;* FUNCTION NAME: getExtendOffset                                            *
    2619                    ;*                                                                           *
    2620                    ;*   Regs Modified     : A1,A2,SP,SR                                         *
    2621                    ;*   Regs Used         : A1,A2,SP,LR,SR                                      *
    2622                    ;*   Local Frame Size  : 0 Args + 4 Auto + 0 Save = 4 byte                   *
    2623                    ;*****************************************************************************
    2624 00000430           getExtendOffset:
    2625                    ;* --------------------------------------------------------------------------*
    2626                            .dwcfi  cfa_offset, 0
    2627 00000430 0D08F1AD          SUB       SP, SP, #8            ; [DPU_3_PIPE]  ; [KEEP 32-BIT INS]
    2628                            .dwcfi  cfa_offset, 8
    2629                    $C$DW$121       .dwtag  DW_TAG_variable
    2630                            .dwattr $C$DW$121, DW_AT_name("i")
    2631                            .dwattr $C$DW$121, DW_AT_TI_symbol_name("i")
    2632                            .dwattr $C$DW$121, DW_AT_type(*$C$DW$T$25)
    2633                            .dwattr $C$DW$121, DW_AT_location[DW_OP_breg13 0]
TI ARM Assembler PC v16.9.6 Sun Dec 02 13:28:46 2018

Tools Copyright (c) 1996-2017 Texas Instruments Incorporated
picojpeg.asm                                                         PAGE   49

    2634                    
    2635 00000434 0000F88D          STRB      A1, [SP, #0]          ; [DPU_3_PIPE] |371|  ; [KEEP 32-BIT INS]
    2636                            .dwpsn  file "../picojpeg.c",line 372,column 4,is_stmt,isa 1
    2637                    ;----------------------------------------------------------------------
    2638                    ; 372 | switch (i)                                                             
    2639                    ;----------------------------------------------------------------------
    2640 00000438 E02A              B         ||$C$L70||            ; [DPU_3_PIPE] |372|  ; [ORIG 16-BIT INS]
    2641                            ; BRANCH OCCURS {||$C$L70||}     ; [] |372| 
    2642                    ;* --------------------------------------------------------------------------*
    2643 0000043a           ||$C$L53||:    
    2644                            .dwpsn  file "../picojpeg.c",line 374,column 15,is_stmt,isa 1
    2645                    ;----------------------------------------------------------------------
    2646                    ; 374 | case 0: return 0;                                                      
    2647                    ;----------------------------------------------------------------------
    2648 0000043a 2000              MOVS      A1, #0                ; [DPU_3_PIPE] |374|  ; [ORIG 16-BIT INS]
    2649 0000043c E050              B         ||$C$L71||            ; [DPU_3_PIPE] |374|  ; [ORIG 16-BIT INS]
    2650                            ; BRANCH OCCURS {||$C$L71||}     ; [] |374| 
    2651                    ;* --------------------------------------------------------------------------*
    2652 0000043e           ||$C$L54||:    
    2653                            .dwpsn  file "../picojpeg.c",line 375,column 15,is_stmt,isa 1
    2654                    ;----------------------------------------------------------------------
    2655                    ; 375 | case 1: return ((-1)<<1) + 1;                                          
    2656                    ;----------------------------------------------------------------------
    2657 0000043e 30FFF04F          MOV       A1, #-1               ; [DPU_3_PIPE] |375|  ; [KEEP 32-BIT INS]
    2658 00000442 E04D              B         ||$C$L71||            ; [DPU_3_PIPE] |375|  ; [ORIG 16-BIT INS]
    2659                            ; BRANCH OCCURS {||$C$L71||}     ; [] |375| 
    2660                    ;* --------------------------------------------------------------------------*
    2661 00000444           ||$C$L55||:    
    2662                            .dwpsn  file "../picojpeg.c",line 376,column 15,is_stmt,isa 1
    2663                    ;----------------------------------------------------------------------
    2664                    ; 376 | case 2: return ((-1)<<2) + 1;                                          
    2665                    ;----------------------------------------------------------------------
    2666 00000444 0002F06F          MVN       A1, #2                ; [DPU_3_PIPE] |376|  ; [KEEP 32-BIT INS]
    2667 00000448 E04A              B         ||$C$L71||            ; [DPU_3_PIPE] |376|  ; [ORIG 16-BIT INS]
    2668                            ; BRANCH OCCURS {||$C$L71||}     ; [] |376| 
    2669                    ;* --------------------------------------------------------------------------*
    2670 0000044a           ||$C$L56||:    
    2671                            .dwpsn  file "../picojpeg.c",line 377,column 15,is_stmt,isa 1
    2672                    ;----------------------------------------------------------------------
    2673                    ; 377 | case 3: return ((-1)<<3) + 1;                                          
    2674                    ;----------------------------------------------------------------------
    2675 0000044a 0006F06F          MVN       A1, #6                ; [DPU_3_PIPE] |377|  ; [KEEP 32-BIT INS]
    2676 0000044e E047              B         ||$C$L71||            ; [DPU_3_PIPE] |377|  ; [ORIG 16-BIT INS]
    2677                            ; BRANCH OCCURS {||$C$L71||}     ; [] |377| 
    2678                    ;* --------------------------------------------------------------------------*
    2679 00000450           ||$C$L57||:    
    2680                            .dwpsn  file "../picojpeg.c",line 378,column 15,is_stmt,isa 1
    2681                    ;----------------------------------------------------------------------
    2682                    ; 378 | case 4: return ((-1)<<4) + 1;                                          
    2683                    ;----------------------------------------------------------------------
    2684 00000450 000EF06F          MVN       A1, #14               ; [DPU_3_PIPE] |378|  ; [KEEP 32-BIT INS]
    2685 00000454 E044              B         ||$C$L71||            ; [DPU_3_PIPE] |378|  ; [ORIG 16-BIT INS]
    2686                            ; BRANCH OCCURS {||$C$L71||}     ; [] |378| 
    2687                    ;* --------------------------------------------------------------------------*
    2688 00000456           ||$C$L58||:    
TI ARM Assembler PC v16.9.6 Sun Dec 02 13:28:46 2018

Tools Copyright (c) 1996-2017 Texas Instruments Incorporated
picojpeg.asm                                                         PAGE   50

    2689                            .dwpsn  file "../picojpeg.c",line 379,column 15,is_stmt,isa 1
    2690                    ;----------------------------------------------------------------------
    2691                    ; 379 | case 5: return ((-1)<<5) + 1;                                          
    2692                    ;----------------------------------------------------------------------
    2693 00000456 001EF06F          MVN       A1, #30               ; [DPU_3_PIPE] |379|  ; [KEEP 32-BIT INS]
    2694 0000045a E041              B         ||$C$L71||            ; [DPU_3_PIPE] |379|  ; [ORIG 16-BIT INS]
    2695                            ; BRANCH OCCURS {||$C$L71||}     ; [] |379| 
    2696                    ;* --------------------------------------------------------------------------*
    2697 0000045c           ||$C$L59||:    
    2698                            .dwpsn  file "../picojpeg.c",line 380,column 15,is_stmt,isa 1
    2699                    ;----------------------------------------------------------------------
    2700                    ; 380 | case 6: return ((-1)<<6) + 1;                                          
    2701                    ;----------------------------------------------------------------------
    2702 0000045c 003EF06F          MVN       A1, #62               ; [DPU_3_PIPE] |380|  ; [KEEP 32-BIT INS]
    2703 00000460 E03E              B         ||$C$L71||            ; [DPU_3_PIPE] |380|  ; [ORIG 16-BIT INS]
    2704                            ; BRANCH OCCURS {||$C$L71||}     ; [] |380| 
    2705                    ;* --------------------------------------------------------------------------*
    2706 00000462           ||$C$L60||:    
    2707                            .dwpsn  file "../picojpeg.c",line 381,column 15,is_stmt,isa 1
    2708                    ;----------------------------------------------------------------------
    2709                    ; 381 | case 7: return ((-1)<<7) + 1;                                          
    2710                    ;----------------------------------------------------------------------
    2711 00000462 007EF06F          MVN       A1, #126              ; [DPU_3_PIPE] |381|  ; [KEEP 32-BIT INS]
    2712 00000466 E03B              B         ||$C$L71||            ; [DPU_3_PIPE] |381|  ; [ORIG 16-BIT INS]
    2713                            ; BRANCH OCCURS {||$C$L71||}     ; [] |381| 
    2714                    ;* --------------------------------------------------------------------------*
    2715 00000468           ||$C$L61||:    
    2716                            .dwpsn  file "../picojpeg.c",line 382,column 15,is_stmt,isa 1
    2717                    ;----------------------------------------------------------------------
    2718                    ; 382 | case 8: return ((-1)<<8) + 1;                                          
    2719                    ;----------------------------------------------------------------------
    2720 00000468 00FEF06F          MVN       A1, #254              ; [DPU_3_PIPE] |382|  ; [KEEP 32-BIT INS]
    2721 0000046c E038              B         ||$C$L71||            ; [DPU_3_PIPE] |382|  ; [ORIG 16-BIT INS]
    2722                            ; BRANCH OCCURS {||$C$L71||}     ; [] |382| 
    2723                    ;* --------------------------------------------------------------------------*
    2724 0000046e           ||$C$L62||:    
    2725                            .dwpsn  file "../picojpeg.c",line 383,column 15,is_stmt,isa 1
    2726                    ;----------------------------------------------------------------------
    2727                    ; 383 | case 9: return ((-1)<<9) + 1;                                          
    2728                    ;----------------------------------------------------------------------
    2729 0000046e 70FFF46F          MVN       A1, #510              ; [DPU_3_PIPE] |383|  ; [KEEP 32-BIT INS]
    2730 00000472 E035              B         ||$C$L71||            ; [DPU_3_PIPE] |383|  ; [ORIG 16-BIT INS]
    2731                            ; BRANCH OCCURS {||$C$L71||}     ; [] |383| 
    2732                    ;* --------------------------------------------------------------------------*
    2733 00000474           ||$C$L63||:    
    2734                            .dwpsn  file "../picojpeg.c",line 384,column 16,is_stmt,isa 1
    2735                    ;----------------------------------------------------------------------
    2736                    ; 384 | case 10: return ((-1)<<10) + 1;                                        
    2737                    ;----------------------------------------------------------------------
    2738 00000474 48A9              LDR       A1, $C$CON17          ; [DPU_3_PIPE] |384|  ; [ORIG 16-BIT INS]
    2739 00000476 E033              B         ||$C$L71||            ; [DPU_3_PIPE] |384|  ; [ORIG 16-BIT INS]
    2740                            ; BRANCH OCCURS {||$C$L71||}     ; [] |384| 
    2741                    ;* --------------------------------------------------------------------------*
    2742 00000478           ||$C$L64||:    
    2743                            .dwpsn  file "../picojpeg.c",line 385,column 16,is_stmt,isa 1
TI ARM Assembler PC v16.9.6 Sun Dec 02 13:28:46 2018

Tools Copyright (c) 1996-2017 Texas Instruments Incorporated
picojpeg.asm                                                         PAGE   51

    2744                    ;----------------------------------------------------------------------
    2745                    ; 385 | case 11: return ((-1)<<11) + 1;                                        
    2746                    ;----------------------------------------------------------------------
    2747 00000478 48A9              LDR       A1, $C$CON18          ; [DPU_3_PIPE] |385|  ; [ORIG 16-BIT INS]
    2748 0000047a E031              B         ||$C$L71||            ; [DPU_3_PIPE] |385|  ; [ORIG 16-BIT INS]
    2749                            ; BRANCH OCCURS {||$C$L71||}     ; [] |385| 
    2750                    ;* --------------------------------------------------------------------------*
    2751 0000047c           ||$C$L65||:    
    2752                            .dwpsn  file "../picojpeg.c",line 386,column 16,is_stmt,isa 1
    2753                    ;----------------------------------------------------------------------
    2754                    ; 386 | case 12: return ((-1)<<12) + 1;                                        
    2755                    ;----------------------------------------------------------------------
    2756 0000047c 48A9              LDR       A1, $C$CON19          ; [DPU_3_PIPE] |386|  ; [ORIG 16-BIT INS]
    2757 0000047e E02F              B         ||$C$L71||            ; [DPU_3_PIPE] |386|  ; [ORIG 16-BIT INS]
    2758                            ; BRANCH OCCURS {||$C$L71||}     ; [] |386| 
    2759                    ;* --------------------------------------------------------------------------*
    2760 00000480           ||$C$L66||:    
    2761                            .dwpsn  file "../picojpeg.c",line 387,column 16,is_stmt,isa 1
    2762                    ;----------------------------------------------------------------------
    2763                    ; 387 | case 13: return ((-1)<<13) + 1;                                        
    2764                    ;----------------------------------------------------------------------
    2765 00000480 48A9              LDR       A1, $C$CON20          ; [DPU_3_PIPE] |387|  ; [ORIG 16-BIT INS]
    2766 00000482 E02D              B         ||$C$L71||            ; [DPU_3_PIPE] |387|  ; [ORIG 16-BIT INS]
    2767                            ; BRANCH OCCURS {||$C$L71||}     ; [] |387| 
    2768                    ;* --------------------------------------------------------------------------*
    2769 00000484           ||$C$L67||:    
    2770                            .dwpsn  file "../picojpeg.c",line 388,column 16,is_stmt,isa 1
    2771                    ;----------------------------------------------------------------------
    2772                    ; 388 | case 14: return ((-1)<<14) + 1;                                        
    2773                    ;----------------------------------------------------------------------
    2774 00000484 48A9              LDR       A1, $C$CON21          ; [DPU_3_PIPE] |388|  ; [ORIG 16-BIT INS]
    2775 00000486 E02B              B         ||$C$L71||            ; [DPU_3_PIPE] |388|  ; [ORIG 16-BIT INS]
    2776                            ; BRANCH OCCURS {||$C$L71||}     ; [] |388| 
    2777                    ;* --------------------------------------------------------------------------*
    2778 00000488           ||$C$L68||:    
    2779                            .dwpsn  file "../picojpeg.c",line 389,column 16,is_stmt,isa 1
    2780                    ;----------------------------------------------------------------------
    2781                    ; 389 | case 15: return ((-1)<<15) + 1;                                        
    2782                    ;----------------------------------------------------------------------
    2783 00000488 48A9              LDR       A1, $C$CON22          ; [DPU_3_PIPE] |389|  ; [ORIG 16-BIT INS]
    2784 0000048a E029              B         ||$C$L71||            ; [DPU_3_PIPE] |389|  ; [ORIG 16-BIT INS]
    2785                            ; BRANCH OCCURS {||$C$L71||}     ; [] |389| 
    2786                    ;* --------------------------------------------------------------------------*
    2787 0000048c           ||$C$L69||:    
    2788                            .dwpsn  file "../picojpeg.c",line 390,column 16,is_stmt,isa 1
    2789                    ;----------------------------------------------------------------------
    2790                    ; 390 | default: return 0;                                                     
    2791                    ;----------------------------------------------------------------------
    2792 0000048c 2000              MOVS      A1, #0                ; [DPU_3_PIPE] |390|  ; [ORIG 16-BIT INS]
    2793 0000048e E027              B         ||$C$L71||            ; [DPU_3_PIPE] |390|  ; [ORIG 16-BIT INS]
    2794                            ; BRANCH OCCURS {||$C$L71||}     ; [] |390| 
    2795                    ;* --------------------------------------------------------------------------*
    2796                    ;* --------------------------------------------------------------------------*
    2797 00000490           ||$C$L70||:    
    2798                            .dwpsn  file "../picojpeg.c",line 372,column 4,is_stmt,isa 1
TI ARM Assembler PC v16.9.6 Sun Dec 02 13:28:46 2018

Tools Copyright (c) 1996-2017 Texas Instruments Incorporated
picojpeg.asm                                                         PAGE   52

    2799 00000490 0000F89D          LDRB      A1, [SP, #0]          ; [DPU_3_PIPE] |372|  ; [KEEP 32-BIT INS]
    2800 00000494 280F              CMP       A1, #15               ; [DPU_3_PIPE] |372|  ; [ORIG 16-BIT INS]
    2801 00000496 D8F9              BHI       ||$C$L69||            ; [DPU_3_PIPE] |372|  ; [ORIG 16-BIT INS]
    2802                            ; BRANCHCC OCCURS {||$C$L69||}   ; [] |372| 
    2803                    ;* --------------------------------------------------------------------------*
    2804 00000498 A101              ADR       A2, ||$C$SW5||        ; [DPU_3_PIPE] |372|  ; [ORIG 16-BIT INS]
    2805 0000049a 0020F851          LDR       A1, [A2, +A1, LSL #2] ; [DPU_3_PIPE] |372|  ; [KEEP 32-BIT INS]
    2806 0000049e 4687              MOV       PC, A1                ; [DPU_3_PIPE] |372|  ; [ORIG 16-BIT INS]
    2807                            ; BRANCH OCCURS                  ; [] |372| 
    2808 000004a0 00000000! ||$C$SW5||:     .word   ||$C$L53||      ; 0
    2809 000004a4 00000000!         .word   ||$C$L54||      ; 1
    2810 000004a8 00000000!         .word   ||$C$L55||      ; 2
    2811 000004ac 00000000!         .word   ||$C$L56||      ; 3
    2812 000004b0 00000000!         .word   ||$C$L57||      ; 4
    2813 000004b4 00000000!         .word   ||$C$L58||      ; 5
    2814 000004b8 00000000!         .word   ||$C$L59||      ; 6
    2815 000004bc 00000000!         .word   ||$C$L60||      ; 7
    2816 000004c0 00000000!         .word   ||$C$L61||      ; 8
    2817 000004c4 00000000!         .word   ||$C$L62||      ; 9
    2818 000004c8 00000000!         .word   ||$C$L63||      ; 10
    2819 000004cc 00000000!         .word   ||$C$L64||      ; 11
    2820 000004d0 00000000!         .word   ||$C$L65||      ; 12
    2821 000004d4 00000000!         .word   ||$C$L66||      ; 13
    2822 000004d8 00000000!         .word   ||$C$L67||      ; 14
    2823 000004dc 00000000!         .word   ||$C$L68||      ; 15
    2824                    ;* --------------------------------------------------------------------------*
    2825 000004e0           ||$C$L71||:    
    2826                            .dwpsn  file "../picojpeg.c",line 392,column 1,is_stmt,isa 1
    2827                    ;----------------------------------------------------------------------
    2828                    ; 392 | };                                                                     
    2829                    ;----------------------------------------------------------------------
    2830 000004e0 B002              ADD       SP, SP, #8            ; [DPU_3_PIPE]  ; [ORIG 16-BIT INS]
    2831                            .dwcfi  cfa_offset, 0
    2832                    $C$DW$122       .dwtag  DW_TAG_TI_branch
    2833                            .dwattr $C$DW$122, DW_AT_low_pc(0x00)
    2834                            .dwattr $C$DW$122, DW_AT_TI_return
    2835                    
    2836 000004e2 4770              BX        LR                    ; [DPU_3_PIPE]  ; [ORIG 16-BIT INS]
    2837                            ; BRANCH OCCURS                  ; [] 
    2838                            .dwattr $C$DW$119, DW_AT_TI_end_file("../picojpeg.c")
    2839                            .dwattr $C$DW$119, DW_AT_TI_end_line(0x188)
    2840                            .dwattr $C$DW$119, DW_AT_TI_end_column(0x01)
    2841                            .dwendentry
    2842                            .dwendtag $C$DW$119
    2843                    
    2844 000004e4                   .sect   ".text"
    2845                            .clink
    2846                            .thumbfunc huffExtend
    2847 000004e4                   .thumb
    2848                    
    2849                    $C$DW$123       .dwtag  DW_TAG_subprogram
    2850                            .dwattr $C$DW$123, DW_AT_name("huffExtend")
    2851                            .dwattr $C$DW$123, DW_AT_low_pc(huffExtend)
